ARM GAS  C:\Users\VIDCOM~1\AppData\Local\Temp\cc9naxsX.s 			page 1


   1              		.cpu cortex-m3
   2              		.arch armv7-m
   3              		.fpu softvfp
   4              		.eabi_attribute 20, 1
   5              		.eabi_attribute 21, 1
   6              		.eabi_attribute 23, 3
   7              		.eabi_attribute 24, 1
   8              		.eabi_attribute 25, 1
   9              		.eabi_attribute 26, 1
  10              		.eabi_attribute 30, 1
  11              		.eabi_attribute 34, 1
  12              		.eabi_attribute 18, 4
  13              		.file	"dhcp.c"
  14              		.text
  15              	.Ltext0:
  16              		.cfi_sections	.debug_frame
  17              		.file 1 "ioLibrary_Driver-master/Internet/DHCP/dhcp.c"
  18              		.section	.text.default_ip_assign,"ax",%progbits
  19              		.align	1
  20              		.global	default_ip_assign
  21              		.syntax unified
  22              		.thumb
  23              		.thumb_func
  25              	default_ip_assign:
  26              	.LFB0:
   1:ioLibrary_Driver-master/Internet/DHCP/dhcp.c **** //*****************************************************************************
   2:ioLibrary_Driver-master/Internet/DHCP/dhcp.c **** //
   3:ioLibrary_Driver-master/Internet/DHCP/dhcp.c **** //! \file dhcp.c
   4:ioLibrary_Driver-master/Internet/DHCP/dhcp.c **** //! \brief DHCP APIs implement file.
   5:ioLibrary_Driver-master/Internet/DHCP/dhcp.c **** //! \details Processing DHCP protocol as DISCOVER, OFFER, REQUEST, ACK, NACK and DECLINE.
   6:ioLibrary_Driver-master/Internet/DHCP/dhcp.c **** //! \version 1.1.1
   7:ioLibrary_Driver-master/Internet/DHCP/dhcp.c **** //! \date 2019/10/08
   8:ioLibrary_Driver-master/Internet/DHCP/dhcp.c **** //! \par  Revision history
   9:ioLibrary_Driver-master/Internet/DHCP/dhcp.c **** //!       <2019/10/08> compare DHCP server ip address
  10:ioLibrary_Driver-master/Internet/DHCP/dhcp.c **** //!       <2013/11/18> 1st Release
  11:ioLibrary_Driver-master/Internet/DHCP/dhcp.c **** //!       <2012/12/20> V1.1.0
  12:ioLibrary_Driver-master/Internet/DHCP/dhcp.c **** //!         1. Optimize code
  13:ioLibrary_Driver-master/Internet/DHCP/dhcp.c **** //!         2. Add reg_dhcp_cbfunc()
  14:ioLibrary_Driver-master/Internet/DHCP/dhcp.c **** //!         3. Add DHCP_stop()
  15:ioLibrary_Driver-master/Internet/DHCP/dhcp.c **** //!         4. Integrate check_DHCP_state() & DHCP_run() to DHCP_run()
  16:ioLibrary_Driver-master/Internet/DHCP/dhcp.c **** //!         5. Don't care system endian
  17:ioLibrary_Driver-master/Internet/DHCP/dhcp.c **** //!         6. Add comments
  18:ioLibrary_Driver-master/Internet/DHCP/dhcp.c **** //!       <2012/12/26> V1.1.1
  19:ioLibrary_Driver-master/Internet/DHCP/dhcp.c **** //!         1. Modify variable declaration: dhcp_tick_1s is declared volatile for code optimization
  20:ioLibrary_Driver-master/Internet/DHCP/dhcp.c **** //! \author Eric Jung & MidnightCow
  21:ioLibrary_Driver-master/Internet/DHCP/dhcp.c **** //! \copyright
  22:ioLibrary_Driver-master/Internet/DHCP/dhcp.c **** //!
  23:ioLibrary_Driver-master/Internet/DHCP/dhcp.c **** //! Copyright (c)  2013, WIZnet Co., LTD.
  24:ioLibrary_Driver-master/Internet/DHCP/dhcp.c **** //! All rights reserved.
  25:ioLibrary_Driver-master/Internet/DHCP/dhcp.c **** //!
  26:ioLibrary_Driver-master/Internet/DHCP/dhcp.c **** //! Redistribution and use in source and binary forms, with or without
  27:ioLibrary_Driver-master/Internet/DHCP/dhcp.c **** //! modification, are permitted provided that the following conditions
  28:ioLibrary_Driver-master/Internet/DHCP/dhcp.c **** //! are met:
  29:ioLibrary_Driver-master/Internet/DHCP/dhcp.c **** //!
  30:ioLibrary_Driver-master/Internet/DHCP/dhcp.c **** //!     * Redistributions of source code must retain the above copyright
  31:ioLibrary_Driver-master/Internet/DHCP/dhcp.c **** //! notice, this list of conditions and the following disclaimer.
  32:ioLibrary_Driver-master/Internet/DHCP/dhcp.c **** //!     * Redistributions in binary form must reproduce the above copyright
ARM GAS  C:\Users\VIDCOM~1\AppData\Local\Temp\cc9naxsX.s 			page 2


  33:ioLibrary_Driver-master/Internet/DHCP/dhcp.c **** //! notice, this list of conditions and the following disclaimer in the
  34:ioLibrary_Driver-master/Internet/DHCP/dhcp.c **** //! documentation and/or other materials provided with the distribution.
  35:ioLibrary_Driver-master/Internet/DHCP/dhcp.c **** //!     * Neither the name of the <ORGANIZATION> nor the names of its
  36:ioLibrary_Driver-master/Internet/DHCP/dhcp.c **** //! contributors may be used to endorse or promote products derived
  37:ioLibrary_Driver-master/Internet/DHCP/dhcp.c **** //! from this software without specific prior written permission.
  38:ioLibrary_Driver-master/Internet/DHCP/dhcp.c **** //!
  39:ioLibrary_Driver-master/Internet/DHCP/dhcp.c **** //! THIS SOFTWARE IS PROVIDED BY THE COPYRIGHT HOLDERS AND CONTRIBUTORS "AS IS"
  40:ioLibrary_Driver-master/Internet/DHCP/dhcp.c **** //! AND ANY EXPRESS OR IMPLIED WARRANTIES, INCLUDING, BUT NOT LIMITED TO, THE
  41:ioLibrary_Driver-master/Internet/DHCP/dhcp.c **** //! IMPLIED WARRANTIES OF MERCHANTABILITY AND FITNESS FOR A PARTICULAR PURPOSE
  42:ioLibrary_Driver-master/Internet/DHCP/dhcp.c **** //! ARE DISCLAIMED. IN NO EVENT SHALL THE COPYRIGHT OWNER OR CONTRIBUTORS BE
  43:ioLibrary_Driver-master/Internet/DHCP/dhcp.c **** //! LIABLE FOR ANY DIRECT, INDIRECT, INCIDENTAL, SPECIAL, EXEMPLARY, OR
  44:ioLibrary_Driver-master/Internet/DHCP/dhcp.c **** //! CONSEQUENTIAL DAMAGES (INCLUDING, BUT NOT LIMITED TO, PROCUREMENT OF
  45:ioLibrary_Driver-master/Internet/DHCP/dhcp.c **** //! SUBSTITUTE GOODS OR SERVICES; LOSS OF USE, DATA, OR PROFITS; OR BUSINESS
  46:ioLibrary_Driver-master/Internet/DHCP/dhcp.c **** //! INTERRUPTION) HOWEVER CAUSED AND ON ANY THEORY OF LIABILITY, WHETHER IN
  47:ioLibrary_Driver-master/Internet/DHCP/dhcp.c **** //! CONTRACT, STRICT LIABILITY, OR TORT (INCLUDING NEGLIGENCE OR OTHERWISE)
  48:ioLibrary_Driver-master/Internet/DHCP/dhcp.c **** //! ARISING IN ANY WAY OUT OF THE USE OF THIS SOFTWARE, EVEN IF ADVISED OF
  49:ioLibrary_Driver-master/Internet/DHCP/dhcp.c **** //! THE POSSIBILITY OF SUCH DAMAGE.
  50:ioLibrary_Driver-master/Internet/DHCP/dhcp.c **** //
  51:ioLibrary_Driver-master/Internet/DHCP/dhcp.c **** //*****************************************************************************
  52:ioLibrary_Driver-master/Internet/DHCP/dhcp.c **** 
  53:ioLibrary_Driver-master/Internet/DHCP/dhcp.c **** #include "socket.h"
  54:ioLibrary_Driver-master/Internet/DHCP/dhcp.c **** #include "dhcp.h"
  55:ioLibrary_Driver-master/Internet/DHCP/dhcp.c **** 
  56:ioLibrary_Driver-master/Internet/DHCP/dhcp.c **** /* If you want to display debug & processing message, Define _DHCP_DEBUG_ in dhcp.h */
  57:ioLibrary_Driver-master/Internet/DHCP/dhcp.c **** 
  58:ioLibrary_Driver-master/Internet/DHCP/dhcp.c **** #ifdef _DHCP_DEBUG_
  59:ioLibrary_Driver-master/Internet/DHCP/dhcp.c **** #include <stdio.h>
  60:ioLibrary_Driver-master/Internet/DHCP/dhcp.c **** #endif
  61:ioLibrary_Driver-master/Internet/DHCP/dhcp.c **** 
  62:ioLibrary_Driver-master/Internet/DHCP/dhcp.c **** /* DHCP state machine. */
  63:ioLibrary_Driver-master/Internet/DHCP/dhcp.c **** #define STATE_DHCP_INIT 0	   ///< Initialize
  64:ioLibrary_Driver-master/Internet/DHCP/dhcp.c **** #define STATE_DHCP_DISCOVER 1  ///< send DISCOVER and wait OFFER
  65:ioLibrary_Driver-master/Internet/DHCP/dhcp.c **** #define STATE_DHCP_REQUEST 2   ///< send REQEUST and wait ACK or NACK
  66:ioLibrary_Driver-master/Internet/DHCP/dhcp.c **** #define STATE_DHCP_LEASED 3	   ///< ReceiveD ACK and IP leased
  67:ioLibrary_Driver-master/Internet/DHCP/dhcp.c **** #define STATE_DHCP_REREQUEST 4 ///< send REQUEST for maintaining leased IP
  68:ioLibrary_Driver-master/Internet/DHCP/dhcp.c **** #define STATE_DHCP_RELEASE 5   ///< No use
  69:ioLibrary_Driver-master/Internet/DHCP/dhcp.c **** #define STATE_DHCP_STOP 6	   ///< Stop processing DHCP
  70:ioLibrary_Driver-master/Internet/DHCP/dhcp.c **** 
  71:ioLibrary_Driver-master/Internet/DHCP/dhcp.c **** #define DHCP_FLAGSBROADCAST 0x8000 ///< The broadcast value of flags in @ref RIP_MSG
  72:ioLibrary_Driver-master/Internet/DHCP/dhcp.c **** #define DHCP_FLAGSUNICAST 0x0000   ///< The unicast   value of flags in @ref RIP_MSG
  73:ioLibrary_Driver-master/Internet/DHCP/dhcp.c **** 
  74:ioLibrary_Driver-master/Internet/DHCP/dhcp.c **** /* DHCP message OP code */
  75:ioLibrary_Driver-master/Internet/DHCP/dhcp.c **** #define DHCP_BOOTREQUEST 1 ///< Request Message used in op of @ref RIP_MSG
  76:ioLibrary_Driver-master/Internet/DHCP/dhcp.c **** #define DHCP_BOOTREPLY 2   ///< Reply Message used i op of @ref RIP_MSG
  77:ioLibrary_Driver-master/Internet/DHCP/dhcp.c **** 
  78:ioLibrary_Driver-master/Internet/DHCP/dhcp.c **** /* DHCP message type */
  79:ioLibrary_Driver-master/Internet/DHCP/dhcp.c **** #define DHCP_DISCOVER 1 ///< DISCOVER message in OPT of @ref RIP_MSG
  80:ioLibrary_Driver-master/Internet/DHCP/dhcp.c **** #define DHCP_OFFER 2	///< OFFER message in OPT of @ref RIP_MSG
  81:ioLibrary_Driver-master/Internet/DHCP/dhcp.c **** #define DHCP_REQUEST 3	///< REQUEST message in OPT of @ref RIP_MSG
  82:ioLibrary_Driver-master/Internet/DHCP/dhcp.c **** #define DHCP_DECLINE 4	///< DECLINE message in OPT of @ref RIP_MSG
  83:ioLibrary_Driver-master/Internet/DHCP/dhcp.c **** #define DHCP_ACK 5		///< ACK message in OPT of @ref RIP_MSG
  84:ioLibrary_Driver-master/Internet/DHCP/dhcp.c **** #define DHCP_NAK 6		///< NACK message in OPT of @ref RIP_MSG
  85:ioLibrary_Driver-master/Internet/DHCP/dhcp.c **** #define DHCP_RELEASE 7	///< RELEASE message in OPT of @ref RIP_MSG. No use
  86:ioLibrary_Driver-master/Internet/DHCP/dhcp.c **** #define DHCP_INFORM 8	///< INFORM message in OPT of @ref RIP_MSG. No use
  87:ioLibrary_Driver-master/Internet/DHCP/dhcp.c **** 
  88:ioLibrary_Driver-master/Internet/DHCP/dhcp.c **** #define DHCP_HTYPE10MB 1  ///< Used in type of @ref RIP_MSG
  89:ioLibrary_Driver-master/Internet/DHCP/dhcp.c **** #define DHCP_HTYPE100MB 2 ///< Used in type of @ref RIP_MSG
ARM GAS  C:\Users\VIDCOM~1\AppData\Local\Temp\cc9naxsX.s 			page 3


  90:ioLibrary_Driver-master/Internet/DHCP/dhcp.c **** 
  91:ioLibrary_Driver-master/Internet/DHCP/dhcp.c **** #define DHCP_HLENETHERNET 6 ///< Used in hlen of @ref RIP_MSG
  92:ioLibrary_Driver-master/Internet/DHCP/dhcp.c **** #define DHCP_HOPS 0			///< Used in hops of @ref RIP_MSG
  93:ioLibrary_Driver-master/Internet/DHCP/dhcp.c **** #define DHCP_SECS 0			///< Used in secs of @ref RIP_MSG
  94:ioLibrary_Driver-master/Internet/DHCP/dhcp.c **** 
  95:ioLibrary_Driver-master/Internet/DHCP/dhcp.c **** #define INFINITE_LEASETIME 0xffffffff ///< Infinite lease time
  96:ioLibrary_Driver-master/Internet/DHCP/dhcp.c **** 
  97:ioLibrary_Driver-master/Internet/DHCP/dhcp.c **** #define OPT_SIZE 312				  /// Max OPT size of @ref RIP_MSG
  98:ioLibrary_Driver-master/Internet/DHCP/dhcp.c **** #define RIP_MSG_SIZE (236 + OPT_SIZE) /// Max size of @ref RIP_MSG
  99:ioLibrary_Driver-master/Internet/DHCP/dhcp.c **** 
 100:ioLibrary_Driver-master/Internet/DHCP/dhcp.c **** /*
 101:ioLibrary_Driver-master/Internet/DHCP/dhcp.c ****  * @brief DHCP option and value (cf. RFC1533)
 102:ioLibrary_Driver-master/Internet/DHCP/dhcp.c ****  */
 103:ioLibrary_Driver-master/Internet/DHCP/dhcp.c **** enum
 104:ioLibrary_Driver-master/Internet/DHCP/dhcp.c **** {
 105:ioLibrary_Driver-master/Internet/DHCP/dhcp.c **** 	padOption = 0,
 106:ioLibrary_Driver-master/Internet/DHCP/dhcp.c **** 	subnetMask = 1,
 107:ioLibrary_Driver-master/Internet/DHCP/dhcp.c **** 	timerOffset = 2,
 108:ioLibrary_Driver-master/Internet/DHCP/dhcp.c **** 	routersOnSubnet = 3,
 109:ioLibrary_Driver-master/Internet/DHCP/dhcp.c **** 	timeServer = 4,
 110:ioLibrary_Driver-master/Internet/DHCP/dhcp.c **** 	nameServer = 5,
 111:ioLibrary_Driver-master/Internet/DHCP/dhcp.c **** 	dns = 6,
 112:ioLibrary_Driver-master/Internet/DHCP/dhcp.c **** 	logServer = 7,
 113:ioLibrary_Driver-master/Internet/DHCP/dhcp.c **** 	cookieServer = 8,
 114:ioLibrary_Driver-master/Internet/DHCP/dhcp.c **** 	lprServer = 9,
 115:ioLibrary_Driver-master/Internet/DHCP/dhcp.c **** 	impressServer = 10,
 116:ioLibrary_Driver-master/Internet/DHCP/dhcp.c **** 	resourceLocationServer = 11,
 117:ioLibrary_Driver-master/Internet/DHCP/dhcp.c **** 	hostName = 12,
 118:ioLibrary_Driver-master/Internet/DHCP/dhcp.c **** 	bootFileSize = 13,
 119:ioLibrary_Driver-master/Internet/DHCP/dhcp.c **** 	meritDumpFile = 14,
 120:ioLibrary_Driver-master/Internet/DHCP/dhcp.c **** 	domainName = 15,
 121:ioLibrary_Driver-master/Internet/DHCP/dhcp.c **** 	swapServer = 16,
 122:ioLibrary_Driver-master/Internet/DHCP/dhcp.c **** 	rootPath = 17,
 123:ioLibrary_Driver-master/Internet/DHCP/dhcp.c **** 	extentionsPath = 18,
 124:ioLibrary_Driver-master/Internet/DHCP/dhcp.c **** 	IPforwarding = 19,
 125:ioLibrary_Driver-master/Internet/DHCP/dhcp.c **** 	nonLocalSourceRouting = 20,
 126:ioLibrary_Driver-master/Internet/DHCP/dhcp.c **** 	policyFilter = 21,
 127:ioLibrary_Driver-master/Internet/DHCP/dhcp.c **** 	maxDgramReasmSize = 22,
 128:ioLibrary_Driver-master/Internet/DHCP/dhcp.c **** 	defaultIPTTL = 23,
 129:ioLibrary_Driver-master/Internet/DHCP/dhcp.c **** 	pathMTUagingTimeout = 24,
 130:ioLibrary_Driver-master/Internet/DHCP/dhcp.c **** 	pathMTUplateauTable = 25,
 131:ioLibrary_Driver-master/Internet/DHCP/dhcp.c **** 	ifMTU = 26,
 132:ioLibrary_Driver-master/Internet/DHCP/dhcp.c **** 	allSubnetsLocal = 27,
 133:ioLibrary_Driver-master/Internet/DHCP/dhcp.c **** 	broadcastAddr = 28,
 134:ioLibrary_Driver-master/Internet/DHCP/dhcp.c **** 	performMaskDiscovery = 29,
 135:ioLibrary_Driver-master/Internet/DHCP/dhcp.c **** 	maskSupplier = 30,
 136:ioLibrary_Driver-master/Internet/DHCP/dhcp.c **** 	performRouterDiscovery = 31,
 137:ioLibrary_Driver-master/Internet/DHCP/dhcp.c **** 	routerSolicitationAddr = 32,
 138:ioLibrary_Driver-master/Internet/DHCP/dhcp.c **** 	staticRoute = 33,
 139:ioLibrary_Driver-master/Internet/DHCP/dhcp.c **** 	trailerEncapsulation = 34,
 140:ioLibrary_Driver-master/Internet/DHCP/dhcp.c **** 	arpCacheTimeout = 35,
 141:ioLibrary_Driver-master/Internet/DHCP/dhcp.c **** 	ethernetEncapsulation = 36,
 142:ioLibrary_Driver-master/Internet/DHCP/dhcp.c **** 	tcpDefaultTTL = 37,
 143:ioLibrary_Driver-master/Internet/DHCP/dhcp.c **** 	tcpKeepaliveInterval = 38,
 144:ioLibrary_Driver-master/Internet/DHCP/dhcp.c **** 	tcpKeepaliveGarbage = 39,
 145:ioLibrary_Driver-master/Internet/DHCP/dhcp.c **** 	nisDomainName = 40,
 146:ioLibrary_Driver-master/Internet/DHCP/dhcp.c **** 	nisServers = 41,
ARM GAS  C:\Users\VIDCOM~1\AppData\Local\Temp\cc9naxsX.s 			page 4


 147:ioLibrary_Driver-master/Internet/DHCP/dhcp.c **** 	ntpServers = 42,
 148:ioLibrary_Driver-master/Internet/DHCP/dhcp.c **** 	vendorSpecificInfo = 43,
 149:ioLibrary_Driver-master/Internet/DHCP/dhcp.c **** 	netBIOSnameServer = 44,
 150:ioLibrary_Driver-master/Internet/DHCP/dhcp.c **** 	netBIOSdgramDistServer = 45,
 151:ioLibrary_Driver-master/Internet/DHCP/dhcp.c **** 	netBIOSnodeType = 46,
 152:ioLibrary_Driver-master/Internet/DHCP/dhcp.c **** 	netBIOSscope = 47,
 153:ioLibrary_Driver-master/Internet/DHCP/dhcp.c **** 	xFontServer = 48,
 154:ioLibrary_Driver-master/Internet/DHCP/dhcp.c **** 	xDisplayManager = 49,
 155:ioLibrary_Driver-master/Internet/DHCP/dhcp.c **** 	dhcpRequestedIPaddr = 50,
 156:ioLibrary_Driver-master/Internet/DHCP/dhcp.c **** 	dhcpIPaddrLeaseTime = 51,
 157:ioLibrary_Driver-master/Internet/DHCP/dhcp.c **** 	dhcpOptionOverload = 52,
 158:ioLibrary_Driver-master/Internet/DHCP/dhcp.c **** 	dhcpMessageType = 53,
 159:ioLibrary_Driver-master/Internet/DHCP/dhcp.c **** 	dhcpServerIdentifier = 54,
 160:ioLibrary_Driver-master/Internet/DHCP/dhcp.c **** 	dhcpParamRequest = 55,
 161:ioLibrary_Driver-master/Internet/DHCP/dhcp.c **** 	dhcpMsg = 56,
 162:ioLibrary_Driver-master/Internet/DHCP/dhcp.c **** 	dhcpMaxMsgSize = 57,
 163:ioLibrary_Driver-master/Internet/DHCP/dhcp.c **** 	dhcpT1value = 58,
 164:ioLibrary_Driver-master/Internet/DHCP/dhcp.c **** 	dhcpT2value = 59,
 165:ioLibrary_Driver-master/Internet/DHCP/dhcp.c **** 	dhcpClassIdentifier = 60,
 166:ioLibrary_Driver-master/Internet/DHCP/dhcp.c **** 	dhcpClientIdentifier = 61,
 167:ioLibrary_Driver-master/Internet/DHCP/dhcp.c **** 	endOption = 255
 168:ioLibrary_Driver-master/Internet/DHCP/dhcp.c **** };
 169:ioLibrary_Driver-master/Internet/DHCP/dhcp.c **** 
 170:ioLibrary_Driver-master/Internet/DHCP/dhcp.c **** /*
 171:ioLibrary_Driver-master/Internet/DHCP/dhcp.c ****  * @brief DHCP message format
 172:ioLibrary_Driver-master/Internet/DHCP/dhcp.c ****  */
 173:ioLibrary_Driver-master/Internet/DHCP/dhcp.c **** typedef struct
 174:ioLibrary_Driver-master/Internet/DHCP/dhcp.c **** {
 175:ioLibrary_Driver-master/Internet/DHCP/dhcp.c **** 	uint8_t op;			   ///< @ref DHCP_BOOTREQUEST or @ref DHCP_BOOTREPLY
 176:ioLibrary_Driver-master/Internet/DHCP/dhcp.c **** 	uint8_t htype;		   ///< @ref DHCP_HTYPE10MB or @ref DHCP_HTYPE100MB
 177:ioLibrary_Driver-master/Internet/DHCP/dhcp.c **** 	uint8_t hlen;		   ///< @ref DHCP_HLENETHERNET
 178:ioLibrary_Driver-master/Internet/DHCP/dhcp.c **** 	uint8_t hops;		   ///< @ref DHCP_HOPS
 179:ioLibrary_Driver-master/Internet/DHCP/dhcp.c **** 	uint32_t xid;		   ///< @ref DHCP_XID  This increase one every DHCP transaction.
 180:ioLibrary_Driver-master/Internet/DHCP/dhcp.c **** 	uint16_t secs;		   ///< @ref DHCP_SECS
 181:ioLibrary_Driver-master/Internet/DHCP/dhcp.c **** 	uint16_t flags;		   ///< @ref DHCP_FLAGSBROADCAST or @ref DHCP_FLAGSUNICAST
 182:ioLibrary_Driver-master/Internet/DHCP/dhcp.c **** 	uint8_t ciaddr[4];	   ///< @ref Request IP to DHCP sever
 183:ioLibrary_Driver-master/Internet/DHCP/dhcp.c **** 	uint8_t yiaddr[4];	   ///< @ref Offered IP from DHCP server
 184:ioLibrary_Driver-master/Internet/DHCP/dhcp.c **** 	uint8_t siaddr[4];	   ///< No use
 185:ioLibrary_Driver-master/Internet/DHCP/dhcp.c **** 	uint8_t giaddr[4];	   ///< No use
 186:ioLibrary_Driver-master/Internet/DHCP/dhcp.c **** 	uint8_t chaddr[16];	   ///< DHCP client 6bytes MAC address. Others is filled to zero
 187:ioLibrary_Driver-master/Internet/DHCP/dhcp.c **** 	uint8_t sname[64];	   ///< No use
 188:ioLibrary_Driver-master/Internet/DHCP/dhcp.c **** 	uint8_t file[128];	   ///< No use
 189:ioLibrary_Driver-master/Internet/DHCP/dhcp.c **** 	uint8_t OPT[OPT_SIZE]; ///< Option
 190:ioLibrary_Driver-master/Internet/DHCP/dhcp.c **** } RIP_MSG;
 191:ioLibrary_Driver-master/Internet/DHCP/dhcp.c **** 
 192:ioLibrary_Driver-master/Internet/DHCP/dhcp.c **** uint8_t DHCP_SOCKET; // Socket number for DHCP
 193:ioLibrary_Driver-master/Internet/DHCP/dhcp.c **** 
 194:ioLibrary_Driver-master/Internet/DHCP/dhcp.c **** uint8_t DHCP_SIP[4];	  // DHCP Server IP address
 195:ioLibrary_Driver-master/Internet/DHCP/dhcp.c **** uint8_t DHCP_REAL_SIP[4]; // For extract my DHCP server in a few DHCP server
 196:ioLibrary_Driver-master/Internet/DHCP/dhcp.c **** 
 197:ioLibrary_Driver-master/Internet/DHCP/dhcp.c **** // Network information from DHCP Server
 198:ioLibrary_Driver-master/Internet/DHCP/dhcp.c **** uint8_t OLD_allocated_ip[4] = {
 199:ioLibrary_Driver-master/Internet/DHCP/dhcp.c **** 	0,
 200:ioLibrary_Driver-master/Internet/DHCP/dhcp.c **** }; // Previous IP address
 201:ioLibrary_Driver-master/Internet/DHCP/dhcp.c **** uint8_t DHCP_allocated_ip[4] = {
 202:ioLibrary_Driver-master/Internet/DHCP/dhcp.c **** 	0,
 203:ioLibrary_Driver-master/Internet/DHCP/dhcp.c **** }; // IP address from DHCP
ARM GAS  C:\Users\VIDCOM~1\AppData\Local\Temp\cc9naxsX.s 			page 5


 204:ioLibrary_Driver-master/Internet/DHCP/dhcp.c **** uint8_t DHCP_allocated_gw[4] = {
 205:ioLibrary_Driver-master/Internet/DHCP/dhcp.c **** 	0,
 206:ioLibrary_Driver-master/Internet/DHCP/dhcp.c **** }; // Gateway address from DHCP
 207:ioLibrary_Driver-master/Internet/DHCP/dhcp.c **** uint8_t DHCP_allocated_sn[4] = {
 208:ioLibrary_Driver-master/Internet/DHCP/dhcp.c **** 	0,
 209:ioLibrary_Driver-master/Internet/DHCP/dhcp.c **** }; // Subnet mask from DHCP
 210:ioLibrary_Driver-master/Internet/DHCP/dhcp.c **** uint8_t DHCP_allocated_dns[4] = {
 211:ioLibrary_Driver-master/Internet/DHCP/dhcp.c **** 	0,
 212:ioLibrary_Driver-master/Internet/DHCP/dhcp.c **** }; // DNS address from DHCP
 213:ioLibrary_Driver-master/Internet/DHCP/dhcp.c **** 
 214:ioLibrary_Driver-master/Internet/DHCP/dhcp.c **** int8_t dhcp_state = STATE_DHCP_INIT; // DHCP state
 215:ioLibrary_Driver-master/Internet/DHCP/dhcp.c **** int8_t dhcp_retry_count = 0;
 216:ioLibrary_Driver-master/Internet/DHCP/dhcp.c **** 
 217:ioLibrary_Driver-master/Internet/DHCP/dhcp.c **** uint32_t dhcp_lease_time = INFINITE_LEASETIME;
 218:ioLibrary_Driver-master/Internet/DHCP/dhcp.c **** volatile uint32_t dhcp_tick_1s = 0; // unit 1 second
 219:ioLibrary_Driver-master/Internet/DHCP/dhcp.c **** uint32_t dhcp_tick_next = DHCP_WAIT_TIME;
 220:ioLibrary_Driver-master/Internet/DHCP/dhcp.c **** 
 221:ioLibrary_Driver-master/Internet/DHCP/dhcp.c **** uint32_t DHCP_XID; // Any number
 222:ioLibrary_Driver-master/Internet/DHCP/dhcp.c **** 
 223:ioLibrary_Driver-master/Internet/DHCP/dhcp.c **** RIP_MSG *pDHCPMSG; // Buffer pointer for DHCP processing
 224:ioLibrary_Driver-master/Internet/DHCP/dhcp.c **** 
 225:ioLibrary_Driver-master/Internet/DHCP/dhcp.c **** uint8_t HOST_NAME[] = DCHP_HOST_NAME;
 226:ioLibrary_Driver-master/Internet/DHCP/dhcp.c **** 
 227:ioLibrary_Driver-master/Internet/DHCP/dhcp.c **** uint8_t DHCP_CHADDR[6]; // DHCP Client MAC address.
 228:ioLibrary_Driver-master/Internet/DHCP/dhcp.c **** 
 229:ioLibrary_Driver-master/Internet/DHCP/dhcp.c **** /* The default callback function */
 230:ioLibrary_Driver-master/Internet/DHCP/dhcp.c **** void default_ip_assign(void);
 231:ioLibrary_Driver-master/Internet/DHCP/dhcp.c **** void default_ip_update(void);
 232:ioLibrary_Driver-master/Internet/DHCP/dhcp.c **** void default_ip_conflict(void);
 233:ioLibrary_Driver-master/Internet/DHCP/dhcp.c **** 
 234:ioLibrary_Driver-master/Internet/DHCP/dhcp.c **** /* Callback handler */
 235:ioLibrary_Driver-master/Internet/DHCP/dhcp.c **** void (*dhcp_ip_assign)(void) = default_ip_assign;	  /* handler to be called when the IP address fro
 236:ioLibrary_Driver-master/Internet/DHCP/dhcp.c **** void (*dhcp_ip_update)(void) = default_ip_update;	  /* handler to be called when the IP address fro
 237:ioLibrary_Driver-master/Internet/DHCP/dhcp.c **** void (*dhcp_ip_conflict)(void) = default_ip_conflict; /* handler to be called when the IP address f
 238:ioLibrary_Driver-master/Internet/DHCP/dhcp.c **** 
 239:ioLibrary_Driver-master/Internet/DHCP/dhcp.c **** void reg_dhcp_cbfunc(void (*ip_assign)(void), void (*ip_update)(void), void (*ip_conflict)(void));
 240:ioLibrary_Driver-master/Internet/DHCP/dhcp.c **** 
 241:ioLibrary_Driver-master/Internet/DHCP/dhcp.c **** char NibbleToHex(uint8_t nibble);
 242:ioLibrary_Driver-master/Internet/DHCP/dhcp.c **** 
 243:ioLibrary_Driver-master/Internet/DHCP/dhcp.c **** /* send DISCOVER message to DHCP server */
 244:ioLibrary_Driver-master/Internet/DHCP/dhcp.c **** void send_DHCP_DISCOVER(void);
 245:ioLibrary_Driver-master/Internet/DHCP/dhcp.c **** 
 246:ioLibrary_Driver-master/Internet/DHCP/dhcp.c **** /* send REQEUST message to DHCP server */
 247:ioLibrary_Driver-master/Internet/DHCP/dhcp.c **** void send_DHCP_REQUEST(void);
 248:ioLibrary_Driver-master/Internet/DHCP/dhcp.c **** 
 249:ioLibrary_Driver-master/Internet/DHCP/dhcp.c **** /* send DECLINE message to DHCP server */
 250:ioLibrary_Driver-master/Internet/DHCP/dhcp.c **** void send_DHCP_DECLINE(void);
 251:ioLibrary_Driver-master/Internet/DHCP/dhcp.c **** 
 252:ioLibrary_Driver-master/Internet/DHCP/dhcp.c **** /* IP conflict check by sending ARP-request to leased IP and wait ARP-response. */
 253:ioLibrary_Driver-master/Internet/DHCP/dhcp.c **** int8_t check_DHCP_leasedIP(void);
 254:ioLibrary_Driver-master/Internet/DHCP/dhcp.c **** 
 255:ioLibrary_Driver-master/Internet/DHCP/dhcp.c **** /* check the timeout in DHCP process */
 256:ioLibrary_Driver-master/Internet/DHCP/dhcp.c **** uint8_t check_DHCP_timeout(void);
 257:ioLibrary_Driver-master/Internet/DHCP/dhcp.c **** 
 258:ioLibrary_Driver-master/Internet/DHCP/dhcp.c **** /* Initialize to timeout process.  */
 259:ioLibrary_Driver-master/Internet/DHCP/dhcp.c **** void reset_DHCP_timeout(void);
 260:ioLibrary_Driver-master/Internet/DHCP/dhcp.c **** 
ARM GAS  C:\Users\VIDCOM~1\AppData\Local\Temp\cc9naxsX.s 			page 6


 261:ioLibrary_Driver-master/Internet/DHCP/dhcp.c **** /* Parse message as OFFER and ACK and NACK from DHCP server.*/
 262:ioLibrary_Driver-master/Internet/DHCP/dhcp.c **** int8_t parseDHCPCMSG(void);
 263:ioLibrary_Driver-master/Internet/DHCP/dhcp.c **** 
 264:ioLibrary_Driver-master/Internet/DHCP/dhcp.c **** /* The default handler of ip assign first */
 265:ioLibrary_Driver-master/Internet/DHCP/dhcp.c **** void default_ip_assign(void)
 266:ioLibrary_Driver-master/Internet/DHCP/dhcp.c **** {
  27              		.loc 1 266 1 view -0
  28              		.cfi_startproc
  29              		@ args = 0, pretend = 0, frame = 0
  30              		@ frame_needed = 0, uses_anonymous_args = 0
  31 0000 08B5     		push	{r3, lr}
  32              	.LCFI0:
  33              		.cfi_def_cfa_offset 8
  34              		.cfi_offset 3, -8
  35              		.cfi_offset 14, -4
 267:ioLibrary_Driver-master/Internet/DHCP/dhcp.c **** 	setSIPR(DHCP_allocated_ip);
  36              		.loc 1 267 2 view .LVU1
  37 0002 0422     		movs	r2, #4
  38 0004 0849     		ldr	r1, .L3
  39 0006 4FF47060 		mov	r0, #3840
  40 000a FFF7FEFF 		bl	WIZCHIP_WRITE_BUF
  41              	.LVL0:
 268:ioLibrary_Driver-master/Internet/DHCP/dhcp.c **** 	setSUBR(DHCP_allocated_sn);
  42              		.loc 1 268 2 view .LVU2
  43 000e 0422     		movs	r2, #4
  44 0010 0649     		ldr	r1, .L3+4
  45 0012 4FF4A060 		mov	r0, #1280
  46 0016 FFF7FEFF 		bl	WIZCHIP_WRITE_BUF
  47              	.LVL1:
 269:ioLibrary_Driver-master/Internet/DHCP/dhcp.c **** 	setGAR(DHCP_allocated_gw);
  48              		.loc 1 269 2 view .LVU3
  49 001a 0422     		movs	r2, #4
  50 001c 0449     		ldr	r1, .L3+8
  51 001e 4FF48070 		mov	r0, #256
  52 0022 FFF7FEFF 		bl	WIZCHIP_WRITE_BUF
  53              	.LVL2:
 270:ioLibrary_Driver-master/Internet/DHCP/dhcp.c **** }
  54              		.loc 1 270 1 is_stmt 0 view .LVU4
  55 0026 08BD     		pop	{r3, pc}
  56              	.L4:
  57              		.align	2
  58              	.L3:
  59 0028 00000000 		.word	DHCP_allocated_ip
  60 002c 00000000 		.word	DHCP_allocated_sn
  61 0030 00000000 		.word	DHCP_allocated_gw
  62              		.cfi_endproc
  63              	.LFE0:
  65              		.section	.text.default_ip_update,"ax",%progbits
  66              		.align	1
  67              		.global	default_ip_update
  68              		.syntax unified
  69              		.thumb
  70              		.thumb_func
  72              	default_ip_update:
  73              	.LFB1:
 271:ioLibrary_Driver-master/Internet/DHCP/dhcp.c **** 
 272:ioLibrary_Driver-master/Internet/DHCP/dhcp.c **** /* The default handler of ip changed */
ARM GAS  C:\Users\VIDCOM~1\AppData\Local\Temp\cc9naxsX.s 			page 7


 273:ioLibrary_Driver-master/Internet/DHCP/dhcp.c **** void default_ip_update(void)
 274:ioLibrary_Driver-master/Internet/DHCP/dhcp.c **** {
  74              		.loc 1 274 1 is_stmt 1 view -0
  75              		.cfi_startproc
  76              		@ args = 0, pretend = 0, frame = 0
  77              		@ frame_needed = 0, uses_anonymous_args = 0
  78 0000 08B5     		push	{r3, lr}
  79              	.LCFI1:
  80              		.cfi_def_cfa_offset 8
  81              		.cfi_offset 3, -8
  82              		.cfi_offset 14, -4
 275:ioLibrary_Driver-master/Internet/DHCP/dhcp.c **** 	/* WIZchip Software Reset */
 276:ioLibrary_Driver-master/Internet/DHCP/dhcp.c **** 	setMR(MR_RST);
  83              		.loc 1 276 2 view .LVU6
  84 0002 8021     		movs	r1, #128
  85 0004 0020     		movs	r0, #0
  86 0006 FFF7FEFF 		bl	WIZCHIP_WRITE
  87              	.LVL3:
 277:ioLibrary_Driver-master/Internet/DHCP/dhcp.c **** 	getMR(); // for delay
  88              		.loc 1 277 2 view .LVU7
  89 000a 0020     		movs	r0, #0
  90 000c FFF7FEFF 		bl	WIZCHIP_READ
  91              	.LVL4:
 278:ioLibrary_Driver-master/Internet/DHCP/dhcp.c **** 	default_ip_assign();
  92              		.loc 1 278 2 view .LVU8
  93 0010 FFF7FEFF 		bl	default_ip_assign
  94              	.LVL5:
 279:ioLibrary_Driver-master/Internet/DHCP/dhcp.c **** 	setSHAR(DHCP_CHADDR);
  95              		.loc 1 279 2 view .LVU9
  96 0014 0622     		movs	r2, #6
  97 0016 0349     		ldr	r1, .L7
  98 0018 4FF41060 		mov	r0, #2304
  99 001c FFF7FEFF 		bl	WIZCHIP_WRITE_BUF
 100              	.LVL6:
 280:ioLibrary_Driver-master/Internet/DHCP/dhcp.c **** }
 101              		.loc 1 280 1 is_stmt 0 view .LVU10
 102 0020 08BD     		pop	{r3, pc}
 103              	.L8:
 104 0022 00BF     		.align	2
 105              	.L7:
 106 0024 00000000 		.word	DHCP_CHADDR
 107              		.cfi_endproc
 108              	.LFE1:
 110              		.section	.text.default_ip_conflict,"ax",%progbits
 111              		.align	1
 112              		.global	default_ip_conflict
 113              		.syntax unified
 114              		.thumb
 115              		.thumb_func
 117              	default_ip_conflict:
 118              	.LFB2:
 281:ioLibrary_Driver-master/Internet/DHCP/dhcp.c **** 
 282:ioLibrary_Driver-master/Internet/DHCP/dhcp.c **** /* The default handler of ip changed */
 283:ioLibrary_Driver-master/Internet/DHCP/dhcp.c **** void default_ip_conflict(void)
 284:ioLibrary_Driver-master/Internet/DHCP/dhcp.c **** {
 119              		.loc 1 284 1 is_stmt 1 view -0
 120              		.cfi_startproc
ARM GAS  C:\Users\VIDCOM~1\AppData\Local\Temp\cc9naxsX.s 			page 8


 121              		@ args = 0, pretend = 0, frame = 0
 122              		@ frame_needed = 0, uses_anonymous_args = 0
 123 0000 08B5     		push	{r3, lr}
 124              	.LCFI2:
 125              		.cfi_def_cfa_offset 8
 126              		.cfi_offset 3, -8
 127              		.cfi_offset 14, -4
 285:ioLibrary_Driver-master/Internet/DHCP/dhcp.c **** 	// WIZchip Software Reset
 286:ioLibrary_Driver-master/Internet/DHCP/dhcp.c **** 	setMR(MR_RST);
 128              		.loc 1 286 2 view .LVU12
 129 0002 8021     		movs	r1, #128
 130 0004 0020     		movs	r0, #0
 131 0006 FFF7FEFF 		bl	WIZCHIP_WRITE
 132              	.LVL7:
 287:ioLibrary_Driver-master/Internet/DHCP/dhcp.c **** 	getMR(); // for delay
 133              		.loc 1 287 2 view .LVU13
 134 000a 0020     		movs	r0, #0
 135 000c FFF7FEFF 		bl	WIZCHIP_READ
 136              	.LVL8:
 288:ioLibrary_Driver-master/Internet/DHCP/dhcp.c **** 	setSHAR(DHCP_CHADDR);
 137              		.loc 1 288 2 view .LVU14
 138 0010 0622     		movs	r2, #6
 139 0012 0349     		ldr	r1, .L11
 140 0014 4FF41060 		mov	r0, #2304
 141 0018 FFF7FEFF 		bl	WIZCHIP_WRITE_BUF
 142              	.LVL9:
 289:ioLibrary_Driver-master/Internet/DHCP/dhcp.c **** }
 143              		.loc 1 289 1 is_stmt 0 view .LVU15
 144 001c 08BD     		pop	{r3, pc}
 145              	.L12:
 146 001e 00BF     		.align	2
 147              	.L11:
 148 0020 00000000 		.word	DHCP_CHADDR
 149              		.cfi_endproc
 150              	.LFE2:
 152              		.section	.text.reg_dhcp_cbfunc,"ax",%progbits
 153              		.align	1
 154              		.global	reg_dhcp_cbfunc
 155              		.syntax unified
 156              		.thumb
 157              		.thumb_func
 159              	reg_dhcp_cbfunc:
 160              	.LVL10:
 161              	.LFB3:
 290:ioLibrary_Driver-master/Internet/DHCP/dhcp.c **** 
 291:ioLibrary_Driver-master/Internet/DHCP/dhcp.c **** /* register the call back func. */
 292:ioLibrary_Driver-master/Internet/DHCP/dhcp.c **** void reg_dhcp_cbfunc(void (*ip_assign)(void), void (*ip_update)(void), void (*ip_conflict)(void))
 293:ioLibrary_Driver-master/Internet/DHCP/dhcp.c **** {
 162              		.loc 1 293 1 is_stmt 1 view -0
 163              		.cfi_startproc
 164              		@ args = 0, pretend = 0, frame = 0
 165              		@ frame_needed = 0, uses_anonymous_args = 0
 166              		@ link register save eliminated.
 167              		.loc 1 293 1 is_stmt 0 view .LVU17
 168 0000 10B4     		push	{r4}
 169              	.LCFI3:
 170              		.cfi_def_cfa_offset 4
ARM GAS  C:\Users\VIDCOM~1\AppData\Local\Temp\cc9naxsX.s 			page 9


 171              		.cfi_offset 4, -4
 294:ioLibrary_Driver-master/Internet/DHCP/dhcp.c **** 	dhcp_ip_assign = default_ip_assign;
 172              		.loc 1 294 2 is_stmt 1 view .LVU18
 173              		.loc 1 294 17 is_stmt 0 view .LVU19
 174 0002 0A4B     		ldr	r3, .L18
 175 0004 0A4C     		ldr	r4, .L18+4
 176 0006 1C60     		str	r4, [r3]
 295:ioLibrary_Driver-master/Internet/DHCP/dhcp.c **** 	dhcp_ip_update = default_ip_update;
 177              		.loc 1 295 2 is_stmt 1 view .LVU20
 178              		.loc 1 295 17 is_stmt 0 view .LVU21
 179 0008 0A4B     		ldr	r3, .L18+8
 180 000a 0B4C     		ldr	r4, .L18+12
 181 000c 1C60     		str	r4, [r3]
 296:ioLibrary_Driver-master/Internet/DHCP/dhcp.c **** 	dhcp_ip_conflict = default_ip_conflict;
 182              		.loc 1 296 2 is_stmt 1 view .LVU22
 183              		.loc 1 296 19 is_stmt 0 view .LVU23
 184 000e 0B4B     		ldr	r3, .L18+16
 185 0010 0B4C     		ldr	r4, .L18+20
 186 0012 1C60     		str	r4, [r3]
 297:ioLibrary_Driver-master/Internet/DHCP/dhcp.c **** 	if (ip_assign)
 187              		.loc 1 297 2 is_stmt 1 view .LVU24
 188              		.loc 1 297 5 is_stmt 0 view .LVU25
 189 0014 10B1     		cbz	r0, .L14
 190 0016 0346     		mov	r3, r0
 298:ioLibrary_Driver-master/Internet/DHCP/dhcp.c **** 		dhcp_ip_assign = ip_assign;
 191              		.loc 1 298 3 is_stmt 1 view .LVU26
 192              		.loc 1 298 18 is_stmt 0 view .LVU27
 193 0018 0448     		ldr	r0, .L18
 194              	.LVL11:
 195              		.loc 1 298 18 view .LVU28
 196 001a 0360     		str	r3, [r0]
 197              	.LVL12:
 198              	.L14:
 299:ioLibrary_Driver-master/Internet/DHCP/dhcp.c **** 	if (ip_update)
 199              		.loc 1 299 2 is_stmt 1 view .LVU29
 200              		.loc 1 299 5 is_stmt 0 view .LVU30
 201 001c 09B1     		cbz	r1, .L15
 300:ioLibrary_Driver-master/Internet/DHCP/dhcp.c **** 		dhcp_ip_update = ip_update;
 202              		.loc 1 300 3 is_stmt 1 view .LVU31
 203              		.loc 1 300 18 is_stmt 0 view .LVU32
 204 001e 054B     		ldr	r3, .L18+8
 205 0020 1960     		str	r1, [r3]
 206              	.L15:
 301:ioLibrary_Driver-master/Internet/DHCP/dhcp.c **** 	if (ip_conflict)
 207              		.loc 1 301 2 is_stmt 1 view .LVU33
 208              		.loc 1 301 5 is_stmt 0 view .LVU34
 209 0022 0AB1     		cbz	r2, .L13
 302:ioLibrary_Driver-master/Internet/DHCP/dhcp.c **** 		dhcp_ip_conflict = ip_conflict;
 210              		.loc 1 302 3 is_stmt 1 view .LVU35
 211              		.loc 1 302 20 is_stmt 0 view .LVU36
 212 0024 054B     		ldr	r3, .L18+16
 213 0026 1A60     		str	r2, [r3]
 214              	.L13:
 303:ioLibrary_Driver-master/Internet/DHCP/dhcp.c **** }
 215              		.loc 1 303 1 view .LVU37
 216 0028 10BC     		pop	{r4}
 217              	.LCFI4:
ARM GAS  C:\Users\VIDCOM~1\AppData\Local\Temp\cc9naxsX.s 			page 10


 218              		.cfi_restore 4
 219              		.cfi_def_cfa_offset 0
 220 002a 7047     		bx	lr
 221              	.L19:
 222              		.align	2
 223              	.L18:
 224 002c 00000000 		.word	dhcp_ip_assign
 225 0030 00000000 		.word	default_ip_assign
 226 0034 00000000 		.word	dhcp_ip_update
 227 0038 00000000 		.word	default_ip_update
 228 003c 00000000 		.word	dhcp_ip_conflict
 229 0040 00000000 		.word	default_ip_conflict
 230              		.cfi_endproc
 231              	.LFE3:
 233              		.section	.text.makeDHCPMSG,"ax",%progbits
 234              		.align	1
 235              		.global	makeDHCPMSG
 236              		.syntax unified
 237              		.thumb
 238              		.thumb_func
 240              	makeDHCPMSG:
 241              	.LFB4:
 304:ioLibrary_Driver-master/Internet/DHCP/dhcp.c **** 
 305:ioLibrary_Driver-master/Internet/DHCP/dhcp.c **** /* make the common DHCP message */
 306:ioLibrary_Driver-master/Internet/DHCP/dhcp.c **** void makeDHCPMSG(void)
 307:ioLibrary_Driver-master/Internet/DHCP/dhcp.c **** {
 242              		.loc 1 307 1 is_stmt 1 view -0
 243              		.cfi_startproc
 244              		@ args = 0, pretend = 0, frame = 8
 245              		@ frame_needed = 0, uses_anonymous_args = 0
 246 0000 00B5     		push	{lr}
 247              	.LCFI5:
 248              		.cfi_def_cfa_offset 4
 249              		.cfi_offset 14, -4
 250 0002 83B0     		sub	sp, sp, #12
 251              	.LCFI6:
 252              		.cfi_def_cfa_offset 16
 308:ioLibrary_Driver-master/Internet/DHCP/dhcp.c **** 	uint8_t bk_mac[6];
 253              		.loc 1 308 2 view .LVU39
 309:ioLibrary_Driver-master/Internet/DHCP/dhcp.c **** 	uint8_t *ptmp;
 254              		.loc 1 309 2 view .LVU40
 310:ioLibrary_Driver-master/Internet/DHCP/dhcp.c **** 	uint8_t i;
 255              		.loc 1 310 2 view .LVU41
 311:ioLibrary_Driver-master/Internet/DHCP/dhcp.c **** 	getSHAR(bk_mac);
 256              		.loc 1 311 2 view .LVU42
 257 0004 0622     		movs	r2, #6
 258 0006 6946     		mov	r1, sp
 259 0008 4FF41060 		mov	r0, #2304
 260 000c FFF7FEFF 		bl	WIZCHIP_READ_BUF
 261              	.LVL13:
 312:ioLibrary_Driver-master/Internet/DHCP/dhcp.c **** 	pDHCPMSG->op = DHCP_BOOTREQUEST;
 262              		.loc 1 312 2 view .LVU43
 263              		.loc 1 312 10 is_stmt 0 view .LVU44
 264 0010 344A     		ldr	r2, .L28
 265 0012 1168     		ldr	r1, [r2]
 266              		.loc 1 312 15 view .LVU45
 267 0014 0123     		movs	r3, #1
ARM GAS  C:\Users\VIDCOM~1\AppData\Local\Temp\cc9naxsX.s 			page 11


 268 0016 0B70     		strb	r3, [r1]
 313:ioLibrary_Driver-master/Internet/DHCP/dhcp.c **** 	pDHCPMSG->htype = DHCP_HTYPE10MB;
 269              		.loc 1 313 2 is_stmt 1 view .LVU46
 270              		.loc 1 313 10 is_stmt 0 view .LVU47
 271 0018 1168     		ldr	r1, [r2]
 272              		.loc 1 313 18 view .LVU48
 273 001a 4B70     		strb	r3, [r1, #1]
 314:ioLibrary_Driver-master/Internet/DHCP/dhcp.c **** 	pDHCPMSG->hlen = DHCP_HLENETHERNET;
 274              		.loc 1 314 2 is_stmt 1 view .LVU49
 275              		.loc 1 314 10 is_stmt 0 view .LVU50
 276 001c 1168     		ldr	r1, [r2]
 277              		.loc 1 314 17 view .LVU51
 278 001e 0623     		movs	r3, #6
 279 0020 8B70     		strb	r3, [r1, #2]
 315:ioLibrary_Driver-master/Internet/DHCP/dhcp.c **** 	pDHCPMSG->hops = DHCP_HOPS;
 280              		.loc 1 315 2 is_stmt 1 view .LVU52
 281              		.loc 1 315 10 is_stmt 0 view .LVU53
 282 0022 1068     		ldr	r0, [r2]
 283              		.loc 1 315 17 view .LVU54
 284 0024 0021     		movs	r1, #0
 285 0026 C170     		strb	r1, [r0, #3]
 316:ioLibrary_Driver-master/Internet/DHCP/dhcp.c **** 	ptmp = (uint8_t *)(&pDHCPMSG->xid);
 286              		.loc 1 316 2 is_stmt 1 view .LVU55
 287              		.loc 1 316 30 is_stmt 0 view .LVU56
 288 0028 1268     		ldr	r2, [r2]
 289              	.LVL14:
 317:ioLibrary_Driver-master/Internet/DHCP/dhcp.c **** 	*(ptmp + 0) = (uint8_t)((DHCP_XID & 0xFF000000) >> 24);
 290              		.loc 1 317 2 is_stmt 1 view .LVU57
 291              		.loc 1 317 50 is_stmt 0 view .LVU58
 292 002a 2F48     		ldr	r0, .L28+4
 293 002c 0068     		ldr	r0, [r0]
 294              		.loc 1 317 16 view .LVU59
 295 002e 4FEA106C 		lsr	ip, r0, #24
 296              		.loc 1 317 14 view .LVU60
 297 0032 82F804C0 		strb	ip, [r2, #4]
 318:ioLibrary_Driver-master/Internet/DHCP/dhcp.c **** 	*(ptmp + 1) = (uint8_t)((DHCP_XID & 0x00FF0000) >> 16);
 298              		.loc 1 318 2 is_stmt 1 view .LVU61
 299              		.loc 1 318 16 is_stmt 0 view .LVU62
 300 0036 C0F3074C 		ubfx	ip, r0, #16, #8
 301              		.loc 1 318 14 view .LVU63
 302 003a 82F805C0 		strb	ip, [r2, #5]
 319:ioLibrary_Driver-master/Internet/DHCP/dhcp.c **** 	*(ptmp + 2) = (uint8_t)((DHCP_XID & 0x0000FF00) >> 8);
 303              		.loc 1 319 2 is_stmt 1 view .LVU64
 304              		.loc 1 319 16 is_stmt 0 view .LVU65
 305 003e C0F3072C 		ubfx	ip, r0, #8, #8
 306              		.loc 1 319 14 view .LVU66
 307 0042 82F806C0 		strb	ip, [r2, #6]
 320:ioLibrary_Driver-master/Internet/DHCP/dhcp.c **** 	*(ptmp + 3) = (uint8_t)((DHCP_XID & 0x000000FF) >> 0);
 308              		.loc 1 320 2 is_stmt 1 view .LVU67
 309              		.loc 1 320 14 is_stmt 0 view .LVU68
 310 0046 D071     		strb	r0, [r2, #7]
 321:ioLibrary_Driver-master/Internet/DHCP/dhcp.c **** 	pDHCPMSG->secs = DHCP_SECS;
 311              		.loc 1 321 2 is_stmt 1 view .LVU69
 312              		.loc 1 321 17 is_stmt 0 view .LVU70
 313 0048 1181     		strh	r1, [r2, #8]	@ movhi
 322:ioLibrary_Driver-master/Internet/DHCP/dhcp.c **** 	ptmp = (uint8_t *)(&pDHCPMSG->flags);
 314              		.loc 1 322 2 is_stmt 1 view .LVU71
ARM GAS  C:\Users\VIDCOM~1\AppData\Local\Temp\cc9naxsX.s 			page 12


 315              	.LVL15:
 323:ioLibrary_Driver-master/Internet/DHCP/dhcp.c **** 	*(ptmp + 0) = (uint8_t)((DHCP_FLAGSBROADCAST & 0xFF00) >> 8);
 316              		.loc 1 323 2 view .LVU72
 317              		.loc 1 323 14 is_stmt 0 view .LVU73
 318 004a 8020     		movs	r0, #128
 319 004c 9072     		strb	r0, [r2, #10]
 324:ioLibrary_Driver-master/Internet/DHCP/dhcp.c **** 	*(ptmp + 1) = (uint8_t)((DHCP_FLAGSBROADCAST & 0x00FF) >> 0);
 320              		.loc 1 324 2 is_stmt 1 view .LVU74
 321              		.loc 1 324 14 is_stmt 0 view .LVU75
 322 004e D172     		strb	r1, [r2, #11]
 325:ioLibrary_Driver-master/Internet/DHCP/dhcp.c **** 
 326:ioLibrary_Driver-master/Internet/DHCP/dhcp.c **** 	pDHCPMSG->ciaddr[0] = 0;
 323              		.loc 1 326 2 is_stmt 1 view .LVU76
 324              		.loc 1 326 22 is_stmt 0 view .LVU77
 325 0050 1173     		strb	r1, [r2, #12]
 327:ioLibrary_Driver-master/Internet/DHCP/dhcp.c **** 	pDHCPMSG->ciaddr[1] = 0;
 326              		.loc 1 327 2 is_stmt 1 view .LVU78
 327              		.loc 1 327 22 is_stmt 0 view .LVU79
 328 0052 5173     		strb	r1, [r2, #13]
 328:ioLibrary_Driver-master/Internet/DHCP/dhcp.c **** 	pDHCPMSG->ciaddr[2] = 0;
 329              		.loc 1 328 2 is_stmt 1 view .LVU80
 330              		.loc 1 328 22 is_stmt 0 view .LVU81
 331 0054 9173     		strb	r1, [r2, #14]
 329:ioLibrary_Driver-master/Internet/DHCP/dhcp.c **** 	pDHCPMSG->ciaddr[3] = 0;
 332              		.loc 1 329 2 is_stmt 1 view .LVU82
 333              		.loc 1 329 22 is_stmt 0 view .LVU83
 334 0056 D173     		strb	r1, [r2, #15]
 330:ioLibrary_Driver-master/Internet/DHCP/dhcp.c **** 
 331:ioLibrary_Driver-master/Internet/DHCP/dhcp.c **** 	pDHCPMSG->yiaddr[0] = 0;
 335              		.loc 1 331 2 is_stmt 1 view .LVU84
 336              		.loc 1 331 22 is_stmt 0 view .LVU85
 337 0058 1174     		strb	r1, [r2, #16]
 332:ioLibrary_Driver-master/Internet/DHCP/dhcp.c **** 	pDHCPMSG->yiaddr[1] = 0;
 338              		.loc 1 332 2 is_stmt 1 view .LVU86
 339              		.loc 1 332 22 is_stmt 0 view .LVU87
 340 005a 5174     		strb	r1, [r2, #17]
 333:ioLibrary_Driver-master/Internet/DHCP/dhcp.c **** 	pDHCPMSG->yiaddr[2] = 0;
 341              		.loc 1 333 2 is_stmt 1 view .LVU88
 342              		.loc 1 333 22 is_stmt 0 view .LVU89
 343 005c 9174     		strb	r1, [r2, #18]
 334:ioLibrary_Driver-master/Internet/DHCP/dhcp.c **** 	pDHCPMSG->yiaddr[3] = 0;
 344              		.loc 1 334 2 is_stmt 1 view .LVU90
 345              		.loc 1 334 22 is_stmt 0 view .LVU91
 346 005e D174     		strb	r1, [r2, #19]
 335:ioLibrary_Driver-master/Internet/DHCP/dhcp.c **** 
 336:ioLibrary_Driver-master/Internet/DHCP/dhcp.c **** 	pDHCPMSG->siaddr[0] = 0;
 347              		.loc 1 336 2 is_stmt 1 view .LVU92
 348              		.loc 1 336 22 is_stmt 0 view .LVU93
 349 0060 1175     		strb	r1, [r2, #20]
 337:ioLibrary_Driver-master/Internet/DHCP/dhcp.c **** 	pDHCPMSG->siaddr[1] = 0;
 350              		.loc 1 337 2 is_stmt 1 view .LVU94
 351              		.loc 1 337 22 is_stmt 0 view .LVU95
 352 0062 5175     		strb	r1, [r2, #21]
 338:ioLibrary_Driver-master/Internet/DHCP/dhcp.c **** 	pDHCPMSG->siaddr[2] = 0;
 353              		.loc 1 338 2 is_stmt 1 view .LVU96
 354              		.loc 1 338 22 is_stmt 0 view .LVU97
 355 0064 9175     		strb	r1, [r2, #22]
ARM GAS  C:\Users\VIDCOM~1\AppData\Local\Temp\cc9naxsX.s 			page 13


 339:ioLibrary_Driver-master/Internet/DHCP/dhcp.c **** 	pDHCPMSG->siaddr[3] = 0;
 356              		.loc 1 339 2 is_stmt 1 view .LVU98
 357              		.loc 1 339 22 is_stmt 0 view .LVU99
 358 0066 D175     		strb	r1, [r2, #23]
 340:ioLibrary_Driver-master/Internet/DHCP/dhcp.c **** 
 341:ioLibrary_Driver-master/Internet/DHCP/dhcp.c **** 	pDHCPMSG->giaddr[0] = 0;
 359              		.loc 1 341 2 is_stmt 1 view .LVU100
 360              		.loc 1 341 22 is_stmt 0 view .LVU101
 361 0068 1176     		strb	r1, [r2, #24]
 342:ioLibrary_Driver-master/Internet/DHCP/dhcp.c **** 	pDHCPMSG->giaddr[1] = 0;
 362              		.loc 1 342 2 is_stmt 1 view .LVU102
 363              		.loc 1 342 22 is_stmt 0 view .LVU103
 364 006a 5176     		strb	r1, [r2, #25]
 343:ioLibrary_Driver-master/Internet/DHCP/dhcp.c **** 	pDHCPMSG->giaddr[2] = 0;
 365              		.loc 1 343 2 is_stmt 1 view .LVU104
 366              		.loc 1 343 22 is_stmt 0 view .LVU105
 367 006c 9176     		strb	r1, [r2, #26]
 344:ioLibrary_Driver-master/Internet/DHCP/dhcp.c **** 	pDHCPMSG->giaddr[3] = 0;
 368              		.loc 1 344 2 is_stmt 1 view .LVU106
 369              		.loc 1 344 22 is_stmt 0 view .LVU107
 370 006e D176     		strb	r1, [r2, #27]
 345:ioLibrary_Driver-master/Internet/DHCP/dhcp.c **** 
 346:ioLibrary_Driver-master/Internet/DHCP/dhcp.c **** 	pDHCPMSG->chaddr[0] = DHCP_CHADDR[0];
 371              		.loc 1 346 2 is_stmt 1 view .LVU108
 372              		.loc 1 346 35 is_stmt 0 view .LVU109
 373 0070 1E49     		ldr	r1, .L28+8
 374 0072 0878     		ldrb	r0, [r1]	@ zero_extendqisi2
 375              		.loc 1 346 22 view .LVU110
 376 0074 1077     		strb	r0, [r2, #28]
 347:ioLibrary_Driver-master/Internet/DHCP/dhcp.c **** 	pDHCPMSG->chaddr[1] = DHCP_CHADDR[1];
 377              		.loc 1 347 2 is_stmt 1 view .LVU111
 378              		.loc 1 347 35 is_stmt 0 view .LVU112
 379 0076 4878     		ldrb	r0, [r1, #1]	@ zero_extendqisi2
 380              		.loc 1 347 22 view .LVU113
 381 0078 5077     		strb	r0, [r2, #29]
 348:ioLibrary_Driver-master/Internet/DHCP/dhcp.c **** 	pDHCPMSG->chaddr[2] = DHCP_CHADDR[2];
 382              		.loc 1 348 2 is_stmt 1 view .LVU114
 383              		.loc 1 348 35 is_stmt 0 view .LVU115
 384 007a 8878     		ldrb	r0, [r1, #2]	@ zero_extendqisi2
 385              		.loc 1 348 22 view .LVU116
 386 007c 9077     		strb	r0, [r2, #30]
 349:ioLibrary_Driver-master/Internet/DHCP/dhcp.c **** 	pDHCPMSG->chaddr[3] = DHCP_CHADDR[3];
 387              		.loc 1 349 2 is_stmt 1 view .LVU117
 388              		.loc 1 349 35 is_stmt 0 view .LVU118
 389 007e C878     		ldrb	r0, [r1, #3]	@ zero_extendqisi2
 390              		.loc 1 349 22 view .LVU119
 391 0080 D077     		strb	r0, [r2, #31]
 350:ioLibrary_Driver-master/Internet/DHCP/dhcp.c **** 	pDHCPMSG->chaddr[4] = DHCP_CHADDR[4];
 392              		.loc 1 350 2 is_stmt 1 view .LVU120
 393              		.loc 1 350 35 is_stmt 0 view .LVU121
 394 0082 0879     		ldrb	r0, [r1, #4]	@ zero_extendqisi2
 395              		.loc 1 350 22 view .LVU122
 396 0084 82F82000 		strb	r0, [r2, #32]
 351:ioLibrary_Driver-master/Internet/DHCP/dhcp.c **** 	pDHCPMSG->chaddr[5] = DHCP_CHADDR[5];
 397              		.loc 1 351 2 is_stmt 1 view .LVU123
 398              		.loc 1 351 35 is_stmt 0 view .LVU124
 399 0088 4979     		ldrb	r1, [r1, #5]	@ zero_extendqisi2
ARM GAS  C:\Users\VIDCOM~1\AppData\Local\Temp\cc9naxsX.s 			page 14


 400              		.loc 1 351 22 view .LVU125
 401 008a 82F82110 		strb	r1, [r2, #33]
 352:ioLibrary_Driver-master/Internet/DHCP/dhcp.c **** 
 353:ioLibrary_Driver-master/Internet/DHCP/dhcp.c **** 	for (i = 6; i < 16; i++)
 402              		.loc 1 353 2 is_stmt 1 view .LVU126
 403              	.LVL16:
 404              		.loc 1 353 2 is_stmt 0 view .LVU127
 405 008e 04E0     		b	.L21
 406              	.LVL17:
 407              	.L22:
 354:ioLibrary_Driver-master/Internet/DHCP/dhcp.c **** 		pDHCPMSG->chaddr[i] = 0;
 408              		.loc 1 354 3 is_stmt 1 discriminator 3 view .LVU128
 409              		.loc 1 354 23 is_stmt 0 discriminator 3 view .LVU129
 410 0090 D118     		adds	r1, r2, r3
 411 0092 0020     		movs	r0, #0
 412 0094 0877     		strb	r0, [r1, #28]
 353:ioLibrary_Driver-master/Internet/DHCP/dhcp.c **** 		pDHCPMSG->chaddr[i] = 0;
 413              		.loc 1 353 23 is_stmt 1 discriminator 3 view .LVU130
 414 0096 0133     		adds	r3, r3, #1
 415              	.LVL18:
 353:ioLibrary_Driver-master/Internet/DHCP/dhcp.c **** 		pDHCPMSG->chaddr[i] = 0;
 416              		.loc 1 353 23 is_stmt 0 discriminator 3 view .LVU131
 417 0098 DBB2     		uxtb	r3, r3
 418              	.LVL19:
 419              	.L21:
 353:ioLibrary_Driver-master/Internet/DHCP/dhcp.c **** 		pDHCPMSG->chaddr[i] = 0;
 420              		.loc 1 353 16 is_stmt 1 discriminator 1 view .LVU132
 421 009a 0F2B     		cmp	r3, #15
 422 009c F8D9     		bls	.L22
 355:ioLibrary_Driver-master/Internet/DHCP/dhcp.c **** 	for (i = 0; i < 64; i++)
 423              		.loc 1 355 9 is_stmt 0 view .LVU133
 424 009e 0023     		movs	r3, #0
 425              	.LVL20:
 426              		.loc 1 355 9 view .LVU134
 427 00a0 05E0     		b	.L23
 428              	.LVL21:
 429              	.L24:
 356:ioLibrary_Driver-master/Internet/DHCP/dhcp.c **** 		pDHCPMSG->sname[i] = 0;
 430              		.loc 1 356 3 is_stmt 1 discriminator 3 view .LVU135
 431              		.loc 1 356 22 is_stmt 0 discriminator 3 view .LVU136
 432 00a2 D118     		adds	r1, r2, r3
 433 00a4 0020     		movs	r0, #0
 434 00a6 81F82C00 		strb	r0, [r1, #44]
 355:ioLibrary_Driver-master/Internet/DHCP/dhcp.c **** 	for (i = 0; i < 64; i++)
 435              		.loc 1 355 23 is_stmt 1 discriminator 3 view .LVU137
 436 00aa 0133     		adds	r3, r3, #1
 437              	.LVL22:
 355:ioLibrary_Driver-master/Internet/DHCP/dhcp.c **** 	for (i = 0; i < 64; i++)
 438              		.loc 1 355 23 is_stmt 0 discriminator 3 view .LVU138
 439 00ac DBB2     		uxtb	r3, r3
 440              	.LVL23:
 441              	.L23:
 355:ioLibrary_Driver-master/Internet/DHCP/dhcp.c **** 	for (i = 0; i < 64; i++)
 442              		.loc 1 355 16 is_stmt 1 discriminator 1 view .LVU139
 443 00ae 3F2B     		cmp	r3, #63
 444 00b0 F7D9     		bls	.L24
 357:ioLibrary_Driver-master/Internet/DHCP/dhcp.c **** 	for (i = 0; i < 128; i++)
ARM GAS  C:\Users\VIDCOM~1\AppData\Local\Temp\cc9naxsX.s 			page 15


 445              		.loc 1 357 9 is_stmt 0 view .LVU140
 446 00b2 0023     		movs	r3, #0
 447              	.LVL24:
 448              		.loc 1 357 9 view .LVU141
 449 00b4 05E0     		b	.L25
 450              	.LVL25:
 451              	.L26:
 358:ioLibrary_Driver-master/Internet/DHCP/dhcp.c **** 		pDHCPMSG->file[i] = 0;
 452              		.loc 1 358 3 is_stmt 1 discriminator 3 view .LVU142
 453              		.loc 1 358 21 is_stmt 0 discriminator 3 view .LVU143
 454 00b6 D118     		adds	r1, r2, r3
 455 00b8 0020     		movs	r0, #0
 456 00ba 81F86C00 		strb	r0, [r1, #108]
 357:ioLibrary_Driver-master/Internet/DHCP/dhcp.c **** 	for (i = 0; i < 128; i++)
 457              		.loc 1 357 24 is_stmt 1 discriminator 3 view .LVU144
 458 00be 0133     		adds	r3, r3, #1
 459              	.LVL26:
 357:ioLibrary_Driver-master/Internet/DHCP/dhcp.c **** 	for (i = 0; i < 128; i++)
 460              		.loc 1 357 24 is_stmt 0 discriminator 3 view .LVU145
 461 00c0 DBB2     		uxtb	r3, r3
 462              	.LVL27:
 463              	.L25:
 357:ioLibrary_Driver-master/Internet/DHCP/dhcp.c **** 	for (i = 0; i < 128; i++)
 464              		.loc 1 357 16 is_stmt 1 discriminator 1 view .LVU146
 465 00c2 13F0800F 		tst	r3, #128
 466 00c6 F6D0     		beq	.L26
 359:ioLibrary_Driver-master/Internet/DHCP/dhcp.c **** 
 360:ioLibrary_Driver-master/Internet/DHCP/dhcp.c **** 	// MAGIC_COOKIE
 361:ioLibrary_Driver-master/Internet/DHCP/dhcp.c **** 	pDHCPMSG->OPT[0] = (uint8_t)((MAGIC_COOKIE & 0xFF000000) >> 24);
 467              		.loc 1 361 2 view .LVU147
 468              		.loc 1 361 19 is_stmt 0 view .LVU148
 469 00c8 6323     		movs	r3, #99
 470              	.LVL28:
 471              		.loc 1 361 19 view .LVU149
 472 00ca 82F8EC30 		strb	r3, [r2, #236]
 362:ioLibrary_Driver-master/Internet/DHCP/dhcp.c **** 	pDHCPMSG->OPT[1] = (uint8_t)((MAGIC_COOKIE & 0x00FF0000) >> 16);
 473              		.loc 1 362 2 is_stmt 1 view .LVU150
 474              		.loc 1 362 19 is_stmt 0 view .LVU151
 475 00ce 8221     		movs	r1, #130
 476 00d0 82F8ED10 		strb	r1, [r2, #237]
 363:ioLibrary_Driver-master/Internet/DHCP/dhcp.c **** 	pDHCPMSG->OPT[2] = (uint8_t)((MAGIC_COOKIE & 0x0000FF00) >> 8);
 477              		.loc 1 363 2 is_stmt 1 view .LVU152
 478              		.loc 1 363 19 is_stmt 0 view .LVU153
 479 00d4 5321     		movs	r1, #83
 480 00d6 82F8EE10 		strb	r1, [r2, #238]
 364:ioLibrary_Driver-master/Internet/DHCP/dhcp.c **** 	pDHCPMSG->OPT[3] = (uint8_t)(MAGIC_COOKIE & 0x000000FF) >> 0;
 481              		.loc 1 364 2 is_stmt 1 view .LVU154
 482              		.loc 1 364 19 is_stmt 0 view .LVU155
 483 00da 82F8EF30 		strb	r3, [r2, #239]
 365:ioLibrary_Driver-master/Internet/DHCP/dhcp.c **** }
 484              		.loc 1 365 1 view .LVU156
 485 00de 03B0     		add	sp, sp, #12
 486              	.LCFI7:
 487              		.cfi_def_cfa_offset 4
 488              		@ sp needed
 489 00e0 5DF804FB 		ldr	pc, [sp], #4
 490              	.L29:
ARM GAS  C:\Users\VIDCOM~1\AppData\Local\Temp\cc9naxsX.s 			page 16


 491              		.align	2
 492              	.L28:
 493 00e4 00000000 		.word	pDHCPMSG
 494 00e8 00000000 		.word	DHCP_XID
 495 00ec 00000000 		.word	DHCP_CHADDR
 496              		.cfi_endproc
 497              	.LFE4:
 499              		.section	.text.send_DHCP_DECLINE,"ax",%progbits
 500              		.align	1
 501              		.global	send_DHCP_DECLINE
 502              		.syntax unified
 503              		.thumb
 504              		.thumb_func
 506              	send_DHCP_DECLINE:
 507              	.LFB7:
 366:ioLibrary_Driver-master/Internet/DHCP/dhcp.c **** 
 367:ioLibrary_Driver-master/Internet/DHCP/dhcp.c **** /* SEND DHCP DISCOVER */
 368:ioLibrary_Driver-master/Internet/DHCP/dhcp.c **** void send_DHCP_DISCOVER(void)
 369:ioLibrary_Driver-master/Internet/DHCP/dhcp.c **** {
 370:ioLibrary_Driver-master/Internet/DHCP/dhcp.c **** 	uint16_t i;
 371:ioLibrary_Driver-master/Internet/DHCP/dhcp.c **** 	uint8_t ip[4];
 372:ioLibrary_Driver-master/Internet/DHCP/dhcp.c **** 	uint16_t k = 0;
 373:ioLibrary_Driver-master/Internet/DHCP/dhcp.c **** 
 374:ioLibrary_Driver-master/Internet/DHCP/dhcp.c **** 	makeDHCPMSG();
 375:ioLibrary_Driver-master/Internet/DHCP/dhcp.c **** 	DHCP_SIP[0] = 0;
 376:ioLibrary_Driver-master/Internet/DHCP/dhcp.c **** 	DHCP_SIP[1] = 0;
 377:ioLibrary_Driver-master/Internet/DHCP/dhcp.c **** 	DHCP_SIP[2] = 0;
 378:ioLibrary_Driver-master/Internet/DHCP/dhcp.c **** 	DHCP_SIP[3] = 0;
 379:ioLibrary_Driver-master/Internet/DHCP/dhcp.c **** 	DHCP_REAL_SIP[0] = 0;
 380:ioLibrary_Driver-master/Internet/DHCP/dhcp.c **** 	DHCP_REAL_SIP[1] = 0;
 381:ioLibrary_Driver-master/Internet/DHCP/dhcp.c **** 	DHCP_REAL_SIP[2] = 0;
 382:ioLibrary_Driver-master/Internet/DHCP/dhcp.c **** 	DHCP_REAL_SIP[3] = 0;
 383:ioLibrary_Driver-master/Internet/DHCP/dhcp.c **** 
 384:ioLibrary_Driver-master/Internet/DHCP/dhcp.c **** 	k = 4; // because MAGIC_COOKIE already made by makeDHCPMSG()
 385:ioLibrary_Driver-master/Internet/DHCP/dhcp.c **** 
 386:ioLibrary_Driver-master/Internet/DHCP/dhcp.c **** 	// Option Request Param
 387:ioLibrary_Driver-master/Internet/DHCP/dhcp.c **** 	pDHCPMSG->OPT[k++] = dhcpMessageType;
 388:ioLibrary_Driver-master/Internet/DHCP/dhcp.c **** 	pDHCPMSG->OPT[k++] = 0x01;
 389:ioLibrary_Driver-master/Internet/DHCP/dhcp.c **** 	pDHCPMSG->OPT[k++] = DHCP_DISCOVER;
 390:ioLibrary_Driver-master/Internet/DHCP/dhcp.c **** 
 391:ioLibrary_Driver-master/Internet/DHCP/dhcp.c **** 	// Client identifier
 392:ioLibrary_Driver-master/Internet/DHCP/dhcp.c **** 	pDHCPMSG->OPT[k++] = dhcpClientIdentifier;
 393:ioLibrary_Driver-master/Internet/DHCP/dhcp.c **** 	pDHCPMSG->OPT[k++] = 0x07;
 394:ioLibrary_Driver-master/Internet/DHCP/dhcp.c **** 	pDHCPMSG->OPT[k++] = 0x01;
 395:ioLibrary_Driver-master/Internet/DHCP/dhcp.c **** 	pDHCPMSG->OPT[k++] = DHCP_CHADDR[0];
 396:ioLibrary_Driver-master/Internet/DHCP/dhcp.c **** 	pDHCPMSG->OPT[k++] = DHCP_CHADDR[1];
 397:ioLibrary_Driver-master/Internet/DHCP/dhcp.c **** 	pDHCPMSG->OPT[k++] = DHCP_CHADDR[2];
 398:ioLibrary_Driver-master/Internet/DHCP/dhcp.c **** 	pDHCPMSG->OPT[k++] = DHCP_CHADDR[3];
 399:ioLibrary_Driver-master/Internet/DHCP/dhcp.c **** 	pDHCPMSG->OPT[k++] = DHCP_CHADDR[4];
 400:ioLibrary_Driver-master/Internet/DHCP/dhcp.c **** 	pDHCPMSG->OPT[k++] = DHCP_CHADDR[5];
 401:ioLibrary_Driver-master/Internet/DHCP/dhcp.c **** 
 402:ioLibrary_Driver-master/Internet/DHCP/dhcp.c **** 	// host name
 403:ioLibrary_Driver-master/Internet/DHCP/dhcp.c **** 	pDHCPMSG->OPT[k++] = hostName;
 404:ioLibrary_Driver-master/Internet/DHCP/dhcp.c **** 	pDHCPMSG->OPT[k++] = 0; // fill zero length of hostname
 405:ioLibrary_Driver-master/Internet/DHCP/dhcp.c **** 	for (i = 0; HOST_NAME[i] != 0; i++)
 406:ioLibrary_Driver-master/Internet/DHCP/dhcp.c **** 		pDHCPMSG->OPT[k++] = HOST_NAME[i];
 407:ioLibrary_Driver-master/Internet/DHCP/dhcp.c **** 	pDHCPMSG->OPT[k++] = NibbleToHex(DHCP_CHADDR[3] >> 4);
ARM GAS  C:\Users\VIDCOM~1\AppData\Local\Temp\cc9naxsX.s 			page 17


 408:ioLibrary_Driver-master/Internet/DHCP/dhcp.c **** 	pDHCPMSG->OPT[k++] = NibbleToHex(DHCP_CHADDR[3]);
 409:ioLibrary_Driver-master/Internet/DHCP/dhcp.c **** 	pDHCPMSG->OPT[k++] = NibbleToHex(DHCP_CHADDR[4] >> 4);
 410:ioLibrary_Driver-master/Internet/DHCP/dhcp.c **** 	pDHCPMSG->OPT[k++] = NibbleToHex(DHCP_CHADDR[4]);
 411:ioLibrary_Driver-master/Internet/DHCP/dhcp.c **** 	pDHCPMSG->OPT[k++] = NibbleToHex(DHCP_CHADDR[5] >> 4);
 412:ioLibrary_Driver-master/Internet/DHCP/dhcp.c **** 	pDHCPMSG->OPT[k++] = NibbleToHex(DHCP_CHADDR[5]);
 413:ioLibrary_Driver-master/Internet/DHCP/dhcp.c **** 	pDHCPMSG->OPT[k - (i + 6 + 1)] = i + 6; // length of hostname
 414:ioLibrary_Driver-master/Internet/DHCP/dhcp.c **** 
 415:ioLibrary_Driver-master/Internet/DHCP/dhcp.c **** 	pDHCPMSG->OPT[k++] = dhcpParamRequest;
 416:ioLibrary_Driver-master/Internet/DHCP/dhcp.c **** 	pDHCPMSG->OPT[k++] = 0x06; // length of request
 417:ioLibrary_Driver-master/Internet/DHCP/dhcp.c **** 	pDHCPMSG->OPT[k++] = subnetMask;
 418:ioLibrary_Driver-master/Internet/DHCP/dhcp.c **** 	pDHCPMSG->OPT[k++] = routersOnSubnet;
 419:ioLibrary_Driver-master/Internet/DHCP/dhcp.c **** 	pDHCPMSG->OPT[k++] = dns;
 420:ioLibrary_Driver-master/Internet/DHCP/dhcp.c **** 	pDHCPMSG->OPT[k++] = domainName;
 421:ioLibrary_Driver-master/Internet/DHCP/dhcp.c **** 	pDHCPMSG->OPT[k++] = dhcpT1value;
 422:ioLibrary_Driver-master/Internet/DHCP/dhcp.c **** 	pDHCPMSG->OPT[k++] = dhcpT2value;
 423:ioLibrary_Driver-master/Internet/DHCP/dhcp.c **** 	pDHCPMSG->OPT[k++] = endOption;
 424:ioLibrary_Driver-master/Internet/DHCP/dhcp.c **** 
 425:ioLibrary_Driver-master/Internet/DHCP/dhcp.c **** 	for (i = k; i < OPT_SIZE; i++)
 426:ioLibrary_Driver-master/Internet/DHCP/dhcp.c **** 		pDHCPMSG->OPT[i] = 0;
 427:ioLibrary_Driver-master/Internet/DHCP/dhcp.c **** 
 428:ioLibrary_Driver-master/Internet/DHCP/dhcp.c **** 	// send broadcasting packet
 429:ioLibrary_Driver-master/Internet/DHCP/dhcp.c **** 	ip[0] = 255;
 430:ioLibrary_Driver-master/Internet/DHCP/dhcp.c **** 	ip[1] = 255;
 431:ioLibrary_Driver-master/Internet/DHCP/dhcp.c **** 	ip[2] = 255;
 432:ioLibrary_Driver-master/Internet/DHCP/dhcp.c **** 	ip[3] = 255;
 433:ioLibrary_Driver-master/Internet/DHCP/dhcp.c **** 
 434:ioLibrary_Driver-master/Internet/DHCP/dhcp.c **** #ifdef _DHCP_DEBUG_
 435:ioLibrary_Driver-master/Internet/DHCP/dhcp.c **** 	printf("> Send DHCP_DISCOVER\r\n");
 436:ioLibrary_Driver-master/Internet/DHCP/dhcp.c **** #endif
 437:ioLibrary_Driver-master/Internet/DHCP/dhcp.c **** 
 438:ioLibrary_Driver-master/Internet/DHCP/dhcp.c **** 	sendto(DHCP_SOCKET, (uint8_t *)pDHCPMSG, RIP_MSG_SIZE, ip, DHCP_SERVER_PORT);
 439:ioLibrary_Driver-master/Internet/DHCP/dhcp.c **** }
 440:ioLibrary_Driver-master/Internet/DHCP/dhcp.c **** 
 441:ioLibrary_Driver-master/Internet/DHCP/dhcp.c **** /* SEND DHCP REQUEST */
 442:ioLibrary_Driver-master/Internet/DHCP/dhcp.c **** void send_DHCP_REQUEST(void)
 443:ioLibrary_Driver-master/Internet/DHCP/dhcp.c **** {
 444:ioLibrary_Driver-master/Internet/DHCP/dhcp.c **** 	int i;
 445:ioLibrary_Driver-master/Internet/DHCP/dhcp.c **** 	uint8_t ip[4];
 446:ioLibrary_Driver-master/Internet/DHCP/dhcp.c **** 	uint16_t k = 0;
 447:ioLibrary_Driver-master/Internet/DHCP/dhcp.c **** 
 448:ioLibrary_Driver-master/Internet/DHCP/dhcp.c **** 	makeDHCPMSG();
 449:ioLibrary_Driver-master/Internet/DHCP/dhcp.c **** 
 450:ioLibrary_Driver-master/Internet/DHCP/dhcp.c **** 	if (dhcp_state == STATE_DHCP_LEASED || dhcp_state == STATE_DHCP_REREQUEST)
 451:ioLibrary_Driver-master/Internet/DHCP/dhcp.c **** 	{
 452:ioLibrary_Driver-master/Internet/DHCP/dhcp.c **** 		*((uint8_t *)(&pDHCPMSG->flags)) = ((DHCP_FLAGSUNICAST & 0xFF00) >> 8);
 453:ioLibrary_Driver-master/Internet/DHCP/dhcp.c **** 		*((uint8_t *)(&pDHCPMSG->flags) + 1) = (DHCP_FLAGSUNICAST & 0x00FF);
 454:ioLibrary_Driver-master/Internet/DHCP/dhcp.c **** 		pDHCPMSG->ciaddr[0] = DHCP_allocated_ip[0];
 455:ioLibrary_Driver-master/Internet/DHCP/dhcp.c **** 		pDHCPMSG->ciaddr[1] = DHCP_allocated_ip[1];
 456:ioLibrary_Driver-master/Internet/DHCP/dhcp.c **** 		pDHCPMSG->ciaddr[2] = DHCP_allocated_ip[2];
 457:ioLibrary_Driver-master/Internet/DHCP/dhcp.c **** 		pDHCPMSG->ciaddr[3] = DHCP_allocated_ip[3];
 458:ioLibrary_Driver-master/Internet/DHCP/dhcp.c **** 		ip[0] = DHCP_SIP[0];
 459:ioLibrary_Driver-master/Internet/DHCP/dhcp.c **** 		ip[1] = DHCP_SIP[1];
 460:ioLibrary_Driver-master/Internet/DHCP/dhcp.c **** 		ip[2] = DHCP_SIP[2];
 461:ioLibrary_Driver-master/Internet/DHCP/dhcp.c **** 		ip[3] = DHCP_SIP[3];
 462:ioLibrary_Driver-master/Internet/DHCP/dhcp.c **** 	}
 463:ioLibrary_Driver-master/Internet/DHCP/dhcp.c **** 	else
 464:ioLibrary_Driver-master/Internet/DHCP/dhcp.c **** 	{
ARM GAS  C:\Users\VIDCOM~1\AppData\Local\Temp\cc9naxsX.s 			page 18


 465:ioLibrary_Driver-master/Internet/DHCP/dhcp.c **** 		ip[0] = 255;
 466:ioLibrary_Driver-master/Internet/DHCP/dhcp.c **** 		ip[1] = 255;
 467:ioLibrary_Driver-master/Internet/DHCP/dhcp.c **** 		ip[2] = 255;
 468:ioLibrary_Driver-master/Internet/DHCP/dhcp.c **** 		ip[3] = 255;
 469:ioLibrary_Driver-master/Internet/DHCP/dhcp.c **** 	}
 470:ioLibrary_Driver-master/Internet/DHCP/dhcp.c **** 
 471:ioLibrary_Driver-master/Internet/DHCP/dhcp.c **** 	k = 4; // because MAGIC_COOKIE already made by makeDHCPMSG()
 472:ioLibrary_Driver-master/Internet/DHCP/dhcp.c **** 
 473:ioLibrary_Driver-master/Internet/DHCP/dhcp.c **** 	// Option Request Param.
 474:ioLibrary_Driver-master/Internet/DHCP/dhcp.c **** 	pDHCPMSG->OPT[k++] = dhcpMessageType;
 475:ioLibrary_Driver-master/Internet/DHCP/dhcp.c **** 	pDHCPMSG->OPT[k++] = 0x01;
 476:ioLibrary_Driver-master/Internet/DHCP/dhcp.c **** 	pDHCPMSG->OPT[k++] = DHCP_REQUEST;
 477:ioLibrary_Driver-master/Internet/DHCP/dhcp.c **** 
 478:ioLibrary_Driver-master/Internet/DHCP/dhcp.c **** 	pDHCPMSG->OPT[k++] = dhcpClientIdentifier;
 479:ioLibrary_Driver-master/Internet/DHCP/dhcp.c **** 	pDHCPMSG->OPT[k++] = 0x07;
 480:ioLibrary_Driver-master/Internet/DHCP/dhcp.c **** 	pDHCPMSG->OPT[k++] = 0x01;
 481:ioLibrary_Driver-master/Internet/DHCP/dhcp.c **** 	pDHCPMSG->OPT[k++] = DHCP_CHADDR[0];
 482:ioLibrary_Driver-master/Internet/DHCP/dhcp.c **** 	pDHCPMSG->OPT[k++] = DHCP_CHADDR[1];
 483:ioLibrary_Driver-master/Internet/DHCP/dhcp.c **** 	pDHCPMSG->OPT[k++] = DHCP_CHADDR[2];
 484:ioLibrary_Driver-master/Internet/DHCP/dhcp.c **** 	pDHCPMSG->OPT[k++] = DHCP_CHADDR[3];
 485:ioLibrary_Driver-master/Internet/DHCP/dhcp.c **** 	pDHCPMSG->OPT[k++] = DHCP_CHADDR[4];
 486:ioLibrary_Driver-master/Internet/DHCP/dhcp.c **** 	pDHCPMSG->OPT[k++] = DHCP_CHADDR[5];
 487:ioLibrary_Driver-master/Internet/DHCP/dhcp.c **** 
 488:ioLibrary_Driver-master/Internet/DHCP/dhcp.c **** 	if (ip[3] == 255) // if(dchp_state == STATE_DHCP_LEASED || dchp_state == DHCP_REREQUEST_STATE)
 489:ioLibrary_Driver-master/Internet/DHCP/dhcp.c **** 	{
 490:ioLibrary_Driver-master/Internet/DHCP/dhcp.c **** 		pDHCPMSG->OPT[k++] = dhcpRequestedIPaddr;
 491:ioLibrary_Driver-master/Internet/DHCP/dhcp.c **** 		pDHCPMSG->OPT[k++] = 0x04;
 492:ioLibrary_Driver-master/Internet/DHCP/dhcp.c **** 		pDHCPMSG->OPT[k++] = DHCP_allocated_ip[0];
 493:ioLibrary_Driver-master/Internet/DHCP/dhcp.c **** 		pDHCPMSG->OPT[k++] = DHCP_allocated_ip[1];
 494:ioLibrary_Driver-master/Internet/DHCP/dhcp.c **** 		pDHCPMSG->OPT[k++] = DHCP_allocated_ip[2];
 495:ioLibrary_Driver-master/Internet/DHCP/dhcp.c **** 		pDHCPMSG->OPT[k++] = DHCP_allocated_ip[3];
 496:ioLibrary_Driver-master/Internet/DHCP/dhcp.c **** 
 497:ioLibrary_Driver-master/Internet/DHCP/dhcp.c **** 		pDHCPMSG->OPT[k++] = dhcpServerIdentifier;
 498:ioLibrary_Driver-master/Internet/DHCP/dhcp.c **** 		pDHCPMSG->OPT[k++] = 0x04;
 499:ioLibrary_Driver-master/Internet/DHCP/dhcp.c **** 		pDHCPMSG->OPT[k++] = DHCP_SIP[0];
 500:ioLibrary_Driver-master/Internet/DHCP/dhcp.c **** 		pDHCPMSG->OPT[k++] = DHCP_SIP[1];
 501:ioLibrary_Driver-master/Internet/DHCP/dhcp.c **** 		pDHCPMSG->OPT[k++] = DHCP_SIP[2];
 502:ioLibrary_Driver-master/Internet/DHCP/dhcp.c **** 		pDHCPMSG->OPT[k++] = DHCP_SIP[3];
 503:ioLibrary_Driver-master/Internet/DHCP/dhcp.c **** 	}
 504:ioLibrary_Driver-master/Internet/DHCP/dhcp.c **** 
 505:ioLibrary_Driver-master/Internet/DHCP/dhcp.c **** 	// host name
 506:ioLibrary_Driver-master/Internet/DHCP/dhcp.c **** 	pDHCPMSG->OPT[k++] = hostName;
 507:ioLibrary_Driver-master/Internet/DHCP/dhcp.c **** 	pDHCPMSG->OPT[k++] = 0; // length of hostname
 508:ioLibrary_Driver-master/Internet/DHCP/dhcp.c **** 	for (i = 0; HOST_NAME[i] != 0; i++)
 509:ioLibrary_Driver-master/Internet/DHCP/dhcp.c **** 		pDHCPMSG->OPT[k++] = HOST_NAME[i];
 510:ioLibrary_Driver-master/Internet/DHCP/dhcp.c **** 	pDHCPMSG->OPT[k++] = NibbleToHex(DHCP_CHADDR[3] >> 4);
 511:ioLibrary_Driver-master/Internet/DHCP/dhcp.c **** 	pDHCPMSG->OPT[k++] = NibbleToHex(DHCP_CHADDR[3]);
 512:ioLibrary_Driver-master/Internet/DHCP/dhcp.c **** 	pDHCPMSG->OPT[k++] = NibbleToHex(DHCP_CHADDR[4] >> 4);
 513:ioLibrary_Driver-master/Internet/DHCP/dhcp.c **** 	pDHCPMSG->OPT[k++] = NibbleToHex(DHCP_CHADDR[4]);
 514:ioLibrary_Driver-master/Internet/DHCP/dhcp.c **** 	pDHCPMSG->OPT[k++] = NibbleToHex(DHCP_CHADDR[5] >> 4);
 515:ioLibrary_Driver-master/Internet/DHCP/dhcp.c **** 	pDHCPMSG->OPT[k++] = NibbleToHex(DHCP_CHADDR[5]);
 516:ioLibrary_Driver-master/Internet/DHCP/dhcp.c **** 	pDHCPMSG->OPT[k - (i + 6 + 1)] = i + 6; // length of hostname
 517:ioLibrary_Driver-master/Internet/DHCP/dhcp.c **** 
 518:ioLibrary_Driver-master/Internet/DHCP/dhcp.c **** 	pDHCPMSG->OPT[k++] = dhcpParamRequest;
 519:ioLibrary_Driver-master/Internet/DHCP/dhcp.c **** 	pDHCPMSG->OPT[k++] = 0x08;
 520:ioLibrary_Driver-master/Internet/DHCP/dhcp.c **** 	pDHCPMSG->OPT[k++] = subnetMask;
 521:ioLibrary_Driver-master/Internet/DHCP/dhcp.c **** 	pDHCPMSG->OPT[k++] = routersOnSubnet;
ARM GAS  C:\Users\VIDCOM~1\AppData\Local\Temp\cc9naxsX.s 			page 19


 522:ioLibrary_Driver-master/Internet/DHCP/dhcp.c **** 	pDHCPMSG->OPT[k++] = dns;
 523:ioLibrary_Driver-master/Internet/DHCP/dhcp.c **** 	pDHCPMSG->OPT[k++] = domainName;
 524:ioLibrary_Driver-master/Internet/DHCP/dhcp.c **** 	pDHCPMSG->OPT[k++] = dhcpT1value;
 525:ioLibrary_Driver-master/Internet/DHCP/dhcp.c **** 	pDHCPMSG->OPT[k++] = dhcpT2value;
 526:ioLibrary_Driver-master/Internet/DHCP/dhcp.c **** 	pDHCPMSG->OPT[k++] = performRouterDiscovery;
 527:ioLibrary_Driver-master/Internet/DHCP/dhcp.c **** 	pDHCPMSG->OPT[k++] = staticRoute;
 528:ioLibrary_Driver-master/Internet/DHCP/dhcp.c **** 	pDHCPMSG->OPT[k++] = endOption;
 529:ioLibrary_Driver-master/Internet/DHCP/dhcp.c **** 
 530:ioLibrary_Driver-master/Internet/DHCP/dhcp.c **** 	for (i = k; i < OPT_SIZE; i++)
 531:ioLibrary_Driver-master/Internet/DHCP/dhcp.c **** 		pDHCPMSG->OPT[i] = 0;
 532:ioLibrary_Driver-master/Internet/DHCP/dhcp.c **** 
 533:ioLibrary_Driver-master/Internet/DHCP/dhcp.c **** #ifdef _DHCP_DEBUG_
 534:ioLibrary_Driver-master/Internet/DHCP/dhcp.c **** 	printf("> Send DHCP_REQUEST\r\n");
 535:ioLibrary_Driver-master/Internet/DHCP/dhcp.c **** #endif
 536:ioLibrary_Driver-master/Internet/DHCP/dhcp.c **** 
 537:ioLibrary_Driver-master/Internet/DHCP/dhcp.c **** 	sendto(DHCP_SOCKET, (uint8_t *)pDHCPMSG, RIP_MSG_SIZE, ip, DHCP_SERVER_PORT);
 538:ioLibrary_Driver-master/Internet/DHCP/dhcp.c **** }
 539:ioLibrary_Driver-master/Internet/DHCP/dhcp.c **** 
 540:ioLibrary_Driver-master/Internet/DHCP/dhcp.c **** /* SEND DHCP DHCPDECLINE */
 541:ioLibrary_Driver-master/Internet/DHCP/dhcp.c **** void send_DHCP_DECLINE(void)
 542:ioLibrary_Driver-master/Internet/DHCP/dhcp.c **** {
 508              		.loc 1 542 1 is_stmt 1 view -0
 509              		.cfi_startproc
 510              		@ args = 0, pretend = 0, frame = 8
 511              		@ frame_needed = 0, uses_anonymous_args = 0
 512 0000 00B5     		push	{lr}
 513              	.LCFI8:
 514              		.cfi_def_cfa_offset 4
 515              		.cfi_offset 14, -4
 516 0002 85B0     		sub	sp, sp, #20
 517              	.LCFI9:
 518              		.cfi_def_cfa_offset 24
 543:ioLibrary_Driver-master/Internet/DHCP/dhcp.c **** 	int i;
 519              		.loc 1 543 2 view .LVU158
 544:ioLibrary_Driver-master/Internet/DHCP/dhcp.c **** 	uint8_t ip[4];
 520              		.loc 1 544 2 view .LVU159
 545:ioLibrary_Driver-master/Internet/DHCP/dhcp.c **** 	uint16_t k = 0;
 521              		.loc 1 545 2 view .LVU160
 522              	.LVL29:
 546:ioLibrary_Driver-master/Internet/DHCP/dhcp.c **** 
 547:ioLibrary_Driver-master/Internet/DHCP/dhcp.c **** 	makeDHCPMSG();
 523              		.loc 1 547 2 view .LVU161
 524 0004 FFF7FEFF 		bl	makeDHCPMSG
 525              	.LVL30:
 548:ioLibrary_Driver-master/Internet/DHCP/dhcp.c **** 
 549:ioLibrary_Driver-master/Internet/DHCP/dhcp.c **** 	k = 4; // because MAGIC_COOKIE already made by makeDHCPMSG()
 526              		.loc 1 549 2 view .LVU162
 550:ioLibrary_Driver-master/Internet/DHCP/dhcp.c **** 
 551:ioLibrary_Driver-master/Internet/DHCP/dhcp.c **** 	*((uint8_t *)(&pDHCPMSG->flags)) = ((DHCP_FLAGSUNICAST & 0xFF00) >> 8);
 527              		.loc 1 551 2 view .LVU163
 528              		.loc 1 551 25 is_stmt 0 view .LVU164
 529 0008 374B     		ldr	r3, .L34
 530 000a 1968     		ldr	r1, [r3]
 531              		.loc 1 551 35 view .LVU165
 532 000c 0023     		movs	r3, #0
 533 000e 8B72     		strb	r3, [r1, #10]
 552:ioLibrary_Driver-master/Internet/DHCP/dhcp.c **** 	*((uint8_t *)(&pDHCPMSG->flags) + 1) = (DHCP_FLAGSUNICAST & 0x00FF);
ARM GAS  C:\Users\VIDCOM~1\AppData\Local\Temp\cc9naxsX.s 			page 20


 534              		.loc 1 552 2 is_stmt 1 view .LVU166
 535              		.loc 1 552 39 is_stmt 0 view .LVU167
 536 0010 CB72     		strb	r3, [r1, #11]
 553:ioLibrary_Driver-master/Internet/DHCP/dhcp.c **** 
 554:ioLibrary_Driver-master/Internet/DHCP/dhcp.c **** 	// Option Request Param.
 555:ioLibrary_Driver-master/Internet/DHCP/dhcp.c **** 	pDHCPMSG->OPT[k++] = dhcpMessageType;
 537              		.loc 1 555 2 is_stmt 1 view .LVU168
 538              	.LVL31:
 539              		.loc 1 555 21 is_stmt 0 view .LVU169
 540 0012 3523     		movs	r3, #53
 541 0014 81F8F030 		strb	r3, [r1, #240]
 556:ioLibrary_Driver-master/Internet/DHCP/dhcp.c **** 	pDHCPMSG->OPT[k++] = 0x01;
 542              		.loc 1 556 2 is_stmt 1 view .LVU170
 543              	.LVL32:
 544              		.loc 1 556 21 is_stmt 0 view .LVU171
 545 0018 0123     		movs	r3, #1
 546 001a 81F8F130 		strb	r3, [r1, #241]
 557:ioLibrary_Driver-master/Internet/DHCP/dhcp.c **** 	pDHCPMSG->OPT[k++] = DHCP_DECLINE;
 547              		.loc 1 557 2 is_stmt 1 view .LVU172
 548              	.LVL33:
 549              		.loc 1 557 21 is_stmt 0 view .LVU173
 550 001e 0422     		movs	r2, #4
 551 0020 81F8F220 		strb	r2, [r1, #242]
 558:ioLibrary_Driver-master/Internet/DHCP/dhcp.c **** 
 559:ioLibrary_Driver-master/Internet/DHCP/dhcp.c **** 	pDHCPMSG->OPT[k++] = dhcpClientIdentifier;
 552              		.loc 1 559 2 is_stmt 1 view .LVU174
 553              	.LVL34:
 554              		.loc 1 559 21 is_stmt 0 view .LVU175
 555 0024 3D20     		movs	r0, #61
 556 0026 81F8F300 		strb	r0, [r1, #243]
 560:ioLibrary_Driver-master/Internet/DHCP/dhcp.c **** 	pDHCPMSG->OPT[k++] = 0x07;
 557              		.loc 1 560 2 is_stmt 1 view .LVU176
 558              	.LVL35:
 559              		.loc 1 560 21 is_stmt 0 view .LVU177
 560 002a 0720     		movs	r0, #7
 561 002c 81F8F400 		strb	r0, [r1, #244]
 561:ioLibrary_Driver-master/Internet/DHCP/dhcp.c **** 	pDHCPMSG->OPT[k++] = 0x01;
 562              		.loc 1 561 2 is_stmt 1 view .LVU178
 563              	.LVL36:
 564              		.loc 1 561 21 is_stmt 0 view .LVU179
 565 0030 81F8F530 		strb	r3, [r1, #245]
 562:ioLibrary_Driver-master/Internet/DHCP/dhcp.c **** 	pDHCPMSG->OPT[k++] = DHCP_CHADDR[0];
 566              		.loc 1 562 2 is_stmt 1 view .LVU180
 567              	.LVL37:
 568              		.loc 1 562 34 is_stmt 0 view .LVU181
 569 0034 2D4B     		ldr	r3, .L34+4
 570 0036 1878     		ldrb	r0, [r3]	@ zero_extendqisi2
 571              		.loc 1 562 21 view .LVU182
 572 0038 81F8F600 		strb	r0, [r1, #246]
 563:ioLibrary_Driver-master/Internet/DHCP/dhcp.c **** 	pDHCPMSG->OPT[k++] = DHCP_CHADDR[1];
 573              		.loc 1 563 2 is_stmt 1 view .LVU183
 574              	.LVL38:
 575              		.loc 1 563 34 is_stmt 0 view .LVU184
 576 003c 5878     		ldrb	r0, [r3, #1]	@ zero_extendqisi2
 577              		.loc 1 563 21 view .LVU185
 578 003e 81F8F700 		strb	r0, [r1, #247]
 564:ioLibrary_Driver-master/Internet/DHCP/dhcp.c **** 	pDHCPMSG->OPT[k++] = DHCP_CHADDR[2];
ARM GAS  C:\Users\VIDCOM~1\AppData\Local\Temp\cc9naxsX.s 			page 21


 579              		.loc 1 564 2 is_stmt 1 view .LVU186
 580              	.LVL39:
 581              		.loc 1 564 34 is_stmt 0 view .LVU187
 582 0042 9878     		ldrb	r0, [r3, #2]	@ zero_extendqisi2
 583              		.loc 1 564 21 view .LVU188
 584 0044 81F8F800 		strb	r0, [r1, #248]
 565:ioLibrary_Driver-master/Internet/DHCP/dhcp.c **** 	pDHCPMSG->OPT[k++] = DHCP_CHADDR[3];
 585              		.loc 1 565 2 is_stmt 1 view .LVU189
 586              	.LVL40:
 587              		.loc 1 565 34 is_stmt 0 view .LVU190
 588 0048 D878     		ldrb	r0, [r3, #3]	@ zero_extendqisi2
 589              		.loc 1 565 21 view .LVU191
 590 004a 81F8F900 		strb	r0, [r1, #249]
 566:ioLibrary_Driver-master/Internet/DHCP/dhcp.c **** 	pDHCPMSG->OPT[k++] = DHCP_CHADDR[4];
 591              		.loc 1 566 2 is_stmt 1 view .LVU192
 592              	.LVL41:
 593              		.loc 1 566 34 is_stmt 0 view .LVU193
 594 004e 1879     		ldrb	r0, [r3, #4]	@ zero_extendqisi2
 595              		.loc 1 566 21 view .LVU194
 596 0050 81F8FA00 		strb	r0, [r1, #250]
 567:ioLibrary_Driver-master/Internet/DHCP/dhcp.c **** 	pDHCPMSG->OPT[k++] = DHCP_CHADDR[5];
 597              		.loc 1 567 2 is_stmt 1 view .LVU195
 598              	.LVL42:
 599              		.loc 1 567 34 is_stmt 0 view .LVU196
 600 0054 5B79     		ldrb	r3, [r3, #5]	@ zero_extendqisi2
 601              		.loc 1 567 21 view .LVU197
 602 0056 81F8FB30 		strb	r3, [r1, #251]
 568:ioLibrary_Driver-master/Internet/DHCP/dhcp.c **** 
 569:ioLibrary_Driver-master/Internet/DHCP/dhcp.c **** 	pDHCPMSG->OPT[k++] = dhcpRequestedIPaddr;
 603              		.loc 1 569 2 is_stmt 1 view .LVU198
 604              	.LVL43:
 605              		.loc 1 569 21 is_stmt 0 view .LVU199
 606 005a 3223     		movs	r3, #50
 607 005c 81F8FC30 		strb	r3, [r1, #252]
 570:ioLibrary_Driver-master/Internet/DHCP/dhcp.c **** 	pDHCPMSG->OPT[k++] = 0x04;
 608              		.loc 1 570 2 is_stmt 1 view .LVU200
 609              	.LVL44:
 610              		.loc 1 570 21 is_stmt 0 view .LVU201
 611 0060 81F8FD20 		strb	r2, [r1, #253]
 571:ioLibrary_Driver-master/Internet/DHCP/dhcp.c **** 	pDHCPMSG->OPT[k++] = DHCP_allocated_ip[0];
 612              		.loc 1 571 2 is_stmt 1 view .LVU202
 613              	.LVL45:
 614              		.loc 1 571 40 is_stmt 0 view .LVU203
 615 0064 224B     		ldr	r3, .L34+8
 616 0066 1878     		ldrb	r0, [r3]	@ zero_extendqisi2
 617              		.loc 1 571 21 view .LVU204
 618 0068 81F8FE00 		strb	r0, [r1, #254]
 572:ioLibrary_Driver-master/Internet/DHCP/dhcp.c **** 	pDHCPMSG->OPT[k++] = DHCP_allocated_ip[1];
 619              		.loc 1 572 2 is_stmt 1 view .LVU205
 620              	.LVL46:
 621              		.loc 1 572 40 is_stmt 0 view .LVU206
 622 006c 5878     		ldrb	r0, [r3, #1]	@ zero_extendqisi2
 623              		.loc 1 572 21 view .LVU207
 624 006e 81F8FF00 		strb	r0, [r1, #255]
 573:ioLibrary_Driver-master/Internet/DHCP/dhcp.c **** 	pDHCPMSG->OPT[k++] = DHCP_allocated_ip[2];
 625              		.loc 1 573 2 is_stmt 1 view .LVU208
 626              	.LVL47:
ARM GAS  C:\Users\VIDCOM~1\AppData\Local\Temp\cc9naxsX.s 			page 22


 627              		.loc 1 573 40 is_stmt 0 view .LVU209
 628 0072 9878     		ldrb	r0, [r3, #2]	@ zero_extendqisi2
 629              		.loc 1 573 21 view .LVU210
 630 0074 81F80001 		strb	r0, [r1, #256]
 574:ioLibrary_Driver-master/Internet/DHCP/dhcp.c **** 	pDHCPMSG->OPT[k++] = DHCP_allocated_ip[3];
 631              		.loc 1 574 2 is_stmt 1 view .LVU211
 632              	.LVL48:
 633              		.loc 1 574 40 is_stmt 0 view .LVU212
 634 0078 DB78     		ldrb	r3, [r3, #3]	@ zero_extendqisi2
 635              		.loc 1 574 21 view .LVU213
 636 007a 81F80131 		strb	r3, [r1, #257]
 575:ioLibrary_Driver-master/Internet/DHCP/dhcp.c **** 
 576:ioLibrary_Driver-master/Internet/DHCP/dhcp.c **** 	pDHCPMSG->OPT[k++] = dhcpServerIdentifier;
 637              		.loc 1 576 2 is_stmt 1 view .LVU214
 638              	.LVL49:
 639              		.loc 1 576 21 is_stmt 0 view .LVU215
 640 007e 3623     		movs	r3, #54
 641 0080 81F80231 		strb	r3, [r1, #258]
 577:ioLibrary_Driver-master/Internet/DHCP/dhcp.c **** 	pDHCPMSG->OPT[k++] = 0x04;
 642              		.loc 1 577 2 is_stmt 1 view .LVU216
 643              	.LVL50:
 644              		.loc 1 577 21 is_stmt 0 view .LVU217
 645 0084 81F80321 		strb	r2, [r1, #259]
 578:ioLibrary_Driver-master/Internet/DHCP/dhcp.c **** 	pDHCPMSG->OPT[k++] = DHCP_SIP[0];
 646              		.loc 1 578 2 is_stmt 1 view .LVU218
 647              	.LVL51:
 648              		.loc 1 578 31 is_stmt 0 view .LVU219
 649 0088 1A4B     		ldr	r3, .L34+12
 650 008a 1A78     		ldrb	r2, [r3]	@ zero_extendqisi2
 651              		.loc 1 578 21 view .LVU220
 652 008c 81F80421 		strb	r2, [r1, #260]
 579:ioLibrary_Driver-master/Internet/DHCP/dhcp.c **** 	pDHCPMSG->OPT[k++] = DHCP_SIP[1];
 653              		.loc 1 579 2 is_stmt 1 view .LVU221
 654              	.LVL52:
 655              		.loc 1 579 31 is_stmt 0 view .LVU222
 656 0090 5A78     		ldrb	r2, [r3, #1]	@ zero_extendqisi2
 657              		.loc 1 579 21 view .LVU223
 658 0092 81F80521 		strb	r2, [r1, #261]
 580:ioLibrary_Driver-master/Internet/DHCP/dhcp.c **** 	pDHCPMSG->OPT[k++] = DHCP_SIP[2];
 659              		.loc 1 580 2 is_stmt 1 view .LVU224
 660              	.LVL53:
 661              		.loc 1 580 31 is_stmt 0 view .LVU225
 662 0096 9A78     		ldrb	r2, [r3, #2]	@ zero_extendqisi2
 663              		.loc 1 580 21 view .LVU226
 664 0098 81F80621 		strb	r2, [r1, #262]
 581:ioLibrary_Driver-master/Internet/DHCP/dhcp.c **** 	pDHCPMSG->OPT[k++] = DHCP_SIP[3];
 665              		.loc 1 581 2 is_stmt 1 view .LVU227
 666              	.LVL54:
 667              		.loc 1 581 31 is_stmt 0 view .LVU228
 668 009c DB78     		ldrb	r3, [r3, #3]	@ zero_extendqisi2
 669              		.loc 1 581 21 view .LVU229
 670 009e 81F80731 		strb	r3, [r1, #263]
 582:ioLibrary_Driver-master/Internet/DHCP/dhcp.c **** 
 583:ioLibrary_Driver-master/Internet/DHCP/dhcp.c **** 	pDHCPMSG->OPT[k++] = endOption;
 671              		.loc 1 583 2 is_stmt 1 view .LVU230
 672              	.LVL55:
 673              		.loc 1 583 21 is_stmt 0 view .LVU231
ARM GAS  C:\Users\VIDCOM~1\AppData\Local\Temp\cc9naxsX.s 			page 23


 674 00a2 FF23     		movs	r3, #255
 675 00a4 81F80831 		strb	r3, [r1, #264]
 584:ioLibrary_Driver-master/Internet/DHCP/dhcp.c **** 
 585:ioLibrary_Driver-master/Internet/DHCP/dhcp.c **** 	for (i = k; i < OPT_SIZE; i++)
 676              		.loc 1 585 2 is_stmt 1 view .LVU232
 677              	.LVL56:
 678              		.loc 1 585 9 is_stmt 0 view .LVU233
 679 00a8 1D23     		movs	r3, #29
 680              		.loc 1 585 2 view .LVU234
 681 00aa 04E0     		b	.L31
 682              	.LVL57:
 683              	.L32:
 586:ioLibrary_Driver-master/Internet/DHCP/dhcp.c **** 		pDHCPMSG->OPT[i] = 0;
 684              		.loc 1 586 3 is_stmt 1 discriminator 3 view .LVU235
 685              		.loc 1 586 20 is_stmt 0 discriminator 3 view .LVU236
 686 00ac CA18     		adds	r2, r1, r3
 687 00ae 0020     		movs	r0, #0
 688 00b0 82F8EC00 		strb	r0, [r2, #236]
 585:ioLibrary_Driver-master/Internet/DHCP/dhcp.c **** 		pDHCPMSG->OPT[i] = 0;
 689              		.loc 1 585 29 is_stmt 1 discriminator 3 view .LVU237
 690 00b4 0133     		adds	r3, r3, #1
 691              	.LVL58:
 692              	.L31:
 585:ioLibrary_Driver-master/Internet/DHCP/dhcp.c **** 		pDHCPMSG->OPT[i] = 0;
 693              		.loc 1 585 16 discriminator 1 view .LVU238
 694 00b6 B3F59C7F 		cmp	r3, #312
 695 00ba F7DB     		blt	.L32
 587:ioLibrary_Driver-master/Internet/DHCP/dhcp.c **** 
 588:ioLibrary_Driver-master/Internet/DHCP/dhcp.c **** 	// send broadcasting packet
 589:ioLibrary_Driver-master/Internet/DHCP/dhcp.c **** 	ip[0] = 0xFF;
 696              		.loc 1 589 2 view .LVU239
 697              		.loc 1 589 8 is_stmt 0 view .LVU240
 698 00bc FF23     		movs	r3, #255
 699              	.LVL59:
 700              		.loc 1 589 8 view .LVU241
 701 00be 8DF80C30 		strb	r3, [sp, #12]
 590:ioLibrary_Driver-master/Internet/DHCP/dhcp.c **** 	ip[1] = 0xFF;
 702              		.loc 1 590 2 is_stmt 1 view .LVU242
 703              		.loc 1 590 8 is_stmt 0 view .LVU243
 704 00c2 8DF80D30 		strb	r3, [sp, #13]
 591:ioLibrary_Driver-master/Internet/DHCP/dhcp.c **** 	ip[2] = 0xFF;
 705              		.loc 1 591 2 is_stmt 1 view .LVU244
 706              		.loc 1 591 8 is_stmt 0 view .LVU245
 707 00c6 8DF80E30 		strb	r3, [sp, #14]
 592:ioLibrary_Driver-master/Internet/DHCP/dhcp.c **** 	ip[3] = 0xFF;
 708              		.loc 1 592 2 is_stmt 1 view .LVU246
 709              		.loc 1 592 8 is_stmt 0 view .LVU247
 710 00ca 8DF80F30 		strb	r3, [sp, #15]
 593:ioLibrary_Driver-master/Internet/DHCP/dhcp.c **** 
 594:ioLibrary_Driver-master/Internet/DHCP/dhcp.c **** #ifdef _DHCP_DEBUG_
 595:ioLibrary_Driver-master/Internet/DHCP/dhcp.c **** 	printf("\r\n> Send DHCP_DECLINE\r\n");
 596:ioLibrary_Driver-master/Internet/DHCP/dhcp.c **** #endif
 597:ioLibrary_Driver-master/Internet/DHCP/dhcp.c **** 
 598:ioLibrary_Driver-master/Internet/DHCP/dhcp.c **** 	sendto(DHCP_SOCKET, (uint8_t *)pDHCPMSG, RIP_MSG_SIZE, ip, DHCP_SERVER_PORT);
 711              		.loc 1 598 2 is_stmt 1 view .LVU248
 712 00ce 4323     		movs	r3, #67
 713 00d0 0093     		str	r3, [sp]
ARM GAS  C:\Users\VIDCOM~1\AppData\Local\Temp\cc9naxsX.s 			page 24


 714 00d2 03AB     		add	r3, sp, #12
 715 00d4 4FF40972 		mov	r2, #548
 716 00d8 0748     		ldr	r0, .L34+16
 717 00da 0078     		ldrb	r0, [r0]	@ zero_extendqisi2
 718 00dc FFF7FEFF 		bl	sendto
 719              	.LVL60:
 599:ioLibrary_Driver-master/Internet/DHCP/dhcp.c **** }
 720              		.loc 1 599 1 is_stmt 0 view .LVU249
 721 00e0 05B0     		add	sp, sp, #20
 722              	.LCFI10:
 723              		.cfi_def_cfa_offset 4
 724              		@ sp needed
 725 00e2 5DF804FB 		ldr	pc, [sp], #4
 726              	.L35:
 727 00e6 00BF     		.align	2
 728              	.L34:
 729 00e8 00000000 		.word	pDHCPMSG
 730 00ec 00000000 		.word	DHCP_CHADDR
 731 00f0 00000000 		.word	DHCP_allocated_ip
 732 00f4 00000000 		.word	DHCP_SIP
 733 00f8 00000000 		.word	DHCP_SOCKET
 734              		.cfi_endproc
 735              	.LFE7:
 737              		.section	.text.parseDHCPMSG,"ax",%progbits
 738              		.align	1
 739              		.global	parseDHCPMSG
 740              		.syntax unified
 741              		.thumb
 742              		.thumb_func
 744              	parseDHCPMSG:
 745              	.LFB8:
 600:ioLibrary_Driver-master/Internet/DHCP/dhcp.c **** 
 601:ioLibrary_Driver-master/Internet/DHCP/dhcp.c **** /* PARSE REPLY pDHCPMSG */
 602:ioLibrary_Driver-master/Internet/DHCP/dhcp.c **** int8_t parseDHCPMSG(void)
 603:ioLibrary_Driver-master/Internet/DHCP/dhcp.c **** {
 746              		.loc 1 603 1 is_stmt 1 view -0
 747              		.cfi_startproc
 748              		@ args = 0, pretend = 0, frame = 16
 749              		@ frame_needed = 0, uses_anonymous_args = 0
 750 0000 10B5     		push	{r4, lr}
 751              	.LCFI11:
 752              		.cfi_def_cfa_offset 8
 753              		.cfi_offset 4, -8
 754              		.cfi_offset 14, -4
 755 0002 86B0     		sub	sp, sp, #24
 756              	.LCFI12:
 757              		.cfi_def_cfa_offset 32
 604:ioLibrary_Driver-master/Internet/DHCP/dhcp.c **** 	uint8_t svr_addr[6];
 758              		.loc 1 604 2 view .LVU251
 605:ioLibrary_Driver-master/Internet/DHCP/dhcp.c **** 	uint16_t svr_port;
 759              		.loc 1 605 2 view .LVU252
 606:ioLibrary_Driver-master/Internet/DHCP/dhcp.c **** 	uint16_t len;
 760              		.loc 1 606 2 view .LVU253
 607:ioLibrary_Driver-master/Internet/DHCP/dhcp.c **** 
 608:ioLibrary_Driver-master/Internet/DHCP/dhcp.c **** 	uint8_t *p;
 761              		.loc 1 608 2 view .LVU254
 609:ioLibrary_Driver-master/Internet/DHCP/dhcp.c **** 	uint8_t *e;
ARM GAS  C:\Users\VIDCOM~1\AppData\Local\Temp\cc9naxsX.s 			page 25


 762              		.loc 1 609 2 view .LVU255
 610:ioLibrary_Driver-master/Internet/DHCP/dhcp.c **** 	uint8_t type = 0;
 763              		.loc 1 610 2 view .LVU256
 764              	.LVL61:
 611:ioLibrary_Driver-master/Internet/DHCP/dhcp.c **** 	uint8_t opt_len;
 765              		.loc 1 611 2 view .LVU257
 612:ioLibrary_Driver-master/Internet/DHCP/dhcp.c **** 
 613:ioLibrary_Driver-master/Internet/DHCP/dhcp.c **** 	if ((len = getSn_RX_RSR(DHCP_SOCKET)) > 0)
 766              		.loc 1 613 2 view .LVU258
 767              		.loc 1 613 13 is_stmt 0 view .LVU259
 768 0004 9A4B     		ldr	r3, .L74
 769 0006 1878     		ldrb	r0, [r3]	@ zero_extendqisi2
 770 0008 FFF7FEFF 		bl	getSn_RX_RSR
 771              	.LVL62:
 772              		.loc 1 613 5 view .LVU260
 773 000c 10B9     		cbnz	r0, .L71
 614:ioLibrary_Driver-master/Internet/DHCP/dhcp.c **** 	{
 615:ioLibrary_Driver-master/Internet/DHCP/dhcp.c **** 		len = recvfrom(DHCP_SOCKET, (uint8_t *)pDHCPMSG, len, svr_addr, &svr_port);
 616:ioLibrary_Driver-master/Internet/DHCP/dhcp.c **** #ifdef _DHCP_DEBUG_
 617:ioLibrary_Driver-master/Internet/DHCP/dhcp.c **** 		printf("DHCP message : %d.%d.%d.%d(%d) %d received. \r\n", svr_addr[0], svr_addr[1], svr_addr[2],
 618:ioLibrary_Driver-master/Internet/DHCP/dhcp.c **** #endif
 619:ioLibrary_Driver-master/Internet/DHCP/dhcp.c **** 	}
 620:ioLibrary_Driver-master/Internet/DHCP/dhcp.c **** 	else
 621:ioLibrary_Driver-master/Internet/DHCP/dhcp.c **** 		return 0;
 774              		.loc 1 621 10 view .LVU261
 775 000e 0020     		movs	r0, #0
 776              	.LVL63:
 777              	.L37:
 622:ioLibrary_Driver-master/Internet/DHCP/dhcp.c **** 	if (svr_port == DHCP_SERVER_PORT)
 623:ioLibrary_Driver-master/Internet/DHCP/dhcp.c **** 	{
 624:ioLibrary_Driver-master/Internet/DHCP/dhcp.c **** 		// compare mac address
 625:ioLibrary_Driver-master/Internet/DHCP/dhcp.c **** 		if ((pDHCPMSG->chaddr[0] != DHCP_CHADDR[0]) || (pDHCPMSG->chaddr[1] != DHCP_CHADDR[1]) ||
 626:ioLibrary_Driver-master/Internet/DHCP/dhcp.c **** 			(pDHCPMSG->chaddr[2] != DHCP_CHADDR[2]) || (pDHCPMSG->chaddr[3] != DHCP_CHADDR[3]) ||
 627:ioLibrary_Driver-master/Internet/DHCP/dhcp.c **** 			(pDHCPMSG->chaddr[4] != DHCP_CHADDR[4]) || (pDHCPMSG->chaddr[5] != DHCP_CHADDR[5]))
 628:ioLibrary_Driver-master/Internet/DHCP/dhcp.c **** 		{
 629:ioLibrary_Driver-master/Internet/DHCP/dhcp.c **** #ifdef _DHCP_DEBUG_
 630:ioLibrary_Driver-master/Internet/DHCP/dhcp.c **** 			printf("No My DHCP Message. This message is ignored.\r\n");
 631:ioLibrary_Driver-master/Internet/DHCP/dhcp.c **** #endif
 632:ioLibrary_Driver-master/Internet/DHCP/dhcp.c **** 			return 0;
 633:ioLibrary_Driver-master/Internet/DHCP/dhcp.c **** 		}
 634:ioLibrary_Driver-master/Internet/DHCP/dhcp.c **** 		// compare DHCP server ip address
 635:ioLibrary_Driver-master/Internet/DHCP/dhcp.c **** 		if ((DHCP_SIP[0] != 0) || (DHCP_SIP[1] != 0) || (DHCP_SIP[2] != 0) || (DHCP_SIP[3] != 0))
 636:ioLibrary_Driver-master/Internet/DHCP/dhcp.c **** 		{
 637:ioLibrary_Driver-master/Internet/DHCP/dhcp.c **** 			if (((svr_addr[0] != DHCP_SIP[0]) || (svr_addr[1] != DHCP_SIP[1]) || (svr_addr[2] != DHCP_SIP[2]
 638:ioLibrary_Driver-master/Internet/DHCP/dhcp.c **** 				((svr_addr[0] != DHCP_REAL_SIP[0]) || (svr_addr[1] != DHCP_REAL_SIP[1]) || (svr_addr[2] != DHCP
 639:ioLibrary_Driver-master/Internet/DHCP/dhcp.c **** 			{
 640:ioLibrary_Driver-master/Internet/DHCP/dhcp.c **** #ifdef _DHCP_DEBUG_
 641:ioLibrary_Driver-master/Internet/DHCP/dhcp.c **** 				printf("Another DHCP sever send a response message. This is ignored.\r\n");
 642:ioLibrary_Driver-master/Internet/DHCP/dhcp.c **** #endif
 643:ioLibrary_Driver-master/Internet/DHCP/dhcp.c **** 				return 0;
 644:ioLibrary_Driver-master/Internet/DHCP/dhcp.c **** 			}
 645:ioLibrary_Driver-master/Internet/DHCP/dhcp.c **** 		}
 646:ioLibrary_Driver-master/Internet/DHCP/dhcp.c **** 		p = (uint8_t *)(&pDHCPMSG->op);
 647:ioLibrary_Driver-master/Internet/DHCP/dhcp.c **** 		p = p + 240; // 240 = sizeof(RIP_MSG) + MAGIC_COOKIE size in RIP_MSG.opt - sizeof(RIP_MSG.opt)
 648:ioLibrary_Driver-master/Internet/DHCP/dhcp.c **** 		e = p + (len - 240);
 649:ioLibrary_Driver-master/Internet/DHCP/dhcp.c **** 
 650:ioLibrary_Driver-master/Internet/DHCP/dhcp.c **** 		while (p < e)
ARM GAS  C:\Users\VIDCOM~1\AppData\Local\Temp\cc9naxsX.s 			page 26


 651:ioLibrary_Driver-master/Internet/DHCP/dhcp.c **** 		{
 652:ioLibrary_Driver-master/Internet/DHCP/dhcp.c **** 
 653:ioLibrary_Driver-master/Internet/DHCP/dhcp.c **** 			switch (*p)
 654:ioLibrary_Driver-master/Internet/DHCP/dhcp.c **** 			{
 655:ioLibrary_Driver-master/Internet/DHCP/dhcp.c **** 
 656:ioLibrary_Driver-master/Internet/DHCP/dhcp.c **** 			case endOption:
 657:ioLibrary_Driver-master/Internet/DHCP/dhcp.c **** 				p = e; // for break while(p < e)
 658:ioLibrary_Driver-master/Internet/DHCP/dhcp.c **** 				break;
 659:ioLibrary_Driver-master/Internet/DHCP/dhcp.c **** 			case padOption:
 660:ioLibrary_Driver-master/Internet/DHCP/dhcp.c **** 				p++;
 661:ioLibrary_Driver-master/Internet/DHCP/dhcp.c **** 				break;
 662:ioLibrary_Driver-master/Internet/DHCP/dhcp.c **** 			case dhcpMessageType:
 663:ioLibrary_Driver-master/Internet/DHCP/dhcp.c **** 				p++;
 664:ioLibrary_Driver-master/Internet/DHCP/dhcp.c **** 				p++;
 665:ioLibrary_Driver-master/Internet/DHCP/dhcp.c **** 				type = *p++;
 666:ioLibrary_Driver-master/Internet/DHCP/dhcp.c **** 				break;
 667:ioLibrary_Driver-master/Internet/DHCP/dhcp.c **** 			case subnetMask:
 668:ioLibrary_Driver-master/Internet/DHCP/dhcp.c **** 				p++;
 669:ioLibrary_Driver-master/Internet/DHCP/dhcp.c **** 				p++;
 670:ioLibrary_Driver-master/Internet/DHCP/dhcp.c **** 				DHCP_allocated_sn[0] = *p++;
 671:ioLibrary_Driver-master/Internet/DHCP/dhcp.c **** 				DHCP_allocated_sn[1] = *p++;
 672:ioLibrary_Driver-master/Internet/DHCP/dhcp.c **** 				DHCP_allocated_sn[2] = *p++;
 673:ioLibrary_Driver-master/Internet/DHCP/dhcp.c **** 				DHCP_allocated_sn[3] = *p++;
 674:ioLibrary_Driver-master/Internet/DHCP/dhcp.c **** 				break;
 675:ioLibrary_Driver-master/Internet/DHCP/dhcp.c **** 			case routersOnSubnet:
 676:ioLibrary_Driver-master/Internet/DHCP/dhcp.c **** 				p++;
 677:ioLibrary_Driver-master/Internet/DHCP/dhcp.c **** 				opt_len = *p++;
 678:ioLibrary_Driver-master/Internet/DHCP/dhcp.c **** 				DHCP_allocated_gw[0] = *p++;
 679:ioLibrary_Driver-master/Internet/DHCP/dhcp.c **** 				DHCP_allocated_gw[1] = *p++;
 680:ioLibrary_Driver-master/Internet/DHCP/dhcp.c **** 				DHCP_allocated_gw[2] = *p++;
 681:ioLibrary_Driver-master/Internet/DHCP/dhcp.c **** 				DHCP_allocated_gw[3] = *p++;
 682:ioLibrary_Driver-master/Internet/DHCP/dhcp.c **** 				p = p + (opt_len - 4);
 683:ioLibrary_Driver-master/Internet/DHCP/dhcp.c **** 				break;
 684:ioLibrary_Driver-master/Internet/DHCP/dhcp.c **** 			case dns:
 685:ioLibrary_Driver-master/Internet/DHCP/dhcp.c **** 				p++;
 686:ioLibrary_Driver-master/Internet/DHCP/dhcp.c **** 				opt_len = *p++;
 687:ioLibrary_Driver-master/Internet/DHCP/dhcp.c **** 				DHCP_allocated_dns[0] = *p++;
 688:ioLibrary_Driver-master/Internet/DHCP/dhcp.c **** 				DHCP_allocated_dns[1] = *p++;
 689:ioLibrary_Driver-master/Internet/DHCP/dhcp.c **** 				DHCP_allocated_dns[2] = *p++;
 690:ioLibrary_Driver-master/Internet/DHCP/dhcp.c **** 				DHCP_allocated_dns[3] = *p++;
 691:ioLibrary_Driver-master/Internet/DHCP/dhcp.c **** 				p = p + (opt_len - 4);
 692:ioLibrary_Driver-master/Internet/DHCP/dhcp.c **** 				break;
 693:ioLibrary_Driver-master/Internet/DHCP/dhcp.c **** 			case dhcpIPaddrLeaseTime:
 694:ioLibrary_Driver-master/Internet/DHCP/dhcp.c **** 				p++;
 695:ioLibrary_Driver-master/Internet/DHCP/dhcp.c **** 				opt_len = *p++;
 696:ioLibrary_Driver-master/Internet/DHCP/dhcp.c **** 				dhcp_lease_time = *p++;
 697:ioLibrary_Driver-master/Internet/DHCP/dhcp.c **** 				dhcp_lease_time = (dhcp_lease_time << 8) + *p++;
 698:ioLibrary_Driver-master/Internet/DHCP/dhcp.c **** 				dhcp_lease_time = (dhcp_lease_time << 8) + *p++;
 699:ioLibrary_Driver-master/Internet/DHCP/dhcp.c **** 				dhcp_lease_time = (dhcp_lease_time << 8) + *p++;
 700:ioLibrary_Driver-master/Internet/DHCP/dhcp.c **** #ifdef _DHCP_DEBUG_
 701:ioLibrary_Driver-master/Internet/DHCP/dhcp.c **** 				dhcp_lease_time = 10;
 702:ioLibrary_Driver-master/Internet/DHCP/dhcp.c **** #endif
 703:ioLibrary_Driver-master/Internet/DHCP/dhcp.c **** 				break;
 704:ioLibrary_Driver-master/Internet/DHCP/dhcp.c **** 			case dhcpServerIdentifier:
 705:ioLibrary_Driver-master/Internet/DHCP/dhcp.c **** 				p++;
 706:ioLibrary_Driver-master/Internet/DHCP/dhcp.c **** 				opt_len = *p++;
 707:ioLibrary_Driver-master/Internet/DHCP/dhcp.c **** 				DHCP_SIP[0] = *p++;
ARM GAS  C:\Users\VIDCOM~1\AppData\Local\Temp\cc9naxsX.s 			page 27


 708:ioLibrary_Driver-master/Internet/DHCP/dhcp.c **** 				DHCP_SIP[1] = *p++;
 709:ioLibrary_Driver-master/Internet/DHCP/dhcp.c **** 				DHCP_SIP[2] = *p++;
 710:ioLibrary_Driver-master/Internet/DHCP/dhcp.c **** 				DHCP_SIP[3] = *p++;
 711:ioLibrary_Driver-master/Internet/DHCP/dhcp.c **** 				DHCP_REAL_SIP[0] = svr_addr[0];
 712:ioLibrary_Driver-master/Internet/DHCP/dhcp.c **** 				DHCP_REAL_SIP[1] = svr_addr[1];
 713:ioLibrary_Driver-master/Internet/DHCP/dhcp.c **** 				DHCP_REAL_SIP[2] = svr_addr[2];
 714:ioLibrary_Driver-master/Internet/DHCP/dhcp.c **** 				DHCP_REAL_SIP[3] = svr_addr[3];
 715:ioLibrary_Driver-master/Internet/DHCP/dhcp.c **** 				break;
 716:ioLibrary_Driver-master/Internet/DHCP/dhcp.c **** 			default:
 717:ioLibrary_Driver-master/Internet/DHCP/dhcp.c **** 				p++;
 718:ioLibrary_Driver-master/Internet/DHCP/dhcp.c **** 				opt_len = *p++;
 719:ioLibrary_Driver-master/Internet/DHCP/dhcp.c **** 				p += opt_len;
 720:ioLibrary_Driver-master/Internet/DHCP/dhcp.c **** 				break;
 721:ioLibrary_Driver-master/Internet/DHCP/dhcp.c **** 			} // switch
 722:ioLibrary_Driver-master/Internet/DHCP/dhcp.c **** 		}	  // while
 723:ioLibrary_Driver-master/Internet/DHCP/dhcp.c **** 	}		  // if
 724:ioLibrary_Driver-master/Internet/DHCP/dhcp.c **** 	return type;
 725:ioLibrary_Driver-master/Internet/DHCP/dhcp.c **** }
 778              		.loc 1 725 1 view .LVU262
 779 0010 06B0     		add	sp, sp, #24
 780              	.LCFI13:
 781              		.cfi_remember_state
 782              		.cfi_def_cfa_offset 8
 783              		@ sp needed
 784 0012 10BD     		pop	{r4, pc}
 785              	.LVL64:
 786              	.L71:
 787              	.LCFI14:
 788              		.cfi_restore_state
 789              		.loc 1 725 1 view .LVU263
 790 0014 0246     		mov	r2, r0
 615:ioLibrary_Driver-master/Internet/DHCP/dhcp.c **** #ifdef _DHCP_DEBUG_
 791              		.loc 1 615 3 is_stmt 1 view .LVU264
 615:ioLibrary_Driver-master/Internet/DHCP/dhcp.c **** #ifdef _DHCP_DEBUG_
 792              		.loc 1 615 9 is_stmt 0 view .LVU265
 793 0016 0DF10E03 		add	r3, sp, #14
 794 001a 0093     		str	r3, [sp]
 795 001c 04AB     		add	r3, sp, #16
 796 001e 9549     		ldr	r1, .L74+4
 797 0020 0968     		ldr	r1, [r1]
 798 0022 9348     		ldr	r0, .L74
 799              	.LVL65:
 615:ioLibrary_Driver-master/Internet/DHCP/dhcp.c **** #ifdef _DHCP_DEBUG_
 800              		.loc 1 615 9 view .LVU266
 801 0024 0078     		ldrb	r0, [r0]	@ zero_extendqisi2
 802 0026 FFF7FEFF 		bl	recvfrom
 803              	.LVL66:
 622:ioLibrary_Driver-master/Internet/DHCP/dhcp.c **** 	if (svr_port == DHCP_SERVER_PORT)
 804              		.loc 1 622 2 is_stmt 1 view .LVU267
 622:ioLibrary_Driver-master/Internet/DHCP/dhcp.c **** 	if (svr_port == DHCP_SERVER_PORT)
 805              		.loc 1 622 15 is_stmt 0 view .LVU268
 806 002a BDF80E30 		ldrh	r3, [sp, #14]
 622:ioLibrary_Driver-master/Internet/DHCP/dhcp.c **** 	if (svr_port == DHCP_SERVER_PORT)
 807              		.loc 1 622 5 view .LVU269
 808 002e 432B     		cmp	r3, #67
 809 0030 02D0     		beq	.L72
 610:ioLibrary_Driver-master/Internet/DHCP/dhcp.c **** 	uint8_t opt_len;
ARM GAS  C:\Users\VIDCOM~1\AppData\Local\Temp\cc9naxsX.s 			page 28


 810              		.loc 1 610 10 view .LVU270
 811 0032 0020     		movs	r0, #0
 812              	.LVL67:
 813              	.L38:
 724:ioLibrary_Driver-master/Internet/DHCP/dhcp.c **** }
 814              		.loc 1 724 2 is_stmt 1 view .LVU271
 724:ioLibrary_Driver-master/Internet/DHCP/dhcp.c **** }
 815              		.loc 1 724 9 is_stmt 0 view .LVU272
 816 0034 40B2     		sxtb	r0, r0
 724:ioLibrary_Driver-master/Internet/DHCP/dhcp.c **** }
 817              		.loc 1 724 9 view .LVU273
 818 0036 EBE7     		b	.L37
 819              	.LVL68:
 820              	.L72:
 625:ioLibrary_Driver-master/Internet/DHCP/dhcp.c **** 			(pDHCPMSG->chaddr[2] != DHCP_CHADDR[2]) || (pDHCPMSG->chaddr[3] != DHCP_CHADDR[3]) ||
 821              		.loc 1 625 3 is_stmt 1 view .LVU274
 625:ioLibrary_Driver-master/Internet/DHCP/dhcp.c **** 			(pDHCPMSG->chaddr[2] != DHCP_CHADDR[2]) || (pDHCPMSG->chaddr[3] != DHCP_CHADDR[3]) ||
 822              		.loc 1 625 16 is_stmt 0 view .LVU275
 823 0038 8E4B     		ldr	r3, .L74+4
 824 003a 1B68     		ldr	r3, [r3]
 625:ioLibrary_Driver-master/Internet/DHCP/dhcp.c **** 			(pDHCPMSG->chaddr[2] != DHCP_CHADDR[2]) || (pDHCPMSG->chaddr[3] != DHCP_CHADDR[3]) ||
 825              		.loc 1 625 24 view .LVU276
 826 003c 197F     		ldrb	r1, [r3, #28]	@ zero_extendqisi2
 625:ioLibrary_Driver-master/Internet/DHCP/dhcp.c **** 			(pDHCPMSG->chaddr[2] != DHCP_CHADDR[2]) || (pDHCPMSG->chaddr[3] != DHCP_CHADDR[3]) ||
 827              		.loc 1 625 42 view .LVU277
 828 003e 8E4A     		ldr	r2, .L74+8
 829 0040 1278     		ldrb	r2, [r2]	@ zero_extendqisi2
 625:ioLibrary_Driver-master/Internet/DHCP/dhcp.c **** 			(pDHCPMSG->chaddr[2] != DHCP_CHADDR[2]) || (pDHCPMSG->chaddr[3] != DHCP_CHADDR[3]) ||
 830              		.loc 1 625 6 view .LVU278
 831 0042 9142     		cmp	r1, r2
 832 0044 40F01181 		bne	.L58
 625:ioLibrary_Driver-master/Internet/DHCP/dhcp.c **** 			(pDHCPMSG->chaddr[2] != DHCP_CHADDR[2]) || (pDHCPMSG->chaddr[3] != DHCP_CHADDR[3]) ||
 833              		.loc 1 625 67 discriminator 1 view .LVU279
 834 0048 597F     		ldrb	r1, [r3, #29]	@ zero_extendqisi2
 625:ioLibrary_Driver-master/Internet/DHCP/dhcp.c **** 			(pDHCPMSG->chaddr[2] != DHCP_CHADDR[2]) || (pDHCPMSG->chaddr[3] != DHCP_CHADDR[3]) ||
 835              		.loc 1 625 85 discriminator 1 view .LVU280
 836 004a 8B4A     		ldr	r2, .L74+8
 837 004c 5278     		ldrb	r2, [r2, #1]	@ zero_extendqisi2
 625:ioLibrary_Driver-master/Internet/DHCP/dhcp.c **** 			(pDHCPMSG->chaddr[2] != DHCP_CHADDR[2]) || (pDHCPMSG->chaddr[3] != DHCP_CHADDR[3]) ||
 838              		.loc 1 625 47 discriminator 1 view .LVU281
 839 004e 9142     		cmp	r1, r2
 840 0050 40F02081 		bne	.L59
 626:ioLibrary_Driver-master/Internet/DHCP/dhcp.c **** 			(pDHCPMSG->chaddr[4] != DHCP_CHADDR[4]) || (pDHCPMSG->chaddr[5] != DHCP_CHADDR[5]))
 841              		.loc 1 626 21 discriminator 2 view .LVU282
 842 0054 997F     		ldrb	r1, [r3, #30]	@ zero_extendqisi2
 626:ioLibrary_Driver-master/Internet/DHCP/dhcp.c **** 			(pDHCPMSG->chaddr[4] != DHCP_CHADDR[4]) || (pDHCPMSG->chaddr[5] != DHCP_CHADDR[5]))
 843              		.loc 1 626 39 discriminator 2 view .LVU283
 844 0056 884A     		ldr	r2, .L74+8
 845 0058 9278     		ldrb	r2, [r2, #2]	@ zero_extendqisi2
 625:ioLibrary_Driver-master/Internet/DHCP/dhcp.c **** 			(pDHCPMSG->chaddr[2] != DHCP_CHADDR[2]) || (pDHCPMSG->chaddr[3] != DHCP_CHADDR[3]) ||
 846              		.loc 1 625 90 discriminator 2 view .LVU284
 847 005a 9142     		cmp	r1, r2
 848 005c 40F01C81 		bne	.L60
 626:ioLibrary_Driver-master/Internet/DHCP/dhcp.c **** 			(pDHCPMSG->chaddr[4] != DHCP_CHADDR[4]) || (pDHCPMSG->chaddr[5] != DHCP_CHADDR[5]))
 849              		.loc 1 626 64 view .LVU285
 850 0060 D97F     		ldrb	r1, [r3, #31]	@ zero_extendqisi2
 626:ioLibrary_Driver-master/Internet/DHCP/dhcp.c **** 			(pDHCPMSG->chaddr[4] != DHCP_CHADDR[4]) || (pDHCPMSG->chaddr[5] != DHCP_CHADDR[5]))
ARM GAS  C:\Users\VIDCOM~1\AppData\Local\Temp\cc9naxsX.s 			page 29


 851              		.loc 1 626 82 view .LVU286
 852 0062 854A     		ldr	r2, .L74+8
 853 0064 D278     		ldrb	r2, [r2, #3]	@ zero_extendqisi2
 626:ioLibrary_Driver-master/Internet/DHCP/dhcp.c **** 			(pDHCPMSG->chaddr[4] != DHCP_CHADDR[4]) || (pDHCPMSG->chaddr[5] != DHCP_CHADDR[5]))
 854              		.loc 1 626 44 view .LVU287
 855 0066 9142     		cmp	r1, r2
 856 0068 40F01881 		bne	.L61
 627:ioLibrary_Driver-master/Internet/DHCP/dhcp.c **** 		{
 857              		.loc 1 627 21 discriminator 1 view .LVU288
 858 006c 93F82010 		ldrb	r1, [r3, #32]	@ zero_extendqisi2
 627:ioLibrary_Driver-master/Internet/DHCP/dhcp.c **** 		{
 859              		.loc 1 627 39 discriminator 1 view .LVU289
 860 0070 814A     		ldr	r2, .L74+8
 861 0072 1279     		ldrb	r2, [r2, #4]	@ zero_extendqisi2
 626:ioLibrary_Driver-master/Internet/DHCP/dhcp.c **** 			(pDHCPMSG->chaddr[4] != DHCP_CHADDR[4]) || (pDHCPMSG->chaddr[5] != DHCP_CHADDR[5]))
 862              		.loc 1 626 87 discriminator 1 view .LVU290
 863 0074 9142     		cmp	r1, r2
 864 0076 40F01381 		bne	.L62
 627:ioLibrary_Driver-master/Internet/DHCP/dhcp.c **** 		{
 865              		.loc 1 627 64 view .LVU291
 866 007a 93F82110 		ldrb	r1, [r3, #33]	@ zero_extendqisi2
 627:ioLibrary_Driver-master/Internet/DHCP/dhcp.c **** 		{
 867              		.loc 1 627 82 view .LVU292
 868 007e 7E4A     		ldr	r2, .L74+8
 869 0080 5279     		ldrb	r2, [r2, #5]	@ zero_extendqisi2
 627:ioLibrary_Driver-master/Internet/DHCP/dhcp.c **** 		{
 870              		.loc 1 627 44 view .LVU293
 871 0082 9142     		cmp	r1, r2
 872 0084 40F00E81 		bne	.L63
 635:ioLibrary_Driver-master/Internet/DHCP/dhcp.c **** 		{
 873              		.loc 1 635 3 is_stmt 1 view .LVU294
 635:ioLibrary_Driver-master/Internet/DHCP/dhcp.c **** 		{
 874              		.loc 1 635 16 is_stmt 0 view .LVU295
 875 0088 7C4A     		ldr	r2, .L74+12
 876 008a 1178     		ldrb	r1, [r2]	@ zero_extendqisi2
 635:ioLibrary_Driver-master/Internet/DHCP/dhcp.c **** 		{
 877              		.loc 1 635 6 view .LVU296
 878 008c 39B9     		cbnz	r1, .L39
 635:ioLibrary_Driver-master/Internet/DHCP/dhcp.c **** 		{
 879              		.loc 1 635 38 discriminator 1 view .LVU297
 880 008e 5278     		ldrb	r2, [r2, #1]	@ zero_extendqisi2
 635:ioLibrary_Driver-master/Internet/DHCP/dhcp.c **** 		{
 881              		.loc 1 635 26 discriminator 1 view .LVU298
 882 0090 2AB9     		cbnz	r2, .L39
 635:ioLibrary_Driver-master/Internet/DHCP/dhcp.c **** 		{
 883              		.loc 1 635 60 discriminator 2 view .LVU299
 884 0092 7A4A     		ldr	r2, .L74+12
 885 0094 9278     		ldrb	r2, [r2, #2]	@ zero_extendqisi2
 635:ioLibrary_Driver-master/Internet/DHCP/dhcp.c **** 		{
 886              		.loc 1 635 48 discriminator 2 view .LVU300
 887 0096 12B9     		cbnz	r2, .L39
 635:ioLibrary_Driver-master/Internet/DHCP/dhcp.c **** 		{
 888              		.loc 1 635 82 discriminator 3 view .LVU301
 889 0098 784A     		ldr	r2, .L74+12
 890 009a D278     		ldrb	r2, [r2, #3]	@ zero_extendqisi2
 635:ioLibrary_Driver-master/Internet/DHCP/dhcp.c **** 		{
 891              		.loc 1 635 70 discriminator 3 view .LVU302
ARM GAS  C:\Users\VIDCOM~1\AppData\Local\Temp\cc9naxsX.s 			page 30


 892 009c EAB1     		cbz	r2, .L40
 893              	.L39:
 637:ioLibrary_Driver-master/Internet/DHCP/dhcp.c **** 				((svr_addr[0] != DHCP_REAL_SIP[0]) || (svr_addr[1] != DHCP_REAL_SIP[1]) || (svr_addr[2] != DHCP
 894              		.loc 1 637 4 is_stmt 1 view .LVU303
 637:ioLibrary_Driver-master/Internet/DHCP/dhcp.c **** 				((svr_addr[0] != DHCP_REAL_SIP[0]) || (svr_addr[1] != DHCP_REAL_SIP[1]) || (svr_addr[2] != DHCP
 895              		.loc 1 637 18 is_stmt 0 view .LVU304
 896 009e 9DF81020 		ldrb	r2, [sp, #16]	@ zero_extendqisi2
 637:ioLibrary_Driver-master/Internet/DHCP/dhcp.c **** 				((svr_addr[0] != DHCP_REAL_SIP[0]) || (svr_addr[1] != DHCP_REAL_SIP[1]) || (svr_addr[2] != DHCP
 897              		.loc 1 637 7 view .LVU305
 898 00a2 9142     		cmp	r1, r2
 899 00a4 1FD0     		beq	.L73
 900              	.L41:
 638:ioLibrary_Driver-master/Internet/DHCP/dhcp.c **** 			{
 901              		.loc 1 638 35 discriminator 7 view .LVU306
 902 00a6 7649     		ldr	r1, .L74+16
 903 00a8 0978     		ldrb	r1, [r1]	@ zero_extendqisi2
 637:ioLibrary_Driver-master/Internet/DHCP/dhcp.c **** 				((svr_addr[0] != DHCP_REAL_SIP[0]) || (svr_addr[1] != DHCP_REAL_SIP[1]) || (svr_addr[2] != DHCP
 904              		.loc 1 637 135 discriminator 7 view .LVU307
 905 00aa 8A42     		cmp	r2, r1
 906 00ac 40F0FC80 		bne	.L64
 638:ioLibrary_Driver-master/Internet/DHCP/dhcp.c **** 			{
 907              		.loc 1 638 52 view .LVU308
 908 00b0 9DF81110 		ldrb	r1, [sp, #17]	@ zero_extendqisi2
 638:ioLibrary_Driver-master/Internet/DHCP/dhcp.c **** 			{
 909              		.loc 1 638 72 view .LVU309
 910 00b4 724A     		ldr	r2, .L74+16
 911 00b6 5278     		ldrb	r2, [r2, #1]	@ zero_extendqisi2
 638:ioLibrary_Driver-master/Internet/DHCP/dhcp.c **** 			{
 912              		.loc 1 638 40 view .LVU310
 913 00b8 9142     		cmp	r1, r2
 914 00ba 40F0F780 		bne	.L65
 638:ioLibrary_Driver-master/Internet/DHCP/dhcp.c **** 			{
 915              		.loc 1 638 89 discriminator 1 view .LVU311
 916 00be 9DF81210 		ldrb	r1, [sp, #18]	@ zero_extendqisi2
 638:ioLibrary_Driver-master/Internet/DHCP/dhcp.c **** 			{
 917              		.loc 1 638 109 discriminator 1 view .LVU312
 918 00c2 6F4A     		ldr	r2, .L74+16
 919 00c4 9278     		ldrb	r2, [r2, #2]	@ zero_extendqisi2
 638:ioLibrary_Driver-master/Internet/DHCP/dhcp.c **** 			{
 920              		.loc 1 638 77 discriminator 1 view .LVU313
 921 00c6 9142     		cmp	r1, r2
 922 00c8 40F0F280 		bne	.L66
 638:ioLibrary_Driver-master/Internet/DHCP/dhcp.c **** 			{
 923              		.loc 1 638 126 discriminator 2 view .LVU314
 924 00cc 9DF81310 		ldrb	r1, [sp, #19]	@ zero_extendqisi2
 638:ioLibrary_Driver-master/Internet/DHCP/dhcp.c **** 			{
 925              		.loc 1 638 146 discriminator 2 view .LVU315
 926 00d0 6B4A     		ldr	r2, .L74+16
 927 00d2 D278     		ldrb	r2, [r2, #3]	@ zero_extendqisi2
 638:ioLibrary_Driver-master/Internet/DHCP/dhcp.c **** 			{
 928              		.loc 1 638 114 discriminator 2 view .LVU316
 929 00d4 9142     		cmp	r1, r2
 930 00d6 40F0ED80 		bne	.L67
 931              	.L40:
 646:ioLibrary_Driver-master/Internet/DHCP/dhcp.c **** 		p = p + 240; // 240 = sizeof(RIP_MSG) + MAGIC_COOKIE size in RIP_MSG.opt - sizeof(RIP_MSG.opt)
 932              		.loc 1 646 3 is_stmt 1 view .LVU317
 933              	.LVL69:
ARM GAS  C:\Users\VIDCOM~1\AppData\Local\Temp\cc9naxsX.s 			page 31


 647:ioLibrary_Driver-master/Internet/DHCP/dhcp.c **** 		e = p + (len - 240);
 934              		.loc 1 647 3 view .LVU318
 647:ioLibrary_Driver-master/Internet/DHCP/dhcp.c **** 		e = p + (len - 240);
 935              		.loc 1 647 5 is_stmt 0 view .LVU319
 936 00da 03F1F002 		add	r2, r3, #240
 937              	.LVL70:
 648:ioLibrary_Driver-master/Internet/DHCP/dhcp.c **** 
 938              		.loc 1 648 3 is_stmt 1 view .LVU320
 648:ioLibrary_Driver-master/Internet/DHCP/dhcp.c **** 
 939              		.loc 1 648 9 is_stmt 0 view .LVU321
 940 00de 80B2     		uxth	r0, r0
 648:ioLibrary_Driver-master/Internet/DHCP/dhcp.c **** 
 941              		.loc 1 648 5 view .LVU322
 942 00e0 0344     		add	r3, r3, r0
 943              	.LVL71:
 650:ioLibrary_Driver-master/Internet/DHCP/dhcp.c **** 		{
 944              		.loc 1 650 3 is_stmt 1 view .LVU323
 610:ioLibrary_Driver-master/Internet/DHCP/dhcp.c **** 	uint8_t opt_len;
 945              		.loc 1 610 10 is_stmt 0 view .LVU324
 946 00e2 0020     		movs	r0, #0
 947              	.LVL72:
 650:ioLibrary_Driver-master/Internet/DHCP/dhcp.c **** 		{
 948              		.loc 1 650 9 view .LVU325
 949 00e4 16E0     		b	.L53
 950              	.LVL73:
 951              	.L73:
 637:ioLibrary_Driver-master/Internet/DHCP/dhcp.c **** 				((svr_addr[0] != DHCP_REAL_SIP[0]) || (svr_addr[1] != DHCP_REAL_SIP[1]) || (svr_addr[2] != DHCP
 952              		.loc 1 637 50 discriminator 2 view .LVU326
 953 00e6 9DF811C0 		ldrb	ip, [sp, #17]	@ zero_extendqisi2
 637:ioLibrary_Driver-master/Internet/DHCP/dhcp.c **** 				((svr_addr[0] != DHCP_REAL_SIP[0]) || (svr_addr[1] != DHCP_REAL_SIP[1]) || (svr_addr[2] != DHCP
 954              		.loc 1 637 65 discriminator 2 view .LVU327
 955 00ea 6449     		ldr	r1, .L74+12
 956 00ec 4978     		ldrb	r1, [r1, #1]	@ zero_extendqisi2
 637:ioLibrary_Driver-master/Internet/DHCP/dhcp.c **** 				((svr_addr[0] != DHCP_REAL_SIP[0]) || (svr_addr[1] != DHCP_REAL_SIP[1]) || (svr_addr[2] != DHCP
 957              		.loc 1 637 38 discriminator 2 view .LVU328
 958 00ee 8C45     		cmp	ip, r1
 959 00f0 D9D1     		bne	.L41
 637:ioLibrary_Driver-master/Internet/DHCP/dhcp.c **** 				((svr_addr[0] != DHCP_REAL_SIP[0]) || (svr_addr[1] != DHCP_REAL_SIP[1]) || (svr_addr[2] != DHCP
 960              		.loc 1 637 82 discriminator 4 view .LVU329
 961 00f2 9DF812C0 		ldrb	ip, [sp, #18]	@ zero_extendqisi2
 637:ioLibrary_Driver-master/Internet/DHCP/dhcp.c **** 				((svr_addr[0] != DHCP_REAL_SIP[0]) || (svr_addr[1] != DHCP_REAL_SIP[1]) || (svr_addr[2] != DHCP
 962              		.loc 1 637 97 discriminator 4 view .LVU330
 963 00f6 6149     		ldr	r1, .L74+12
 964 00f8 8978     		ldrb	r1, [r1, #2]	@ zero_extendqisi2
 637:ioLibrary_Driver-master/Internet/DHCP/dhcp.c **** 				((svr_addr[0] != DHCP_REAL_SIP[0]) || (svr_addr[1] != DHCP_REAL_SIP[1]) || (svr_addr[2] != DHCP
 965              		.loc 1 637 70 discriminator 4 view .LVU331
 966 00fa 8C45     		cmp	ip, r1
 967 00fc D3D1     		bne	.L41
 637:ioLibrary_Driver-master/Internet/DHCP/dhcp.c **** 				((svr_addr[0] != DHCP_REAL_SIP[0]) || (svr_addr[1] != DHCP_REAL_SIP[1]) || (svr_addr[2] != DHCP
 968              		.loc 1 637 114 discriminator 6 view .LVU332
 969 00fe 9DF813C0 		ldrb	ip, [sp, #19]	@ zero_extendqisi2
 637:ioLibrary_Driver-master/Internet/DHCP/dhcp.c **** 				((svr_addr[0] != DHCP_REAL_SIP[0]) || (svr_addr[1] != DHCP_REAL_SIP[1]) || (svr_addr[2] != DHCP
 970              		.loc 1 637 129 discriminator 6 view .LVU333
 971 0102 5E49     		ldr	r1, .L74+12
 972 0104 C978     		ldrb	r1, [r1, #3]	@ zero_extendqisi2
 637:ioLibrary_Driver-master/Internet/DHCP/dhcp.c **** 				((svr_addr[0] != DHCP_REAL_SIP[0]) || (svr_addr[1] != DHCP_REAL_SIP[1]) || (svr_addr[2] != DHCP
 973              		.loc 1 637 102 discriminator 6 view .LVU334
ARM GAS  C:\Users\VIDCOM~1\AppData\Local\Temp\cc9naxsX.s 			page 32


 974 0106 8C45     		cmp	ip, r1
 975 0108 CDD1     		bne	.L41
 976 010a E6E7     		b	.L40
 977              	.LVL74:
 978              	.L43:
 653:ioLibrary_Driver-master/Internet/DHCP/dhcp.c **** 			{
 979              		.loc 1 653 4 view .LVU335
 980 010c FF29     		cmp	r1, #255
 981 010e 40F0A880 		bne	.L44
 982 0112 1A46     		mov	r2, r3
 983              	.LVL75:
 984              	.L53:
 650:ioLibrary_Driver-master/Internet/DHCP/dhcp.c **** 		{
 985              		.loc 1 650 12 is_stmt 1 view .LVU336
 986 0114 9A42     		cmp	r2, r3
 987 0116 8DD2     		bcs	.L38
 653:ioLibrary_Driver-master/Internet/DHCP/dhcp.c **** 			{
 988              		.loc 1 653 4 view .LVU337
 653:ioLibrary_Driver-master/Internet/DHCP/dhcp.c **** 			{
 989              		.loc 1 653 12 is_stmt 0 view .LVU338
 990 0118 1178     		ldrb	r1, [r2]	@ zero_extendqisi2
 653:ioLibrary_Driver-master/Internet/DHCP/dhcp.c **** 			{
 991              		.loc 1 653 4 view .LVU339
 992 011a 3629     		cmp	r1, #54
 993 011c F6D8     		bhi	.L43
 994 011e 3629     		cmp	r1, #54
 995 0120 00F29F80 		bhi	.L44
 996 0124 DFE801F0 		tbb	[pc, r1]
 997              	.L46:
 998 0128 1C       		.byte	(.L52-.L46)/2
 999 0129 21       		.byte	(.L51-.L46)/2
 1000 012a 9D       		.byte	(.L44-.L46)/2
 1001 012b 34       		.byte	(.L50-.L46)/2
 1002 012c 9D       		.byte	(.L44-.L46)/2
 1003 012d 9D       		.byte	(.L44-.L46)/2
 1004 012e 4B       		.byte	(.L49-.L46)/2
 1005 012f 9D       		.byte	(.L44-.L46)/2
 1006 0130 9D       		.byte	(.L44-.L46)/2
 1007 0131 9D       		.byte	(.L44-.L46)/2
 1008 0132 9D       		.byte	(.L44-.L46)/2
 1009 0133 9D       		.byte	(.L44-.L46)/2
 1010 0134 9D       		.byte	(.L44-.L46)/2
 1011 0135 9D       		.byte	(.L44-.L46)/2
 1012 0136 9D       		.byte	(.L44-.L46)/2
 1013 0137 9D       		.byte	(.L44-.L46)/2
 1014 0138 9D       		.byte	(.L44-.L46)/2
 1015 0139 9D       		.byte	(.L44-.L46)/2
 1016 013a 9D       		.byte	(.L44-.L46)/2
 1017 013b 9D       		.byte	(.L44-.L46)/2
 1018 013c 9D       		.byte	(.L44-.L46)/2
 1019 013d 9D       		.byte	(.L44-.L46)/2
 1020 013e 9D       		.byte	(.L44-.L46)/2
 1021 013f 9D       		.byte	(.L44-.L46)/2
 1022 0140 9D       		.byte	(.L44-.L46)/2
 1023 0141 9D       		.byte	(.L44-.L46)/2
 1024 0142 9D       		.byte	(.L44-.L46)/2
 1025 0143 9D       		.byte	(.L44-.L46)/2
ARM GAS  C:\Users\VIDCOM~1\AppData\Local\Temp\cc9naxsX.s 			page 33


 1026 0144 9D       		.byte	(.L44-.L46)/2
 1027 0145 9D       		.byte	(.L44-.L46)/2
 1028 0146 9D       		.byte	(.L44-.L46)/2
 1029 0147 9D       		.byte	(.L44-.L46)/2
 1030 0148 9D       		.byte	(.L44-.L46)/2
 1031 0149 9D       		.byte	(.L44-.L46)/2
 1032 014a 9D       		.byte	(.L44-.L46)/2
 1033 014b 9D       		.byte	(.L44-.L46)/2
 1034 014c 9D       		.byte	(.L44-.L46)/2
 1035 014d 9D       		.byte	(.L44-.L46)/2
 1036 014e 9D       		.byte	(.L44-.L46)/2
 1037 014f 9D       		.byte	(.L44-.L46)/2
 1038 0150 9D       		.byte	(.L44-.L46)/2
 1039 0151 9D       		.byte	(.L44-.L46)/2
 1040 0152 9D       		.byte	(.L44-.L46)/2
 1041 0153 9D       		.byte	(.L44-.L46)/2
 1042 0154 9D       		.byte	(.L44-.L46)/2
 1043 0155 9D       		.byte	(.L44-.L46)/2
 1044 0156 9D       		.byte	(.L44-.L46)/2
 1045 0157 9D       		.byte	(.L44-.L46)/2
 1046 0158 9D       		.byte	(.L44-.L46)/2
 1047 0159 9D       		.byte	(.L44-.L46)/2
 1048 015a 9D       		.byte	(.L44-.L46)/2
 1049 015b 62       		.byte	(.L48-.L46)/2
 1050 015c 9D       		.byte	(.L44-.L46)/2
 1051 015d 1E       		.byte	(.L47-.L46)/2
 1052 015e 79       		.byte	(.L45-.L46)/2
 1053 015f 00       		.p2align 1
 1054              	.L52:
 660:ioLibrary_Driver-master/Internet/DHCP/dhcp.c **** 				break;
 1055              		.loc 1 660 5 is_stmt 1 view .LVU340
 660:ioLibrary_Driver-master/Internet/DHCP/dhcp.c **** 				break;
 1056              		.loc 1 660 6 is_stmt 0 view .LVU341
 1057 0160 0132     		adds	r2, r2, #1
 1058              	.LVL76:
 661:ioLibrary_Driver-master/Internet/DHCP/dhcp.c **** 			case dhcpMessageType:
 1059              		.loc 1 661 5 is_stmt 1 view .LVU342
 1060 0162 D7E7     		b	.L53
 1061              	.L47:
 663:ioLibrary_Driver-master/Internet/DHCP/dhcp.c **** 				p++;
 1062              		.loc 1 663 5 view .LVU343
 1063              	.LVL77:
 664:ioLibrary_Driver-master/Internet/DHCP/dhcp.c **** 				type = *p++;
 1064              		.loc 1 664 5 view .LVU344
 665:ioLibrary_Driver-master/Internet/DHCP/dhcp.c **** 				break;
 1065              		.loc 1 665 5 view .LVU345
 665:ioLibrary_Driver-master/Internet/DHCP/dhcp.c **** 				break;
 1066              		.loc 1 665 10 is_stmt 0 view .LVU346
 1067 0164 9078     		ldrb	r0, [r2, #2]	@ zero_extendqisi2
 1068              	.LVL78:
 666:ioLibrary_Driver-master/Internet/DHCP/dhcp.c **** 			case subnetMask:
 1069              		.loc 1 666 5 is_stmt 1 view .LVU347
 665:ioLibrary_Driver-master/Internet/DHCP/dhcp.c **** 				break;
 1070              		.loc 1 665 14 is_stmt 0 view .LVU348
 1071 0166 0332     		adds	r2, r2, #3
 1072              	.LVL79:
 666:ioLibrary_Driver-master/Internet/DHCP/dhcp.c **** 			case subnetMask:
ARM GAS  C:\Users\VIDCOM~1\AppData\Local\Temp\cc9naxsX.s 			page 34


 1073              		.loc 1 666 5 view .LVU349
 1074 0168 D4E7     		b	.L53
 1075              	.L51:
 668:ioLibrary_Driver-master/Internet/DHCP/dhcp.c **** 				p++;
 1076              		.loc 1 668 5 is_stmt 1 view .LVU350
 1077              	.LVL80:
 669:ioLibrary_Driver-master/Internet/DHCP/dhcp.c **** 				DHCP_allocated_sn[0] = *p++;
 1078              		.loc 1 669 5 view .LVU351
 670:ioLibrary_Driver-master/Internet/DHCP/dhcp.c **** 				DHCP_allocated_sn[1] = *p++;
 1079              		.loc 1 670 5 view .LVU352
 670:ioLibrary_Driver-master/Internet/DHCP/dhcp.c **** 				DHCP_allocated_sn[1] = *p++;
 1080              		.loc 1 670 28 is_stmt 0 view .LVU353
 1081 016a 92F802C0 		ldrb	ip, [r2, #2]	@ zero_extendqisi2
 670:ioLibrary_Driver-master/Internet/DHCP/dhcp.c **** 				DHCP_allocated_sn[1] = *p++;
 1082              		.loc 1 670 26 view .LVU354
 1083 016e 4549     		ldr	r1, .L74+20
 1084 0170 81F800C0 		strb	ip, [r1]
 671:ioLibrary_Driver-master/Internet/DHCP/dhcp.c **** 				DHCP_allocated_sn[2] = *p++;
 1085              		.loc 1 671 5 is_stmt 1 view .LVU355
 1086              	.LVL81:
 671:ioLibrary_Driver-master/Internet/DHCP/dhcp.c **** 				DHCP_allocated_sn[2] = *p++;
 1087              		.loc 1 671 28 is_stmt 0 view .LVU356
 1088 0174 92F803C0 		ldrb	ip, [r2, #3]	@ zero_extendqisi2
 671:ioLibrary_Driver-master/Internet/DHCP/dhcp.c **** 				DHCP_allocated_sn[2] = *p++;
 1089              		.loc 1 671 26 view .LVU357
 1090 0178 81F801C0 		strb	ip, [r1, #1]
 672:ioLibrary_Driver-master/Internet/DHCP/dhcp.c **** 				DHCP_allocated_sn[3] = *p++;
 1091              		.loc 1 672 5 is_stmt 1 view .LVU358
 1092              	.LVL82:
 672:ioLibrary_Driver-master/Internet/DHCP/dhcp.c **** 				DHCP_allocated_sn[3] = *p++;
 1093              		.loc 1 672 28 is_stmt 0 view .LVU359
 1094 017c 92F804C0 		ldrb	ip, [r2, #4]	@ zero_extendqisi2
 672:ioLibrary_Driver-master/Internet/DHCP/dhcp.c **** 				DHCP_allocated_sn[3] = *p++;
 1095              		.loc 1 672 26 view .LVU360
 1096 0180 81F802C0 		strb	ip, [r1, #2]
 673:ioLibrary_Driver-master/Internet/DHCP/dhcp.c **** 				break;
 1097              		.loc 1 673 5 is_stmt 1 view .LVU361
 1098              	.LVL83:
 673:ioLibrary_Driver-master/Internet/DHCP/dhcp.c **** 				break;
 1099              		.loc 1 673 28 is_stmt 0 view .LVU362
 1100 0184 92F805C0 		ldrb	ip, [r2, #5]	@ zero_extendqisi2
 673:ioLibrary_Driver-master/Internet/DHCP/dhcp.c **** 				break;
 1101              		.loc 1 673 26 view .LVU363
 1102 0188 81F803C0 		strb	ip, [r1, #3]
 674:ioLibrary_Driver-master/Internet/DHCP/dhcp.c **** 			case routersOnSubnet:
 1103              		.loc 1 674 5 is_stmt 1 view .LVU364
 673:ioLibrary_Driver-master/Internet/DHCP/dhcp.c **** 				break;
 1104              		.loc 1 673 30 is_stmt 0 view .LVU365
 1105 018c 0632     		adds	r2, r2, #6
 1106              	.LVL84:
 674:ioLibrary_Driver-master/Internet/DHCP/dhcp.c **** 			case routersOnSubnet:
 1107              		.loc 1 674 5 view .LVU366
 1108 018e C1E7     		b	.L53
 1109              	.L50:
 676:ioLibrary_Driver-master/Internet/DHCP/dhcp.c **** 				opt_len = *p++;
 1110              		.loc 1 676 5 is_stmt 1 view .LVU367
 1111              	.LVL85:
ARM GAS  C:\Users\VIDCOM~1\AppData\Local\Temp\cc9naxsX.s 			page 35


 677:ioLibrary_Driver-master/Internet/DHCP/dhcp.c **** 				DHCP_allocated_gw[0] = *p++;
 1112              		.loc 1 677 5 view .LVU368
 677:ioLibrary_Driver-master/Internet/DHCP/dhcp.c **** 				DHCP_allocated_gw[0] = *p++;
 1113              		.loc 1 677 13 is_stmt 0 view .LVU369
 1114 0190 92F801C0 		ldrb	ip, [r2, #1]	@ zero_extendqisi2
 1115              	.LVL86:
 678:ioLibrary_Driver-master/Internet/DHCP/dhcp.c **** 				DHCP_allocated_gw[1] = *p++;
 1116              		.loc 1 678 5 is_stmt 1 view .LVU370
 678:ioLibrary_Driver-master/Internet/DHCP/dhcp.c **** 				DHCP_allocated_gw[1] = *p++;
 1117              		.loc 1 678 28 is_stmt 0 view .LVU371
 1118 0194 92F802E0 		ldrb	lr, [r2, #2]	@ zero_extendqisi2
 678:ioLibrary_Driver-master/Internet/DHCP/dhcp.c **** 				DHCP_allocated_gw[1] = *p++;
 1119              		.loc 1 678 26 view .LVU372
 1120 0198 3B49     		ldr	r1, .L74+24
 1121 019a 81F800E0 		strb	lr, [r1]
 679:ioLibrary_Driver-master/Internet/DHCP/dhcp.c **** 				DHCP_allocated_gw[2] = *p++;
 1122              		.loc 1 679 5 is_stmt 1 view .LVU373
 1123              	.LVL87:
 679:ioLibrary_Driver-master/Internet/DHCP/dhcp.c **** 				DHCP_allocated_gw[2] = *p++;
 1124              		.loc 1 679 28 is_stmt 0 view .LVU374
 1125 019e 92F803E0 		ldrb	lr, [r2, #3]	@ zero_extendqisi2
 679:ioLibrary_Driver-master/Internet/DHCP/dhcp.c **** 				DHCP_allocated_gw[2] = *p++;
 1126              		.loc 1 679 26 view .LVU375
 1127 01a2 81F801E0 		strb	lr, [r1, #1]
 680:ioLibrary_Driver-master/Internet/DHCP/dhcp.c **** 				DHCP_allocated_gw[3] = *p++;
 1128              		.loc 1 680 5 is_stmt 1 view .LVU376
 1129              	.LVL88:
 680:ioLibrary_Driver-master/Internet/DHCP/dhcp.c **** 				DHCP_allocated_gw[3] = *p++;
 1130              		.loc 1 680 28 is_stmt 0 view .LVU377
 1131 01a6 92F804E0 		ldrb	lr, [r2, #4]	@ zero_extendqisi2
 680:ioLibrary_Driver-master/Internet/DHCP/dhcp.c **** 				DHCP_allocated_gw[3] = *p++;
 1132              		.loc 1 680 26 view .LVU378
 1133 01aa 81F802E0 		strb	lr, [r1, #2]
 681:ioLibrary_Driver-master/Internet/DHCP/dhcp.c **** 				p = p + (opt_len - 4);
 1134              		.loc 1 681 5 is_stmt 1 view .LVU379
 1135              	.LVL89:
 681:ioLibrary_Driver-master/Internet/DHCP/dhcp.c **** 				p = p + (opt_len - 4);
 1136              		.loc 1 681 28 is_stmt 0 view .LVU380
 1137 01ae 92F805E0 		ldrb	lr, [r2, #5]	@ zero_extendqisi2
 681:ioLibrary_Driver-master/Internet/DHCP/dhcp.c **** 				p = p + (opt_len - 4);
 1138              		.loc 1 681 26 view .LVU381
 1139 01b2 81F803E0 		strb	lr, [r1, #3]
 682:ioLibrary_Driver-master/Internet/DHCP/dhcp.c **** 				break;
 1140              		.loc 1 682 5 is_stmt 1 view .LVU382
 682:ioLibrary_Driver-master/Internet/DHCP/dhcp.c **** 				break;
 1141              		.loc 1 682 7 is_stmt 0 view .LVU383
 1142 01b6 0CF10201 		add	r1, ip, #2
 1143 01ba 0A44     		add	r2, r2, r1
 1144              	.LVL90:
 683:ioLibrary_Driver-master/Internet/DHCP/dhcp.c **** 			case dns:
 1145              		.loc 1 683 5 is_stmt 1 view .LVU384
 1146 01bc AAE7     		b	.L53
 1147              	.LVL91:
 1148              	.L49:
 685:ioLibrary_Driver-master/Internet/DHCP/dhcp.c **** 				opt_len = *p++;
 1149              		.loc 1 685 5 view .LVU385
 686:ioLibrary_Driver-master/Internet/DHCP/dhcp.c **** 				DHCP_allocated_dns[0] = *p++;
ARM GAS  C:\Users\VIDCOM~1\AppData\Local\Temp\cc9naxsX.s 			page 36


 1150              		.loc 1 686 5 view .LVU386
 686:ioLibrary_Driver-master/Internet/DHCP/dhcp.c **** 				DHCP_allocated_dns[0] = *p++;
 1151              		.loc 1 686 13 is_stmt 0 view .LVU387
 1152 01be 92F801C0 		ldrb	ip, [r2, #1]	@ zero_extendqisi2
 1153              	.LVL92:
 687:ioLibrary_Driver-master/Internet/DHCP/dhcp.c **** 				DHCP_allocated_dns[1] = *p++;
 1154              		.loc 1 687 5 is_stmt 1 view .LVU388
 687:ioLibrary_Driver-master/Internet/DHCP/dhcp.c **** 				DHCP_allocated_dns[1] = *p++;
 1155              		.loc 1 687 29 is_stmt 0 view .LVU389
 1156 01c2 92F802E0 		ldrb	lr, [r2, #2]	@ zero_extendqisi2
 687:ioLibrary_Driver-master/Internet/DHCP/dhcp.c **** 				DHCP_allocated_dns[1] = *p++;
 1157              		.loc 1 687 27 view .LVU390
 1158 01c6 3149     		ldr	r1, .L74+28
 1159 01c8 81F800E0 		strb	lr, [r1]
 688:ioLibrary_Driver-master/Internet/DHCP/dhcp.c **** 				DHCP_allocated_dns[2] = *p++;
 1160              		.loc 1 688 5 is_stmt 1 view .LVU391
 1161              	.LVL93:
 688:ioLibrary_Driver-master/Internet/DHCP/dhcp.c **** 				DHCP_allocated_dns[2] = *p++;
 1162              		.loc 1 688 29 is_stmt 0 view .LVU392
 1163 01cc 92F803E0 		ldrb	lr, [r2, #3]	@ zero_extendqisi2
 688:ioLibrary_Driver-master/Internet/DHCP/dhcp.c **** 				DHCP_allocated_dns[2] = *p++;
 1164              		.loc 1 688 27 view .LVU393
 1165 01d0 81F801E0 		strb	lr, [r1, #1]
 689:ioLibrary_Driver-master/Internet/DHCP/dhcp.c **** 				DHCP_allocated_dns[3] = *p++;
 1166              		.loc 1 689 5 is_stmt 1 view .LVU394
 1167              	.LVL94:
 689:ioLibrary_Driver-master/Internet/DHCP/dhcp.c **** 				DHCP_allocated_dns[3] = *p++;
 1168              		.loc 1 689 29 is_stmt 0 view .LVU395
 1169 01d4 92F804E0 		ldrb	lr, [r2, #4]	@ zero_extendqisi2
 689:ioLibrary_Driver-master/Internet/DHCP/dhcp.c **** 				DHCP_allocated_dns[3] = *p++;
 1170              		.loc 1 689 27 view .LVU396
 1171 01d8 81F802E0 		strb	lr, [r1, #2]
 690:ioLibrary_Driver-master/Internet/DHCP/dhcp.c **** 				p = p + (opt_len - 4);
 1172              		.loc 1 690 5 is_stmt 1 view .LVU397
 1173              	.LVL95:
 690:ioLibrary_Driver-master/Internet/DHCP/dhcp.c **** 				p = p + (opt_len - 4);
 1174              		.loc 1 690 29 is_stmt 0 view .LVU398
 1175 01dc 92F805E0 		ldrb	lr, [r2, #5]	@ zero_extendqisi2
 690:ioLibrary_Driver-master/Internet/DHCP/dhcp.c **** 				p = p + (opt_len - 4);
 1176              		.loc 1 690 27 view .LVU399
 1177 01e0 81F803E0 		strb	lr, [r1, #3]
 691:ioLibrary_Driver-master/Internet/DHCP/dhcp.c **** 				break;
 1178              		.loc 1 691 5 is_stmt 1 view .LVU400
 691:ioLibrary_Driver-master/Internet/DHCP/dhcp.c **** 				break;
 1179              		.loc 1 691 7 is_stmt 0 view .LVU401
 1180 01e4 0CF10201 		add	r1, ip, #2
 1181 01e8 0A44     		add	r2, r2, r1
 1182              	.LVL96:
 692:ioLibrary_Driver-master/Internet/DHCP/dhcp.c **** 			case dhcpIPaddrLeaseTime:
 1183              		.loc 1 692 5 is_stmt 1 view .LVU402
 1184 01ea 93E7     		b	.L53
 1185              	.LVL97:
 1186              	.L48:
 694:ioLibrary_Driver-master/Internet/DHCP/dhcp.c **** 				opt_len = *p++;
 1187              		.loc 1 694 5 view .LVU403
 695:ioLibrary_Driver-master/Internet/DHCP/dhcp.c **** 				dhcp_lease_time = *p++;
 1188              		.loc 1 695 5 view .LVU404
ARM GAS  C:\Users\VIDCOM~1\AppData\Local\Temp\cc9naxsX.s 			page 37


 696:ioLibrary_Driver-master/Internet/DHCP/dhcp.c **** 				dhcp_lease_time = (dhcp_lease_time << 8) + *p++;
 1189              		.loc 1 696 5 view .LVU405
 696:ioLibrary_Driver-master/Internet/DHCP/dhcp.c **** 				dhcp_lease_time = (dhcp_lease_time << 8) + *p++;
 1190              		.loc 1 696 23 is_stmt 0 view .LVU406
 1191 01ec 9478     		ldrb	r4, [r2, #2]	@ zero_extendqisi2
 696:ioLibrary_Driver-master/Internet/DHCP/dhcp.c **** 				dhcp_lease_time = (dhcp_lease_time << 8) + *p++;
 1192              		.loc 1 696 21 view .LVU407
 1193 01ee 2849     		ldr	r1, .L74+32
 1194 01f0 0C60     		str	r4, [r1]
 1195              	.LVL98:
 697:ioLibrary_Driver-master/Internet/DHCP/dhcp.c **** 				dhcp_lease_time = (dhcp_lease_time << 8) + *p++;
 1196              		.loc 1 697 5 is_stmt 1 view .LVU408
 697:ioLibrary_Driver-master/Internet/DHCP/dhcp.c **** 				dhcp_lease_time = (dhcp_lease_time << 8) + *p++;
 1197              		.loc 1 697 48 is_stmt 0 view .LVU409
 1198 01f2 92F803E0 		ldrb	lr, [r2, #3]	@ zero_extendqisi2
 697:ioLibrary_Driver-master/Internet/DHCP/dhcp.c **** 				dhcp_lease_time = (dhcp_lease_time << 8) + *p++;
 1199              		.loc 1 697 46 view .LVU410
 1200 01f6 0EEB042E 		add	lr, lr, r4, lsl #8
 697:ioLibrary_Driver-master/Internet/DHCP/dhcp.c **** 				dhcp_lease_time = (dhcp_lease_time << 8) + *p++;
 1201              		.loc 1 697 21 view .LVU411
 1202 01fa C1F800E0 		str	lr, [r1]
 698:ioLibrary_Driver-master/Internet/DHCP/dhcp.c **** 				dhcp_lease_time = (dhcp_lease_time << 8) + *p++;
 1203              		.loc 1 698 5 is_stmt 1 view .LVU412
 1204              	.LVL99:
 698:ioLibrary_Driver-master/Internet/DHCP/dhcp.c **** 				dhcp_lease_time = (dhcp_lease_time << 8) + *p++;
 1205              		.loc 1 698 48 is_stmt 0 view .LVU413
 1206 01fe 92F804C0 		ldrb	ip, [r2, #4]	@ zero_extendqisi2
 698:ioLibrary_Driver-master/Internet/DHCP/dhcp.c **** 				dhcp_lease_time = (dhcp_lease_time << 8) + *p++;
 1207              		.loc 1 698 46 view .LVU414
 1208 0202 0CEB0E2C 		add	ip, ip, lr, lsl #8
 698:ioLibrary_Driver-master/Internet/DHCP/dhcp.c **** 				dhcp_lease_time = (dhcp_lease_time << 8) + *p++;
 1209              		.loc 1 698 21 view .LVU415
 1210 0206 C1F800C0 		str	ip, [r1]
 699:ioLibrary_Driver-master/Internet/DHCP/dhcp.c **** #ifdef _DHCP_DEBUG_
 1211              		.loc 1 699 5 is_stmt 1 view .LVU416
 1212              	.LVL100:
 699:ioLibrary_Driver-master/Internet/DHCP/dhcp.c **** #ifdef _DHCP_DEBUG_
 1213              		.loc 1 699 48 is_stmt 0 view .LVU417
 1214 020a 92F805E0 		ldrb	lr, [r2, #5]	@ zero_extendqisi2
 699:ioLibrary_Driver-master/Internet/DHCP/dhcp.c **** #ifdef _DHCP_DEBUG_
 1215              		.loc 1 699 46 view .LVU418
 1216 020e 0EEB0C2C 		add	ip, lr, ip, lsl #8
 699:ioLibrary_Driver-master/Internet/DHCP/dhcp.c **** #ifdef _DHCP_DEBUG_
 1217              		.loc 1 699 21 view .LVU419
 1218 0212 C1F800C0 		str	ip, [r1]
 703:ioLibrary_Driver-master/Internet/DHCP/dhcp.c **** 			case dhcpServerIdentifier:
 1219              		.loc 1 703 5 is_stmt 1 view .LVU420
 699:ioLibrary_Driver-master/Internet/DHCP/dhcp.c **** #ifdef _DHCP_DEBUG_
 1220              		.loc 1 699 50 is_stmt 0 view .LVU421
 1221 0216 0632     		adds	r2, r2, #6
 1222              	.LVL101:
 703:ioLibrary_Driver-master/Internet/DHCP/dhcp.c **** 			case dhcpServerIdentifier:
 1223              		.loc 1 703 5 view .LVU422
 1224 0218 7CE7     		b	.L53
 1225              	.LVL102:
 1226              	.L45:
 705:ioLibrary_Driver-master/Internet/DHCP/dhcp.c **** 				opt_len = *p++;
ARM GAS  C:\Users\VIDCOM~1\AppData\Local\Temp\cc9naxsX.s 			page 38


 1227              		.loc 1 705 5 is_stmt 1 view .LVU423
 706:ioLibrary_Driver-master/Internet/DHCP/dhcp.c **** 				DHCP_SIP[0] = *p++;
 1228              		.loc 1 706 5 view .LVU424
 707:ioLibrary_Driver-master/Internet/DHCP/dhcp.c **** 				DHCP_SIP[1] = *p++;
 1229              		.loc 1 707 5 view .LVU425
 707:ioLibrary_Driver-master/Internet/DHCP/dhcp.c **** 				DHCP_SIP[1] = *p++;
 1230              		.loc 1 707 19 is_stmt 0 view .LVU426
 1231 021a 92F802C0 		ldrb	ip, [r2, #2]	@ zero_extendqisi2
 707:ioLibrary_Driver-master/Internet/DHCP/dhcp.c **** 				DHCP_SIP[1] = *p++;
 1232              		.loc 1 707 17 view .LVU427
 1233 021e 1749     		ldr	r1, .L74+12
 1234 0220 81F800C0 		strb	ip, [r1]
 708:ioLibrary_Driver-master/Internet/DHCP/dhcp.c **** 				DHCP_SIP[2] = *p++;
 1235              		.loc 1 708 5 is_stmt 1 view .LVU428
 1236              	.LVL103:
 708:ioLibrary_Driver-master/Internet/DHCP/dhcp.c **** 				DHCP_SIP[2] = *p++;
 1237              		.loc 1 708 19 is_stmt 0 view .LVU429
 1238 0224 92F803C0 		ldrb	ip, [r2, #3]	@ zero_extendqisi2
 708:ioLibrary_Driver-master/Internet/DHCP/dhcp.c **** 				DHCP_SIP[2] = *p++;
 1239              		.loc 1 708 17 view .LVU430
 1240 0228 81F801C0 		strb	ip, [r1, #1]
 1241              	.LVL104:
 709:ioLibrary_Driver-master/Internet/DHCP/dhcp.c **** 				DHCP_SIP[3] = *p++;
 1242              		.loc 1 709 5 is_stmt 1 view .LVU431
 709:ioLibrary_Driver-master/Internet/DHCP/dhcp.c **** 				DHCP_SIP[3] = *p++;
 1243              		.loc 1 709 19 is_stmt 0 view .LVU432
 1244 022c 92F804C0 		ldrb	ip, [r2, #4]	@ zero_extendqisi2
 709:ioLibrary_Driver-master/Internet/DHCP/dhcp.c **** 				DHCP_SIP[3] = *p++;
 1245              		.loc 1 709 17 view .LVU433
 1246 0230 81F802C0 		strb	ip, [r1, #2]
 710:ioLibrary_Driver-master/Internet/DHCP/dhcp.c **** 				DHCP_REAL_SIP[0] = svr_addr[0];
 1247              		.loc 1 710 5 is_stmt 1 view .LVU434
 1248              	.LVL105:
 710:ioLibrary_Driver-master/Internet/DHCP/dhcp.c **** 				DHCP_REAL_SIP[0] = svr_addr[0];
 1249              		.loc 1 710 19 is_stmt 0 view .LVU435
 1250 0234 92F805C0 		ldrb	ip, [r2, #5]	@ zero_extendqisi2
 710:ioLibrary_Driver-master/Internet/DHCP/dhcp.c **** 				DHCP_REAL_SIP[0] = svr_addr[0];
 1251              		.loc 1 710 17 view .LVU436
 1252 0238 81F803C0 		strb	ip, [r1, #3]
 711:ioLibrary_Driver-master/Internet/DHCP/dhcp.c **** 				DHCP_REAL_SIP[1] = svr_addr[1];
 1253              		.loc 1 711 5 is_stmt 1 view .LVU437
 711:ioLibrary_Driver-master/Internet/DHCP/dhcp.c **** 				DHCP_REAL_SIP[1] = svr_addr[1];
 1254              		.loc 1 711 32 is_stmt 0 view .LVU438
 1255 023c 9DF810C0 		ldrb	ip, [sp, #16]	@ zero_extendqisi2
 711:ioLibrary_Driver-master/Internet/DHCP/dhcp.c **** 				DHCP_REAL_SIP[1] = svr_addr[1];
 1256              		.loc 1 711 22 view .LVU439
 1257 0240 0F49     		ldr	r1, .L74+16
 1258 0242 81F800C0 		strb	ip, [r1]
 712:ioLibrary_Driver-master/Internet/DHCP/dhcp.c **** 				DHCP_REAL_SIP[2] = svr_addr[2];
 1259              		.loc 1 712 5 is_stmt 1 view .LVU440
 712:ioLibrary_Driver-master/Internet/DHCP/dhcp.c **** 				DHCP_REAL_SIP[2] = svr_addr[2];
 1260              		.loc 1 712 32 is_stmt 0 view .LVU441
 1261 0246 9DF811C0 		ldrb	ip, [sp, #17]	@ zero_extendqisi2
 712:ioLibrary_Driver-master/Internet/DHCP/dhcp.c **** 				DHCP_REAL_SIP[2] = svr_addr[2];
 1262              		.loc 1 712 22 view .LVU442
 1263 024a 81F801C0 		strb	ip, [r1, #1]
 713:ioLibrary_Driver-master/Internet/DHCP/dhcp.c **** 				DHCP_REAL_SIP[3] = svr_addr[3];
ARM GAS  C:\Users\VIDCOM~1\AppData\Local\Temp\cc9naxsX.s 			page 39


 1264              		.loc 1 713 5 is_stmt 1 view .LVU443
 713:ioLibrary_Driver-master/Internet/DHCP/dhcp.c **** 				DHCP_REAL_SIP[3] = svr_addr[3];
 1265              		.loc 1 713 32 is_stmt 0 view .LVU444
 1266 024e 9DF812C0 		ldrb	ip, [sp, #18]	@ zero_extendqisi2
 713:ioLibrary_Driver-master/Internet/DHCP/dhcp.c **** 				DHCP_REAL_SIP[3] = svr_addr[3];
 1267              		.loc 1 713 22 view .LVU445
 1268 0252 81F802C0 		strb	ip, [r1, #2]
 714:ioLibrary_Driver-master/Internet/DHCP/dhcp.c **** 				break;
 1269              		.loc 1 714 5 is_stmt 1 view .LVU446
 714:ioLibrary_Driver-master/Internet/DHCP/dhcp.c **** 				break;
 1270              		.loc 1 714 32 is_stmt 0 view .LVU447
 1271 0256 9DF813C0 		ldrb	ip, [sp, #19]	@ zero_extendqisi2
 714:ioLibrary_Driver-master/Internet/DHCP/dhcp.c **** 				break;
 1272              		.loc 1 714 22 view .LVU448
 1273 025a 81F803C0 		strb	ip, [r1, #3]
 715:ioLibrary_Driver-master/Internet/DHCP/dhcp.c **** 			default:
 1274              		.loc 1 715 5 is_stmt 1 view .LVU449
 710:ioLibrary_Driver-master/Internet/DHCP/dhcp.c **** 				DHCP_REAL_SIP[0] = svr_addr[0];
 1275              		.loc 1 710 21 is_stmt 0 view .LVU450
 1276 025e 0632     		adds	r2, r2, #6
 1277              	.LVL106:
 715:ioLibrary_Driver-master/Internet/DHCP/dhcp.c **** 			default:
 1278              		.loc 1 715 5 view .LVU451
 1279 0260 58E7     		b	.L53
 1280              	.LVL107:
 1281              	.L44:
 717:ioLibrary_Driver-master/Internet/DHCP/dhcp.c **** 				opt_len = *p++;
 1282              		.loc 1 717 5 is_stmt 1 view .LVU452
 718:ioLibrary_Driver-master/Internet/DHCP/dhcp.c **** 				p += opt_len;
 1283              		.loc 1 718 5 view .LVU453
 718:ioLibrary_Driver-master/Internet/DHCP/dhcp.c **** 				p += opt_len;
 1284              		.loc 1 718 13 is_stmt 0 view .LVU454
 1285 0262 5178     		ldrb	r1, [r2, #1]	@ zero_extendqisi2
 1286              	.LVL108:
 719:ioLibrary_Driver-master/Internet/DHCP/dhcp.c **** 				break;
 1287              		.loc 1 719 5 is_stmt 1 view .LVU455
 719:ioLibrary_Driver-master/Internet/DHCP/dhcp.c **** 				break;
 1288              		.loc 1 719 7 is_stmt 0 view .LVU456
 1289 0264 0231     		adds	r1, r1, #2
 1290              	.LVL109:
 719:ioLibrary_Driver-master/Internet/DHCP/dhcp.c **** 				break;
 1291              		.loc 1 719 7 view .LVU457
 1292 0266 0A44     		add	r2, r2, r1
 1293              	.LVL110:
 720:ioLibrary_Driver-master/Internet/DHCP/dhcp.c **** 			} // switch
 1294              		.loc 1 720 5 is_stmt 1 view .LVU458
 1295 0268 54E7     		b	.L53
 1296              	.LVL111:
 1297              	.L58:
 632:ioLibrary_Driver-master/Internet/DHCP/dhcp.c **** 		}
 1298              		.loc 1 632 11 is_stmt 0 view .LVU459
 1299 026a 0020     		movs	r0, #0
 1300              	.LVL112:
 632:ioLibrary_Driver-master/Internet/DHCP/dhcp.c **** 		}
 1301              		.loc 1 632 11 view .LVU460
 1302 026c D0E6     		b	.L37
 1303              	.L75:
ARM GAS  C:\Users\VIDCOM~1\AppData\Local\Temp\cc9naxsX.s 			page 40


 1304 026e 00BF     		.align	2
 1305              	.L74:
 1306 0270 00000000 		.word	DHCP_SOCKET
 1307 0274 00000000 		.word	pDHCPMSG
 1308 0278 00000000 		.word	DHCP_CHADDR
 1309 027c 00000000 		.word	DHCP_SIP
 1310 0280 00000000 		.word	DHCP_REAL_SIP
 1311 0284 00000000 		.word	DHCP_allocated_sn
 1312 0288 00000000 		.word	DHCP_allocated_gw
 1313 028c 00000000 		.word	DHCP_allocated_dns
 1314 0290 00000000 		.word	dhcp_lease_time
 1315              	.LVL113:
 1316              	.L59:
 632:ioLibrary_Driver-master/Internet/DHCP/dhcp.c **** 		}
 1317              		.loc 1 632 11 view .LVU461
 1318 0294 0020     		movs	r0, #0
 1319              	.LVL114:
 632:ioLibrary_Driver-master/Internet/DHCP/dhcp.c **** 		}
 1320              		.loc 1 632 11 view .LVU462
 1321 0296 BBE6     		b	.L37
 1322              	.LVL115:
 1323              	.L60:
 632:ioLibrary_Driver-master/Internet/DHCP/dhcp.c **** 		}
 1324              		.loc 1 632 11 view .LVU463
 1325 0298 0020     		movs	r0, #0
 1326              	.LVL116:
 632:ioLibrary_Driver-master/Internet/DHCP/dhcp.c **** 		}
 1327              		.loc 1 632 11 view .LVU464
 1328 029a B9E6     		b	.L37
 1329              	.LVL117:
 1330              	.L61:
 632:ioLibrary_Driver-master/Internet/DHCP/dhcp.c **** 		}
 1331              		.loc 1 632 11 view .LVU465
 1332 029c 0020     		movs	r0, #0
 1333              	.LVL118:
 632:ioLibrary_Driver-master/Internet/DHCP/dhcp.c **** 		}
 1334              		.loc 1 632 11 view .LVU466
 1335 029e B7E6     		b	.L37
 1336              	.LVL119:
 1337              	.L62:
 632:ioLibrary_Driver-master/Internet/DHCP/dhcp.c **** 		}
 1338              		.loc 1 632 11 view .LVU467
 1339 02a0 0020     		movs	r0, #0
 1340              	.LVL120:
 632:ioLibrary_Driver-master/Internet/DHCP/dhcp.c **** 		}
 1341              		.loc 1 632 11 view .LVU468
 1342 02a2 B5E6     		b	.L37
 1343              	.LVL121:
 1344              	.L63:
 632:ioLibrary_Driver-master/Internet/DHCP/dhcp.c **** 		}
 1345              		.loc 1 632 11 view .LVU469
 1346 02a4 0020     		movs	r0, #0
 1347              	.LVL122:
 632:ioLibrary_Driver-master/Internet/DHCP/dhcp.c **** 		}
 1348              		.loc 1 632 11 view .LVU470
 1349 02a6 B3E6     		b	.L37
 1350              	.LVL123:
ARM GAS  C:\Users\VIDCOM~1\AppData\Local\Temp\cc9naxsX.s 			page 41


 1351              	.L64:
 643:ioLibrary_Driver-master/Internet/DHCP/dhcp.c **** 			}
 1352              		.loc 1 643 12 view .LVU471
 1353 02a8 0020     		movs	r0, #0
 1354              	.LVL124:
 643:ioLibrary_Driver-master/Internet/DHCP/dhcp.c **** 			}
 1355              		.loc 1 643 12 view .LVU472
 1356 02aa B1E6     		b	.L37
 1357              	.LVL125:
 1358              	.L65:
 643:ioLibrary_Driver-master/Internet/DHCP/dhcp.c **** 			}
 1359              		.loc 1 643 12 view .LVU473
 1360 02ac 0020     		movs	r0, #0
 1361              	.LVL126:
 643:ioLibrary_Driver-master/Internet/DHCP/dhcp.c **** 			}
 1362              		.loc 1 643 12 view .LVU474
 1363 02ae AFE6     		b	.L37
 1364              	.LVL127:
 1365              	.L66:
 643:ioLibrary_Driver-master/Internet/DHCP/dhcp.c **** 			}
 1366              		.loc 1 643 12 view .LVU475
 1367 02b0 0020     		movs	r0, #0
 1368              	.LVL128:
 643:ioLibrary_Driver-master/Internet/DHCP/dhcp.c **** 			}
 1369              		.loc 1 643 12 view .LVU476
 1370 02b2 ADE6     		b	.L37
 1371              	.LVL129:
 1372              	.L67:
 643:ioLibrary_Driver-master/Internet/DHCP/dhcp.c **** 			}
 1373              		.loc 1 643 12 view .LVU477
 1374 02b4 0020     		movs	r0, #0
 1375              	.LVL130:
 643:ioLibrary_Driver-master/Internet/DHCP/dhcp.c **** 			}
 1376              		.loc 1 643 12 view .LVU478
 1377 02b6 ABE6     		b	.L37
 1378              		.cfi_endproc
 1379              	.LFE8:
 1381              		.section	.text.DHCP_stop,"ax",%progbits
 1382              		.align	1
 1383              		.global	DHCP_stop
 1384              		.syntax unified
 1385              		.thumb
 1386              		.thumb_func
 1388              	DHCP_stop:
 1389              	.LFB10:
 726:ioLibrary_Driver-master/Internet/DHCP/dhcp.c **** 
 727:ioLibrary_Driver-master/Internet/DHCP/dhcp.c **** uint8_t DHCP_run(void)
 728:ioLibrary_Driver-master/Internet/DHCP/dhcp.c **** {
 729:ioLibrary_Driver-master/Internet/DHCP/dhcp.c **** 	uint8_t type;
 730:ioLibrary_Driver-master/Internet/DHCP/dhcp.c **** 	uint8_t ret;
 731:ioLibrary_Driver-master/Internet/DHCP/dhcp.c **** 
 732:ioLibrary_Driver-master/Internet/DHCP/dhcp.c **** 	if (dhcp_state == STATE_DHCP_STOP)
 733:ioLibrary_Driver-master/Internet/DHCP/dhcp.c **** 		return DHCP_STOPPED;
 734:ioLibrary_Driver-master/Internet/DHCP/dhcp.c **** 
 735:ioLibrary_Driver-master/Internet/DHCP/dhcp.c **** 	if (getSn_SR(DHCP_SOCKET) != SOCK_UDP)
 736:ioLibrary_Driver-master/Internet/DHCP/dhcp.c **** 		socket(DHCP_SOCKET, Sn_MR_UDP, DHCP_CLIENT_PORT, 0x00);
 737:ioLibrary_Driver-master/Internet/DHCP/dhcp.c **** 
ARM GAS  C:\Users\VIDCOM~1\AppData\Local\Temp\cc9naxsX.s 			page 42


 738:ioLibrary_Driver-master/Internet/DHCP/dhcp.c **** 	ret = DHCP_RUNNING;
 739:ioLibrary_Driver-master/Internet/DHCP/dhcp.c **** 	type = parseDHCPMSG();
 740:ioLibrary_Driver-master/Internet/DHCP/dhcp.c **** 
 741:ioLibrary_Driver-master/Internet/DHCP/dhcp.c **** 	switch (dhcp_state)
 742:ioLibrary_Driver-master/Internet/DHCP/dhcp.c **** 	{
 743:ioLibrary_Driver-master/Internet/DHCP/dhcp.c **** 	case STATE_DHCP_INIT:
 744:ioLibrary_Driver-master/Internet/DHCP/dhcp.c **** 		DHCP_allocated_ip[0] = 0;
 745:ioLibrary_Driver-master/Internet/DHCP/dhcp.c **** 		DHCP_allocated_ip[1] = 0;
 746:ioLibrary_Driver-master/Internet/DHCP/dhcp.c **** 		DHCP_allocated_ip[2] = 0;
 747:ioLibrary_Driver-master/Internet/DHCP/dhcp.c **** 		DHCP_allocated_ip[3] = 0;
 748:ioLibrary_Driver-master/Internet/DHCP/dhcp.c **** 		send_DHCP_DISCOVER();
 749:ioLibrary_Driver-master/Internet/DHCP/dhcp.c **** 		dhcp_state = STATE_DHCP_DISCOVER;
 750:ioLibrary_Driver-master/Internet/DHCP/dhcp.c **** 		break;
 751:ioLibrary_Driver-master/Internet/DHCP/dhcp.c **** 	case STATE_DHCP_DISCOVER:
 752:ioLibrary_Driver-master/Internet/DHCP/dhcp.c **** 		if (type == DHCP_OFFER)
 753:ioLibrary_Driver-master/Internet/DHCP/dhcp.c **** 		{
 754:ioLibrary_Driver-master/Internet/DHCP/dhcp.c **** #ifdef _DHCP_DEBUG_
 755:ioLibrary_Driver-master/Internet/DHCP/dhcp.c **** 			printf("> Receive DHCP_OFFER\r\n");
 756:ioLibrary_Driver-master/Internet/DHCP/dhcp.c **** #endif
 757:ioLibrary_Driver-master/Internet/DHCP/dhcp.c **** 			DHCP_allocated_ip[0] = pDHCPMSG->yiaddr[0];
 758:ioLibrary_Driver-master/Internet/DHCP/dhcp.c **** 			DHCP_allocated_ip[1] = pDHCPMSG->yiaddr[1];
 759:ioLibrary_Driver-master/Internet/DHCP/dhcp.c **** 			DHCP_allocated_ip[2] = pDHCPMSG->yiaddr[2];
 760:ioLibrary_Driver-master/Internet/DHCP/dhcp.c **** 			DHCP_allocated_ip[3] = pDHCPMSG->yiaddr[3];
 761:ioLibrary_Driver-master/Internet/DHCP/dhcp.c **** 
 762:ioLibrary_Driver-master/Internet/DHCP/dhcp.c **** 			send_DHCP_REQUEST();
 763:ioLibrary_Driver-master/Internet/DHCP/dhcp.c **** 			dhcp_state = STATE_DHCP_REQUEST;
 764:ioLibrary_Driver-master/Internet/DHCP/dhcp.c **** 		}
 765:ioLibrary_Driver-master/Internet/DHCP/dhcp.c **** 		else
 766:ioLibrary_Driver-master/Internet/DHCP/dhcp.c **** 			ret = check_DHCP_timeout();
 767:ioLibrary_Driver-master/Internet/DHCP/dhcp.c **** 		break;
 768:ioLibrary_Driver-master/Internet/DHCP/dhcp.c **** 
 769:ioLibrary_Driver-master/Internet/DHCP/dhcp.c **** 	case STATE_DHCP_REQUEST:
 770:ioLibrary_Driver-master/Internet/DHCP/dhcp.c **** 		if (type == DHCP_ACK)
 771:ioLibrary_Driver-master/Internet/DHCP/dhcp.c **** 		{
 772:ioLibrary_Driver-master/Internet/DHCP/dhcp.c **** 
 773:ioLibrary_Driver-master/Internet/DHCP/dhcp.c **** #ifdef _DHCP_DEBUG_
 774:ioLibrary_Driver-master/Internet/DHCP/dhcp.c **** 			printf("> Receive DHCP_ACK\r\n");
 775:ioLibrary_Driver-master/Internet/DHCP/dhcp.c **** #endif
 776:ioLibrary_Driver-master/Internet/DHCP/dhcp.c **** 			if (check_DHCP_leasedIP())
 777:ioLibrary_Driver-master/Internet/DHCP/dhcp.c **** 			{
 778:ioLibrary_Driver-master/Internet/DHCP/dhcp.c **** 				// Network info assignment from DHCP
 779:ioLibrary_Driver-master/Internet/DHCP/dhcp.c **** 				dhcp_ip_assign();
 780:ioLibrary_Driver-master/Internet/DHCP/dhcp.c **** 				reset_DHCP_timeout();
 781:ioLibrary_Driver-master/Internet/DHCP/dhcp.c **** 
 782:ioLibrary_Driver-master/Internet/DHCP/dhcp.c **** 				dhcp_state = STATE_DHCP_LEASED;
 783:ioLibrary_Driver-master/Internet/DHCP/dhcp.c **** 			}
 784:ioLibrary_Driver-master/Internet/DHCP/dhcp.c **** 			else
 785:ioLibrary_Driver-master/Internet/DHCP/dhcp.c **** 			{
 786:ioLibrary_Driver-master/Internet/DHCP/dhcp.c **** 				// IP address conflict occurred
 787:ioLibrary_Driver-master/Internet/DHCP/dhcp.c **** 				reset_DHCP_timeout();
 788:ioLibrary_Driver-master/Internet/DHCP/dhcp.c **** 				dhcp_ip_conflict();
 789:ioLibrary_Driver-master/Internet/DHCP/dhcp.c **** 				dhcp_state = STATE_DHCP_INIT;
 790:ioLibrary_Driver-master/Internet/DHCP/dhcp.c **** 			}
 791:ioLibrary_Driver-master/Internet/DHCP/dhcp.c **** 		}
 792:ioLibrary_Driver-master/Internet/DHCP/dhcp.c **** 		else if (type == DHCP_NAK)
 793:ioLibrary_Driver-master/Internet/DHCP/dhcp.c **** 		{
 794:ioLibrary_Driver-master/Internet/DHCP/dhcp.c **** 
ARM GAS  C:\Users\VIDCOM~1\AppData\Local\Temp\cc9naxsX.s 			page 43


 795:ioLibrary_Driver-master/Internet/DHCP/dhcp.c **** #ifdef _DHCP_DEBUG_
 796:ioLibrary_Driver-master/Internet/DHCP/dhcp.c **** 			printf("> Receive DHCP_NACK\r\n");
 797:ioLibrary_Driver-master/Internet/DHCP/dhcp.c **** #endif
 798:ioLibrary_Driver-master/Internet/DHCP/dhcp.c **** 
 799:ioLibrary_Driver-master/Internet/DHCP/dhcp.c **** 			reset_DHCP_timeout();
 800:ioLibrary_Driver-master/Internet/DHCP/dhcp.c **** 
 801:ioLibrary_Driver-master/Internet/DHCP/dhcp.c **** 			dhcp_state = STATE_DHCP_DISCOVER;
 802:ioLibrary_Driver-master/Internet/DHCP/dhcp.c **** 		}
 803:ioLibrary_Driver-master/Internet/DHCP/dhcp.c **** 		else
 804:ioLibrary_Driver-master/Internet/DHCP/dhcp.c **** 			ret = check_DHCP_timeout();
 805:ioLibrary_Driver-master/Internet/DHCP/dhcp.c **** 		break;
 806:ioLibrary_Driver-master/Internet/DHCP/dhcp.c **** 
 807:ioLibrary_Driver-master/Internet/DHCP/dhcp.c **** 	case STATE_DHCP_LEASED:
 808:ioLibrary_Driver-master/Internet/DHCP/dhcp.c **** 		ret = DHCP_IP_LEASED;
 809:ioLibrary_Driver-master/Internet/DHCP/dhcp.c **** 		if ((dhcp_lease_time != INFINITE_LEASETIME) && ((dhcp_lease_time / 2) < dhcp_tick_1s))
 810:ioLibrary_Driver-master/Internet/DHCP/dhcp.c **** 		{
 811:ioLibrary_Driver-master/Internet/DHCP/dhcp.c **** 
 812:ioLibrary_Driver-master/Internet/DHCP/dhcp.c **** #ifdef _DHCP_DEBUG_
 813:ioLibrary_Driver-master/Internet/DHCP/dhcp.c **** 			printf("> Maintains the IP address \r\n");
 814:ioLibrary_Driver-master/Internet/DHCP/dhcp.c **** #endif
 815:ioLibrary_Driver-master/Internet/DHCP/dhcp.c **** 
 816:ioLibrary_Driver-master/Internet/DHCP/dhcp.c **** 			type = 0;
 817:ioLibrary_Driver-master/Internet/DHCP/dhcp.c **** 			OLD_allocated_ip[0] = DHCP_allocated_ip[0];
 818:ioLibrary_Driver-master/Internet/DHCP/dhcp.c **** 			OLD_allocated_ip[1] = DHCP_allocated_ip[1];
 819:ioLibrary_Driver-master/Internet/DHCP/dhcp.c **** 			OLD_allocated_ip[2] = DHCP_allocated_ip[2];
 820:ioLibrary_Driver-master/Internet/DHCP/dhcp.c **** 			OLD_allocated_ip[3] = DHCP_allocated_ip[3];
 821:ioLibrary_Driver-master/Internet/DHCP/dhcp.c **** 
 822:ioLibrary_Driver-master/Internet/DHCP/dhcp.c **** 			DHCP_XID++;
 823:ioLibrary_Driver-master/Internet/DHCP/dhcp.c **** 
 824:ioLibrary_Driver-master/Internet/DHCP/dhcp.c **** 			send_DHCP_REQUEST();
 825:ioLibrary_Driver-master/Internet/DHCP/dhcp.c **** 
 826:ioLibrary_Driver-master/Internet/DHCP/dhcp.c **** 			reset_DHCP_timeout();
 827:ioLibrary_Driver-master/Internet/DHCP/dhcp.c **** 
 828:ioLibrary_Driver-master/Internet/DHCP/dhcp.c **** 			dhcp_state = STATE_DHCP_REREQUEST;
 829:ioLibrary_Driver-master/Internet/DHCP/dhcp.c **** 		}
 830:ioLibrary_Driver-master/Internet/DHCP/dhcp.c **** 		break;
 831:ioLibrary_Driver-master/Internet/DHCP/dhcp.c **** 
 832:ioLibrary_Driver-master/Internet/DHCP/dhcp.c **** 	case STATE_DHCP_REREQUEST:
 833:ioLibrary_Driver-master/Internet/DHCP/dhcp.c **** 		ret = DHCP_IP_LEASED;
 834:ioLibrary_Driver-master/Internet/DHCP/dhcp.c **** 		if (type == DHCP_ACK)
 835:ioLibrary_Driver-master/Internet/DHCP/dhcp.c **** 		{
 836:ioLibrary_Driver-master/Internet/DHCP/dhcp.c **** 			dhcp_retry_count = 0;
 837:ioLibrary_Driver-master/Internet/DHCP/dhcp.c **** 			if (OLD_allocated_ip[0] != DHCP_allocated_ip[0] ||
 838:ioLibrary_Driver-master/Internet/DHCP/dhcp.c **** 				OLD_allocated_ip[1] != DHCP_allocated_ip[1] ||
 839:ioLibrary_Driver-master/Internet/DHCP/dhcp.c **** 				OLD_allocated_ip[2] != DHCP_allocated_ip[2] ||
 840:ioLibrary_Driver-master/Internet/DHCP/dhcp.c **** 				OLD_allocated_ip[3] != DHCP_allocated_ip[3])
 841:ioLibrary_Driver-master/Internet/DHCP/dhcp.c **** 			{
 842:ioLibrary_Driver-master/Internet/DHCP/dhcp.c **** 				ret = DHCP_IP_CHANGED;
 843:ioLibrary_Driver-master/Internet/DHCP/dhcp.c **** 				dhcp_ip_update();
 844:ioLibrary_Driver-master/Internet/DHCP/dhcp.c **** #ifdef _DHCP_DEBUG_
 845:ioLibrary_Driver-master/Internet/DHCP/dhcp.c **** 				printf(">IP changed.\r\n");
 846:ioLibrary_Driver-master/Internet/DHCP/dhcp.c **** #endif
 847:ioLibrary_Driver-master/Internet/DHCP/dhcp.c **** 			}
 848:ioLibrary_Driver-master/Internet/DHCP/dhcp.c **** #ifdef _DHCP_DEBUG_
 849:ioLibrary_Driver-master/Internet/DHCP/dhcp.c **** 			else
 850:ioLibrary_Driver-master/Internet/DHCP/dhcp.c **** 				printf(">IP is continued.\r\n");
 851:ioLibrary_Driver-master/Internet/DHCP/dhcp.c **** #endif
ARM GAS  C:\Users\VIDCOM~1\AppData\Local\Temp\cc9naxsX.s 			page 44


 852:ioLibrary_Driver-master/Internet/DHCP/dhcp.c **** 			reset_DHCP_timeout();
 853:ioLibrary_Driver-master/Internet/DHCP/dhcp.c **** 			dhcp_state = STATE_DHCP_LEASED;
 854:ioLibrary_Driver-master/Internet/DHCP/dhcp.c **** 		}
 855:ioLibrary_Driver-master/Internet/DHCP/dhcp.c **** 		else if (type == DHCP_NAK)
 856:ioLibrary_Driver-master/Internet/DHCP/dhcp.c **** 		{
 857:ioLibrary_Driver-master/Internet/DHCP/dhcp.c **** 
 858:ioLibrary_Driver-master/Internet/DHCP/dhcp.c **** #ifdef _DHCP_DEBUG_
 859:ioLibrary_Driver-master/Internet/DHCP/dhcp.c **** 			printf("> Receive DHCP_NACK, Failed to maintain ip\r\n");
 860:ioLibrary_Driver-master/Internet/DHCP/dhcp.c **** #endif
 861:ioLibrary_Driver-master/Internet/DHCP/dhcp.c **** 
 862:ioLibrary_Driver-master/Internet/DHCP/dhcp.c **** 			reset_DHCP_timeout();
 863:ioLibrary_Driver-master/Internet/DHCP/dhcp.c **** 
 864:ioLibrary_Driver-master/Internet/DHCP/dhcp.c **** 			dhcp_state = STATE_DHCP_DISCOVER;
 865:ioLibrary_Driver-master/Internet/DHCP/dhcp.c **** 		}
 866:ioLibrary_Driver-master/Internet/DHCP/dhcp.c **** 		else
 867:ioLibrary_Driver-master/Internet/DHCP/dhcp.c **** 			ret = check_DHCP_timeout();
 868:ioLibrary_Driver-master/Internet/DHCP/dhcp.c **** 		break;
 869:ioLibrary_Driver-master/Internet/DHCP/dhcp.c **** 	default:
 870:ioLibrary_Driver-master/Internet/DHCP/dhcp.c **** 		break;
 871:ioLibrary_Driver-master/Internet/DHCP/dhcp.c **** 	}
 872:ioLibrary_Driver-master/Internet/DHCP/dhcp.c **** 
 873:ioLibrary_Driver-master/Internet/DHCP/dhcp.c **** 	return ret;
 874:ioLibrary_Driver-master/Internet/DHCP/dhcp.c **** }
 875:ioLibrary_Driver-master/Internet/DHCP/dhcp.c **** 
 876:ioLibrary_Driver-master/Internet/DHCP/dhcp.c **** void DHCP_stop(void)
 877:ioLibrary_Driver-master/Internet/DHCP/dhcp.c **** {
 1390              		.loc 1 877 1 is_stmt 1 view -0
 1391              		.cfi_startproc
 1392              		@ args = 0, pretend = 0, frame = 0
 1393              		@ frame_needed = 0, uses_anonymous_args = 0
 1394 0000 08B5     		push	{r3, lr}
 1395              	.LCFI15:
 1396              		.cfi_def_cfa_offset 8
 1397              		.cfi_offset 3, -8
 1398              		.cfi_offset 14, -4
 878:ioLibrary_Driver-master/Internet/DHCP/dhcp.c **** 	close(DHCP_SOCKET);
 1399              		.loc 1 878 2 view .LVU480
 1400 0002 044B     		ldr	r3, .L78
 1401 0004 1878     		ldrb	r0, [r3]	@ zero_extendqisi2
 1402 0006 FFF7FEFF 		bl	close
 1403              	.LVL131:
 879:ioLibrary_Driver-master/Internet/DHCP/dhcp.c **** 	dhcp_state = STATE_DHCP_STOP;
 1404              		.loc 1 879 2 view .LVU481
 1405              		.loc 1 879 13 is_stmt 0 view .LVU482
 1406 000a 034B     		ldr	r3, .L78+4
 1407 000c 0622     		movs	r2, #6
 1408 000e 1A70     		strb	r2, [r3]
 880:ioLibrary_Driver-master/Internet/DHCP/dhcp.c **** }
 1409              		.loc 1 880 1 view .LVU483
 1410 0010 08BD     		pop	{r3, pc}
 1411              	.L79:
 1412 0012 00BF     		.align	2
 1413              	.L78:
 1414 0014 00000000 		.word	DHCP_SOCKET
 1415 0018 00000000 		.word	dhcp_state
 1416              		.cfi_endproc
 1417              	.LFE10:
ARM GAS  C:\Users\VIDCOM~1\AppData\Local\Temp\cc9naxsX.s 			page 45


 1419              		.section	.rodata.check_DHCP_leasedIP.str1.4,"aMS",%progbits,1
 1420              		.align	2
 1421              	.LC0:
 1422 0000 43484543 		.ascii	"CHECK_IP_CONFLICT\000"
 1422      4B5F4950 
 1422      5F434F4E 
 1422      464C4943 
 1422      5400
 1423              		.section	.text.check_DHCP_leasedIP,"ax",%progbits
 1424              		.align	1
 1425              		.global	check_DHCP_leasedIP
 1426              		.syntax unified
 1427              		.thumb
 1428              		.thumb_func
 1430              	check_DHCP_leasedIP:
 1431              	.LFB12:
 881:ioLibrary_Driver-master/Internet/DHCP/dhcp.c **** 
 882:ioLibrary_Driver-master/Internet/DHCP/dhcp.c **** uint8_t check_DHCP_timeout(void)
 883:ioLibrary_Driver-master/Internet/DHCP/dhcp.c **** {
 884:ioLibrary_Driver-master/Internet/DHCP/dhcp.c **** 	uint8_t ret = DHCP_RUNNING;
 885:ioLibrary_Driver-master/Internet/DHCP/dhcp.c **** 
 886:ioLibrary_Driver-master/Internet/DHCP/dhcp.c **** 	if (dhcp_retry_count < MAX_DHCP_RETRY)
 887:ioLibrary_Driver-master/Internet/DHCP/dhcp.c **** 	{
 888:ioLibrary_Driver-master/Internet/DHCP/dhcp.c **** 		if (dhcp_tick_next < dhcp_tick_1s)
 889:ioLibrary_Driver-master/Internet/DHCP/dhcp.c **** 		{
 890:ioLibrary_Driver-master/Internet/DHCP/dhcp.c **** 
 891:ioLibrary_Driver-master/Internet/DHCP/dhcp.c **** 			switch (dhcp_state)
 892:ioLibrary_Driver-master/Internet/DHCP/dhcp.c **** 			{
 893:ioLibrary_Driver-master/Internet/DHCP/dhcp.c **** 			case STATE_DHCP_DISCOVER:
 894:ioLibrary_Driver-master/Internet/DHCP/dhcp.c **** 				//					printf("<<timeout>> state : STATE_DHCP_DISCOVER\r\n");
 895:ioLibrary_Driver-master/Internet/DHCP/dhcp.c **** 				send_DHCP_DISCOVER();
 896:ioLibrary_Driver-master/Internet/DHCP/dhcp.c **** 				break;
 897:ioLibrary_Driver-master/Internet/DHCP/dhcp.c **** 
 898:ioLibrary_Driver-master/Internet/DHCP/dhcp.c **** 			case STATE_DHCP_REQUEST:
 899:ioLibrary_Driver-master/Internet/DHCP/dhcp.c **** 				//					printf("<<timeout>> state : STATE_DHCP_REQUEST\r\n");
 900:ioLibrary_Driver-master/Internet/DHCP/dhcp.c **** 
 901:ioLibrary_Driver-master/Internet/DHCP/dhcp.c **** 				send_DHCP_REQUEST();
 902:ioLibrary_Driver-master/Internet/DHCP/dhcp.c **** 				break;
 903:ioLibrary_Driver-master/Internet/DHCP/dhcp.c **** 
 904:ioLibrary_Driver-master/Internet/DHCP/dhcp.c **** 			case STATE_DHCP_REREQUEST:
 905:ioLibrary_Driver-master/Internet/DHCP/dhcp.c **** 				//					printf("<<timeout>> state : STATE_DHCP_REREQUEST\r\n");
 906:ioLibrary_Driver-master/Internet/DHCP/dhcp.c **** 
 907:ioLibrary_Driver-master/Internet/DHCP/dhcp.c **** 				send_DHCP_REQUEST();
 908:ioLibrary_Driver-master/Internet/DHCP/dhcp.c **** 				break;
 909:ioLibrary_Driver-master/Internet/DHCP/dhcp.c **** 
 910:ioLibrary_Driver-master/Internet/DHCP/dhcp.c **** 			default:
 911:ioLibrary_Driver-master/Internet/DHCP/dhcp.c **** 				break;
 912:ioLibrary_Driver-master/Internet/DHCP/dhcp.c **** 			}
 913:ioLibrary_Driver-master/Internet/DHCP/dhcp.c **** 
 914:ioLibrary_Driver-master/Internet/DHCP/dhcp.c **** 			dhcp_tick_1s = 0;
 915:ioLibrary_Driver-master/Internet/DHCP/dhcp.c **** 			dhcp_tick_next = dhcp_tick_1s + DHCP_WAIT_TIME;
 916:ioLibrary_Driver-master/Internet/DHCP/dhcp.c **** 			dhcp_retry_count++;
 917:ioLibrary_Driver-master/Internet/DHCP/dhcp.c **** 		}
 918:ioLibrary_Driver-master/Internet/DHCP/dhcp.c **** 	}
 919:ioLibrary_Driver-master/Internet/DHCP/dhcp.c **** 	else
 920:ioLibrary_Driver-master/Internet/DHCP/dhcp.c **** 	{ // timeout occurred
 921:ioLibrary_Driver-master/Internet/DHCP/dhcp.c **** 
ARM GAS  C:\Users\VIDCOM~1\AppData\Local\Temp\cc9naxsX.s 			page 46


 922:ioLibrary_Driver-master/Internet/DHCP/dhcp.c **** 		switch (dhcp_state)
 923:ioLibrary_Driver-master/Internet/DHCP/dhcp.c **** 		{
 924:ioLibrary_Driver-master/Internet/DHCP/dhcp.c **** 		case STATE_DHCP_DISCOVER:
 925:ioLibrary_Driver-master/Internet/DHCP/dhcp.c **** 			dhcp_state = STATE_DHCP_INIT;
 926:ioLibrary_Driver-master/Internet/DHCP/dhcp.c **** 			ret = DHCP_FAILED;
 927:ioLibrary_Driver-master/Internet/DHCP/dhcp.c **** 			break;
 928:ioLibrary_Driver-master/Internet/DHCP/dhcp.c **** 		case STATE_DHCP_REQUEST:
 929:ioLibrary_Driver-master/Internet/DHCP/dhcp.c **** 		case STATE_DHCP_REREQUEST:
 930:ioLibrary_Driver-master/Internet/DHCP/dhcp.c **** 			send_DHCP_DISCOVER();
 931:ioLibrary_Driver-master/Internet/DHCP/dhcp.c **** 			dhcp_state = STATE_DHCP_DISCOVER;
 932:ioLibrary_Driver-master/Internet/DHCP/dhcp.c **** 			break;
 933:ioLibrary_Driver-master/Internet/DHCP/dhcp.c **** 		default:
 934:ioLibrary_Driver-master/Internet/DHCP/dhcp.c **** 			break;
 935:ioLibrary_Driver-master/Internet/DHCP/dhcp.c **** 		}
 936:ioLibrary_Driver-master/Internet/DHCP/dhcp.c **** 		reset_DHCP_timeout();
 937:ioLibrary_Driver-master/Internet/DHCP/dhcp.c **** 	}
 938:ioLibrary_Driver-master/Internet/DHCP/dhcp.c **** 	return ret;
 939:ioLibrary_Driver-master/Internet/DHCP/dhcp.c **** }
 940:ioLibrary_Driver-master/Internet/DHCP/dhcp.c **** 
 941:ioLibrary_Driver-master/Internet/DHCP/dhcp.c **** int8_t check_DHCP_leasedIP(void)
 942:ioLibrary_Driver-master/Internet/DHCP/dhcp.c **** {
 1432              		.loc 1 942 1 is_stmt 1 view -0
 1433              		.cfi_startproc
 1434              		@ args = 0, pretend = 0, frame = 0
 1435              		@ frame_needed = 0, uses_anonymous_args = 0
 1436 0000 30B5     		push	{r4, r5, lr}
 1437              	.LCFI16:
 1438              		.cfi_def_cfa_offset 12
 1439              		.cfi_offset 4, -12
 1440              		.cfi_offset 5, -8
 1441              		.cfi_offset 14, -4
 1442 0002 83B0     		sub	sp, sp, #12
 1443              	.LCFI17:
 1444              		.cfi_def_cfa_offset 24
 943:ioLibrary_Driver-master/Internet/DHCP/dhcp.c **** 	uint8_t tmp;
 1445              		.loc 1 943 2 view .LVU485
 944:ioLibrary_Driver-master/Internet/DHCP/dhcp.c **** 	int32_t ret;
 1446              		.loc 1 944 2 view .LVU486
 945:ioLibrary_Driver-master/Internet/DHCP/dhcp.c **** 
 946:ioLibrary_Driver-master/Internet/DHCP/dhcp.c **** 	// WIZchip RCR value changed for ARP Timeout count control
 947:ioLibrary_Driver-master/Internet/DHCP/dhcp.c **** 	tmp = getRCR();
 1447              		.loc 1 947 2 view .LVU487
 1448              		.loc 1 947 8 is_stmt 0 view .LVU488
 1449 0004 4FF4D850 		mov	r0, #6912
 1450 0008 FFF7FEFF 		bl	WIZCHIP_READ
 1451              	.LVL132:
 1452 000c 0546     		mov	r5, r0
 1453              	.LVL133:
 948:ioLibrary_Driver-master/Internet/DHCP/dhcp.c **** 	setRCR(0x03);
 1454              		.loc 1 948 2 is_stmt 1 view .LVU489
 1455 000e 0321     		movs	r1, #3
 1456 0010 4FF4D850 		mov	r0, #6912
 1457 0014 FFF7FEFF 		bl	WIZCHIP_WRITE
 1458              	.LVL134:
 949:ioLibrary_Driver-master/Internet/DHCP/dhcp.c **** 
 950:ioLibrary_Driver-master/Internet/DHCP/dhcp.c **** 	// IP conflict detection : ARP request - ARP reply
 951:ioLibrary_Driver-master/Internet/DHCP/dhcp.c **** 	// Broadcasting ARP Request for check the IP conflict using UDP sendto() function
ARM GAS  C:\Users\VIDCOM~1\AppData\Local\Temp\cc9naxsX.s 			page 47


 952:ioLibrary_Driver-master/Internet/DHCP/dhcp.c **** 	ret = sendto(DHCP_SOCKET, (uint8_t *)"CHECK_IP_CONFLICT", 17, DHCP_allocated_ip, 5000);
 1459              		.loc 1 952 2 view .LVU490
 1460              		.loc 1 952 8 is_stmt 0 view .LVU491
 1461 0018 41F28833 		movw	r3, #5000
 1462 001c 0093     		str	r3, [sp]
 1463 001e 0F4B     		ldr	r3, .L86
 1464 0020 1122     		movs	r2, #17
 1465 0022 0F49     		ldr	r1, .L86+4
 1466 0024 0F48     		ldr	r0, .L86+8
 1467 0026 0078     		ldrb	r0, [r0]	@ zero_extendqisi2
 1468 0028 FFF7FEFF 		bl	sendto
 1469              	.LVL135:
 1470 002c 0446     		mov	r4, r0
 1471              	.LVL136:
 953:ioLibrary_Driver-master/Internet/DHCP/dhcp.c **** 
 954:ioLibrary_Driver-master/Internet/DHCP/dhcp.c **** 	// RCR value restore
 955:ioLibrary_Driver-master/Internet/DHCP/dhcp.c **** 	setRCR(tmp);
 1472              		.loc 1 955 2 is_stmt 1 view .LVU492
 1473 002e 2946     		mov	r1, r5
 1474 0030 4FF4D850 		mov	r0, #6912
 1475              	.LVL137:
 1476              		.loc 1 955 2 is_stmt 0 view .LVU493
 1477 0034 FFF7FEFF 		bl	WIZCHIP_WRITE
 1478              	.LVL138:
 956:ioLibrary_Driver-master/Internet/DHCP/dhcp.c **** 
 957:ioLibrary_Driver-master/Internet/DHCP/dhcp.c **** 	if (ret == SOCKERR_TIMEOUT)
 1479              		.loc 1 957 2 is_stmt 1 view .LVU494
 1480              		.loc 1 957 5 is_stmt 0 view .LVU495
 1481 0038 14F10D0F 		cmn	r4, #13
 1482 003c 02D1     		bne	.L85
 958:ioLibrary_Driver-master/Internet/DHCP/dhcp.c **** 	{
 959:ioLibrary_Driver-master/Internet/DHCP/dhcp.c **** 		// UDP send Timeout occurred : allocated IP address is unique, DHCP Success
 960:ioLibrary_Driver-master/Internet/DHCP/dhcp.c **** 
 961:ioLibrary_Driver-master/Internet/DHCP/dhcp.c **** #ifdef _DHCP_DEBUG_
 962:ioLibrary_Driver-master/Internet/DHCP/dhcp.c **** 		printf("\r\n> Check leased IP - OK\r\n");
 963:ioLibrary_Driver-master/Internet/DHCP/dhcp.c **** #endif
 964:ioLibrary_Driver-master/Internet/DHCP/dhcp.c **** 
 965:ioLibrary_Driver-master/Internet/DHCP/dhcp.c **** 		return 1;
 1483              		.loc 1 965 10 view .LVU496
 1484 003e 0120     		movs	r0, #1
 1485              	.LVL139:
 1486              	.L81:
 966:ioLibrary_Driver-master/Internet/DHCP/dhcp.c **** 	}
 967:ioLibrary_Driver-master/Internet/DHCP/dhcp.c **** 	else
 968:ioLibrary_Driver-master/Internet/DHCP/dhcp.c **** 	{
 969:ioLibrary_Driver-master/Internet/DHCP/dhcp.c **** 		// Received ARP reply or etc : IP address conflict occur, DHCP Failed
 970:ioLibrary_Driver-master/Internet/DHCP/dhcp.c **** 		send_DHCP_DECLINE();
 971:ioLibrary_Driver-master/Internet/DHCP/dhcp.c **** 
 972:ioLibrary_Driver-master/Internet/DHCP/dhcp.c **** 		ret = dhcp_tick_1s;
 973:ioLibrary_Driver-master/Internet/DHCP/dhcp.c **** 		while ((dhcp_tick_1s - ret) < 2)
 974:ioLibrary_Driver-master/Internet/DHCP/dhcp.c **** 			; // wait for 1s over; wait to complete to send DECLINE message;
 975:ioLibrary_Driver-master/Internet/DHCP/dhcp.c **** 
 976:ioLibrary_Driver-master/Internet/DHCP/dhcp.c **** 		return 0;
 977:ioLibrary_Driver-master/Internet/DHCP/dhcp.c **** 	}
 978:ioLibrary_Driver-master/Internet/DHCP/dhcp.c **** }
 1487              		.loc 1 978 1 view .LVU497
 1488 0040 03B0     		add	sp, sp, #12
ARM GAS  C:\Users\VIDCOM~1\AppData\Local\Temp\cc9naxsX.s 			page 48


 1489              	.LCFI18:
 1490              		.cfi_remember_state
 1491              		.cfi_def_cfa_offset 12
 1492              		@ sp needed
 1493 0042 30BD     		pop	{r4, r5, pc}
 1494              	.LVL140:
 1495              	.L85:
 1496              	.LCFI19:
 1497              		.cfi_restore_state
 970:ioLibrary_Driver-master/Internet/DHCP/dhcp.c **** 
 1498              		.loc 1 970 3 is_stmt 1 view .LVU498
 1499 0044 FFF7FEFF 		bl	send_DHCP_DECLINE
 1500              	.LVL141:
 972:ioLibrary_Driver-master/Internet/DHCP/dhcp.c **** 		while ((dhcp_tick_1s - ret) < 2)
 1501              		.loc 1 972 3 view .LVU499
 972:ioLibrary_Driver-master/Internet/DHCP/dhcp.c **** 		while ((dhcp_tick_1s - ret) < 2)
 1502              		.loc 1 972 7 is_stmt 0 view .LVU500
 1503 0048 074B     		ldr	r3, .L86+12
 1504 004a 1A68     		ldr	r2, [r3]
 1505              	.LVL142:
 973:ioLibrary_Driver-master/Internet/DHCP/dhcp.c **** 			; // wait for 1s over; wait to complete to send DECLINE message;
 1506              		.loc 1 973 3 is_stmt 1 view .LVU501
 1507              	.L82:
 973:ioLibrary_Driver-master/Internet/DHCP/dhcp.c **** 			; // wait for 1s over; wait to complete to send DECLINE message;
 1508              		.loc 1 973 31 discriminator 1 view .LVU502
 973:ioLibrary_Driver-master/Internet/DHCP/dhcp.c **** 			; // wait for 1s over; wait to complete to send DECLINE message;
 1509              		.loc 1 973 24 is_stmt 0 discriminator 1 view .LVU503
 1510 004c 064B     		ldr	r3, .L86+12
 1511 004e 1B68     		ldr	r3, [r3]
 1512 0050 9B1A     		subs	r3, r3, r2
 973:ioLibrary_Driver-master/Internet/DHCP/dhcp.c **** 			; // wait for 1s over; wait to complete to send DECLINE message;
 1513              		.loc 1 973 31 discriminator 1 view .LVU504
 1514 0052 012B     		cmp	r3, #1
 1515 0054 FAD9     		bls	.L82
 976:ioLibrary_Driver-master/Internet/DHCP/dhcp.c **** 	}
 1516              		.loc 1 976 10 view .LVU505
 1517 0056 0020     		movs	r0, #0
 1518 0058 F2E7     		b	.L81
 1519              	.L87:
 1520 005a 00BF     		.align	2
 1521              	.L86:
 1522 005c 00000000 		.word	DHCP_allocated_ip
 1523 0060 00000000 		.word	.LC0
 1524 0064 00000000 		.word	DHCP_SOCKET
 1525 0068 00000000 		.word	dhcp_tick_1s
 1526              		.cfi_endproc
 1527              	.LFE12:
 1529              		.section	.text.reset_DHCP_timeout,"ax",%progbits
 1530              		.align	1
 1531              		.global	reset_DHCP_timeout
 1532              		.syntax unified
 1533              		.thumb
 1534              		.thumb_func
 1536              	reset_DHCP_timeout:
 1537              	.LFB14:
 979:ioLibrary_Driver-master/Internet/DHCP/dhcp.c **** 
 980:ioLibrary_Driver-master/Internet/DHCP/dhcp.c **** void DHCP_init(uint8_t s, uint8_t *buf)
ARM GAS  C:\Users\VIDCOM~1\AppData\Local\Temp\cc9naxsX.s 			page 49


 981:ioLibrary_Driver-master/Internet/DHCP/dhcp.c **** {
 982:ioLibrary_Driver-master/Internet/DHCP/dhcp.c **** 	uint8_t zeroip[4] = {0, 0, 0, 0};
 983:ioLibrary_Driver-master/Internet/DHCP/dhcp.c **** 	getSHAR(DHCP_CHADDR);
 984:ioLibrary_Driver-master/Internet/DHCP/dhcp.c **** 	if ((DHCP_CHADDR[0] | DHCP_CHADDR[1] | DHCP_CHADDR[2] | DHCP_CHADDR[3] | DHCP_CHADDR[4] | DHCP_CHA
 985:ioLibrary_Driver-master/Internet/DHCP/dhcp.c **** 	{
 986:ioLibrary_Driver-master/Internet/DHCP/dhcp.c **** 		// assigning temporary mac address, you should be set SHAR before call this function.
 987:ioLibrary_Driver-master/Internet/DHCP/dhcp.c **** 		DHCP_CHADDR[0] = 0x00;
 988:ioLibrary_Driver-master/Internet/DHCP/dhcp.c **** 		DHCP_CHADDR[1] = 0x08;
 989:ioLibrary_Driver-master/Internet/DHCP/dhcp.c **** 		DHCP_CHADDR[2] = 0xdc;
 990:ioLibrary_Driver-master/Internet/DHCP/dhcp.c **** 		DHCP_CHADDR[3] = 0x00;
 991:ioLibrary_Driver-master/Internet/DHCP/dhcp.c **** 		DHCP_CHADDR[4] = 0x00;
 992:ioLibrary_Driver-master/Internet/DHCP/dhcp.c **** 		DHCP_CHADDR[5] = 0x00;
 993:ioLibrary_Driver-master/Internet/DHCP/dhcp.c **** 		setSHAR(DHCP_CHADDR);
 994:ioLibrary_Driver-master/Internet/DHCP/dhcp.c **** 	}
 995:ioLibrary_Driver-master/Internet/DHCP/dhcp.c **** 
 996:ioLibrary_Driver-master/Internet/DHCP/dhcp.c **** 	DHCP_SOCKET = s; // SOCK_DHCP
 997:ioLibrary_Driver-master/Internet/DHCP/dhcp.c **** 	pDHCPMSG = (RIP_MSG *)buf;
 998:ioLibrary_Driver-master/Internet/DHCP/dhcp.c **** 	DHCP_XID = 0x12345678;
 999:ioLibrary_Driver-master/Internet/DHCP/dhcp.c **** 	{
1000:ioLibrary_Driver-master/Internet/DHCP/dhcp.c **** 		DHCP_XID += DHCP_CHADDR[3];
1001:ioLibrary_Driver-master/Internet/DHCP/dhcp.c **** 		DHCP_XID += DHCP_CHADDR[4];
1002:ioLibrary_Driver-master/Internet/DHCP/dhcp.c **** 		DHCP_XID += DHCP_CHADDR[5];
1003:ioLibrary_Driver-master/Internet/DHCP/dhcp.c **** 		DHCP_XID += (DHCP_CHADDR[3] ^ DHCP_CHADDR[4] ^ DHCP_CHADDR[5]);
1004:ioLibrary_Driver-master/Internet/DHCP/dhcp.c **** 	}
1005:ioLibrary_Driver-master/Internet/DHCP/dhcp.c **** 	// WIZchip Netinfo Clear
1006:ioLibrary_Driver-master/Internet/DHCP/dhcp.c **** 	setSIPR(zeroip);
1007:ioLibrary_Driver-master/Internet/DHCP/dhcp.c **** 	setGAR(zeroip);
1008:ioLibrary_Driver-master/Internet/DHCP/dhcp.c **** 
1009:ioLibrary_Driver-master/Internet/DHCP/dhcp.c **** 	reset_DHCP_timeout();
1010:ioLibrary_Driver-master/Internet/DHCP/dhcp.c **** 	dhcp_state = STATE_DHCP_INIT;
1011:ioLibrary_Driver-master/Internet/DHCP/dhcp.c **** }
1012:ioLibrary_Driver-master/Internet/DHCP/dhcp.c **** 
1013:ioLibrary_Driver-master/Internet/DHCP/dhcp.c **** /* Reset the DHCP timeout count and retry count. */
1014:ioLibrary_Driver-master/Internet/DHCP/dhcp.c **** void reset_DHCP_timeout(void)
1015:ioLibrary_Driver-master/Internet/DHCP/dhcp.c **** {
 1538              		.loc 1 1015 1 is_stmt 1 view -0
 1539              		.cfi_startproc
 1540              		@ args = 0, pretend = 0, frame = 0
 1541              		@ frame_needed = 0, uses_anonymous_args = 0
 1542              		@ link register save eliminated.
1016:ioLibrary_Driver-master/Internet/DHCP/dhcp.c **** 	dhcp_tick_1s = 0;
 1543              		.loc 1 1016 2 view .LVU507
 1544              		.loc 1 1016 15 is_stmt 0 view .LVU508
 1545 0000 0023     		movs	r3, #0
 1546 0002 044A     		ldr	r2, .L89
 1547 0004 1360     		str	r3, [r2]
1017:ioLibrary_Driver-master/Internet/DHCP/dhcp.c **** 	dhcp_tick_next = DHCP_WAIT_TIME;
 1548              		.loc 1 1017 2 is_stmt 1 view .LVU509
 1549              		.loc 1 1017 17 is_stmt 0 view .LVU510
 1550 0006 044A     		ldr	r2, .L89+4
 1551 0008 0A21     		movs	r1, #10
 1552 000a 1160     		str	r1, [r2]
1018:ioLibrary_Driver-master/Internet/DHCP/dhcp.c **** 	dhcp_retry_count = 0;
 1553              		.loc 1 1018 2 is_stmt 1 view .LVU511
 1554              		.loc 1 1018 19 is_stmt 0 view .LVU512
 1555 000c 034A     		ldr	r2, .L89+8
 1556 000e 1370     		strb	r3, [r2]
ARM GAS  C:\Users\VIDCOM~1\AppData\Local\Temp\cc9naxsX.s 			page 50


1019:ioLibrary_Driver-master/Internet/DHCP/dhcp.c **** }
 1557              		.loc 1 1019 1 view .LVU513
 1558 0010 7047     		bx	lr
 1559              	.L90:
 1560 0012 00BF     		.align	2
 1561              	.L89:
 1562 0014 00000000 		.word	dhcp_tick_1s
 1563 0018 00000000 		.word	dhcp_tick_next
 1564 001c 00000000 		.word	dhcp_retry_count
 1565              		.cfi_endproc
 1566              	.LFE14:
 1568              		.section	.text.DHCP_init,"ax",%progbits
 1569              		.align	1
 1570              		.global	DHCP_init
 1571              		.syntax unified
 1572              		.thumb
 1573              		.thumb_func
 1575              	DHCP_init:
 1576              	.LVL143:
 1577              	.LFB13:
 981:ioLibrary_Driver-master/Internet/DHCP/dhcp.c **** 	uint8_t zeroip[4] = {0, 0, 0, 0};
 1578              		.loc 1 981 1 is_stmt 1 view -0
 1579              		.cfi_startproc
 1580              		@ args = 0, pretend = 0, frame = 8
 1581              		@ frame_needed = 0, uses_anonymous_args = 0
 981:ioLibrary_Driver-master/Internet/DHCP/dhcp.c **** 	uint8_t zeroip[4] = {0, 0, 0, 0};
 1582              		.loc 1 981 1 is_stmt 0 view .LVU515
 1583 0000 70B5     		push	{r4, r5, r6, lr}
 1584              	.LCFI20:
 1585              		.cfi_def_cfa_offset 16
 1586              		.cfi_offset 4, -16
 1587              		.cfi_offset 5, -12
 1588              		.cfi_offset 6, -8
 1589              		.cfi_offset 14, -4
 1590 0002 82B0     		sub	sp, sp, #8
 1591              	.LCFI21:
 1592              		.cfi_def_cfa_offset 24
 1593 0004 0646     		mov	r6, r0
 1594 0006 0D46     		mov	r5, r1
 982:ioLibrary_Driver-master/Internet/DHCP/dhcp.c **** 	getSHAR(DHCP_CHADDR);
 1595              		.loc 1 982 2 is_stmt 1 view .LVU516
 982:ioLibrary_Driver-master/Internet/DHCP/dhcp.c **** 	getSHAR(DHCP_CHADDR);
 1596              		.loc 1 982 10 is_stmt 0 view .LVU517
 1597 0008 0023     		movs	r3, #0
 1598 000a 0193     		str	r3, [sp, #4]
 983:ioLibrary_Driver-master/Internet/DHCP/dhcp.c **** 	if ((DHCP_CHADDR[0] | DHCP_CHADDR[1] | DHCP_CHADDR[2] | DHCP_CHADDR[3] | DHCP_CHADDR[4] | DHCP_CHA
 1599              		.loc 1 983 2 is_stmt 1 view .LVU518
 1600 000c 274C     		ldr	r4, .L95
 1601 000e 0622     		movs	r2, #6
 1602 0010 2146     		mov	r1, r4
 1603              	.LVL144:
 983:ioLibrary_Driver-master/Internet/DHCP/dhcp.c **** 	if ((DHCP_CHADDR[0] | DHCP_CHADDR[1] | DHCP_CHADDR[2] | DHCP_CHADDR[3] | DHCP_CHADDR[4] | DHCP_CHA
 1604              		.loc 1 983 2 is_stmt 0 view .LVU519
 1605 0012 4FF41060 		mov	r0, #2304
 1606              	.LVL145:
 983:ioLibrary_Driver-master/Internet/DHCP/dhcp.c **** 	if ((DHCP_CHADDR[0] | DHCP_CHADDR[1] | DHCP_CHADDR[2] | DHCP_CHADDR[3] | DHCP_CHADDR[4] | DHCP_CHA
 1607              		.loc 1 983 2 view .LVU520
ARM GAS  C:\Users\VIDCOM~1\AppData\Local\Temp\cc9naxsX.s 			page 51


 1608 0016 FFF7FEFF 		bl	WIZCHIP_READ_BUF
 1609              	.LVL146:
 984:ioLibrary_Driver-master/Internet/DHCP/dhcp.c **** 	{
 1610              		.loc 1 984 2 is_stmt 1 view .LVU521
 984:ioLibrary_Driver-master/Internet/DHCP/dhcp.c **** 	{
 1611              		.loc 1 984 18 is_stmt 0 view .LVU522
 1612 001a 2078     		ldrb	r0, [r4]	@ zero_extendqisi2
 984:ioLibrary_Driver-master/Internet/DHCP/dhcp.c **** 	{
 1613              		.loc 1 984 35 view .LVU523
 1614 001c 94F801C0 		ldrb	ip, [r4, #1]	@ zero_extendqisi2
 984:ioLibrary_Driver-master/Internet/DHCP/dhcp.c **** 	{
 1615              		.loc 1 984 52 view .LVU524
 1616 0020 A178     		ldrb	r1, [r4, #2]	@ zero_extendqisi2
 984:ioLibrary_Driver-master/Internet/DHCP/dhcp.c **** 	{
 1617              		.loc 1 984 69 view .LVU525
 1618 0022 E278     		ldrb	r2, [r4, #3]	@ zero_extendqisi2
 984:ioLibrary_Driver-master/Internet/DHCP/dhcp.c **** 	{
 1619              		.loc 1 984 86 view .LVU526
 1620 0024 2379     		ldrb	r3, [r4, #4]	@ zero_extendqisi2
 984:ioLibrary_Driver-master/Internet/DHCP/dhcp.c **** 	{
 1621              		.loc 1 984 103 view .LVU527
 1622 0026 6479     		ldrb	r4, [r4, #5]	@ zero_extendqisi2
 984:ioLibrary_Driver-master/Internet/DHCP/dhcp.c **** 	{
 1623              		.loc 1 984 108 view .LVU528
 1624 0028 40EA0C00 		orr	r0, r0, ip
 1625 002c 0143     		orrs	r1, r1, r0
 1626 002e 0A43     		orrs	r2, r2, r1
 1627 0030 1343     		orrs	r3, r3, r2
 984:ioLibrary_Driver-master/Internet/DHCP/dhcp.c **** 	{
 1628              		.loc 1 984 5 view .LVU529
 1629 0032 1C43     		orrs	r4, r4, r3
 1630 0034 29D0     		beq	.L94
 1631              	.L92:
 996:ioLibrary_Driver-master/Internet/DHCP/dhcp.c **** 	pDHCPMSG = (RIP_MSG *)buf;
 1632              		.loc 1 996 2 is_stmt 1 view .LVU530
 996:ioLibrary_Driver-master/Internet/DHCP/dhcp.c **** 	pDHCPMSG = (RIP_MSG *)buf;
 1633              		.loc 1 996 14 is_stmt 0 view .LVU531
 1634 0036 1E4B     		ldr	r3, .L95+4
 1635 0038 1E70     		strb	r6, [r3]
 997:ioLibrary_Driver-master/Internet/DHCP/dhcp.c **** 	DHCP_XID = 0x12345678;
 1636              		.loc 1 997 2 is_stmt 1 view .LVU532
 997:ioLibrary_Driver-master/Internet/DHCP/dhcp.c **** 	DHCP_XID = 0x12345678;
 1637              		.loc 1 997 11 is_stmt 0 view .LVU533
 1638 003a 1E4B     		ldr	r3, .L95+8
 1639 003c 1D60     		str	r5, [r3]
 998:ioLibrary_Driver-master/Internet/DHCP/dhcp.c **** 	{
 1640              		.loc 1 998 2 is_stmt 1 view .LVU534
 998:ioLibrary_Driver-master/Internet/DHCP/dhcp.c **** 	{
 1641              		.loc 1 998 11 is_stmt 0 view .LVU535
 1642 003e 1E4A     		ldr	r2, .L95+12
 1643 0040 1E4B     		ldr	r3, .L95+16
 1644 0042 1360     		str	r3, [r2]
1000:ioLibrary_Driver-master/Internet/DHCP/dhcp.c **** 		DHCP_XID += DHCP_CHADDR[4];
 1645              		.loc 1 1000 3 is_stmt 1 view .LVU536
1000:ioLibrary_Driver-master/Internet/DHCP/dhcp.c **** 		DHCP_XID += DHCP_CHADDR[4];
 1646              		.loc 1 1000 26 is_stmt 0 view .LVU537
 1647 0044 1949     		ldr	r1, .L95
ARM GAS  C:\Users\VIDCOM~1\AppData\Local\Temp\cc9naxsX.s 			page 52


 1648 0046 C878     		ldrb	r0, [r1, #3]	@ zero_extendqisi2
1000:ioLibrary_Driver-master/Internet/DHCP/dhcp.c **** 		DHCP_XID += DHCP_CHADDR[4];
 1649              		.loc 1 1000 12 view .LVU538
 1650 0048 0344     		add	r3, r3, r0
 1651 004a 1360     		str	r3, [r2]
1001:ioLibrary_Driver-master/Internet/DHCP/dhcp.c **** 		DHCP_XID += DHCP_CHADDR[5];
 1652              		.loc 1 1001 3 is_stmt 1 view .LVU539
1001:ioLibrary_Driver-master/Internet/DHCP/dhcp.c **** 		DHCP_XID += DHCP_CHADDR[5];
 1653              		.loc 1 1001 26 is_stmt 0 view .LVU540
 1654 004c 0C79     		ldrb	r4, [r1, #4]	@ zero_extendqisi2
1001:ioLibrary_Driver-master/Internet/DHCP/dhcp.c **** 		DHCP_XID += DHCP_CHADDR[5];
 1655              		.loc 1 1001 12 view .LVU541
 1656 004e 2344     		add	r3, r3, r4
 1657 0050 1360     		str	r3, [r2]
1002:ioLibrary_Driver-master/Internet/DHCP/dhcp.c **** 		DHCP_XID += (DHCP_CHADDR[3] ^ DHCP_CHADDR[4] ^ DHCP_CHADDR[5]);
 1658              		.loc 1 1002 3 is_stmt 1 view .LVU542
1002:ioLibrary_Driver-master/Internet/DHCP/dhcp.c **** 		DHCP_XID += (DHCP_CHADDR[3] ^ DHCP_CHADDR[4] ^ DHCP_CHADDR[5]);
 1659              		.loc 1 1002 26 is_stmt 0 view .LVU543
 1660 0052 4979     		ldrb	r1, [r1, #5]	@ zero_extendqisi2
1002:ioLibrary_Driver-master/Internet/DHCP/dhcp.c **** 		DHCP_XID += (DHCP_CHADDR[3] ^ DHCP_CHADDR[4] ^ DHCP_CHADDR[5]);
 1661              		.loc 1 1002 12 view .LVU544
 1662 0054 0B44     		add	r3, r3, r1
 1663 0056 1360     		str	r3, [r2]
1003:ioLibrary_Driver-master/Internet/DHCP/dhcp.c **** 	}
 1664              		.loc 1 1003 3 is_stmt 1 view .LVU545
1003:ioLibrary_Driver-master/Internet/DHCP/dhcp.c **** 	}
 1665              		.loc 1 1003 48 is_stmt 0 view .LVU546
 1666 0058 6040     		eors	r0, r0, r4
 1667 005a 4140     		eors	r1, r1, r0
1003:ioLibrary_Driver-master/Internet/DHCP/dhcp.c **** 	}
 1668              		.loc 1 1003 12 view .LVU547
 1669 005c 0B44     		add	r3, r3, r1
 1670 005e 1360     		str	r3, [r2]
1006:ioLibrary_Driver-master/Internet/DHCP/dhcp.c **** 	setGAR(zeroip);
 1671              		.loc 1 1006 2 is_stmt 1 view .LVU548
 1672 0060 0422     		movs	r2, #4
 1673 0062 0DEB0201 		add	r1, sp, r2
 1674 0066 4FF47060 		mov	r0, #3840
 1675 006a FFF7FEFF 		bl	WIZCHIP_WRITE_BUF
 1676              	.LVL147:
1007:ioLibrary_Driver-master/Internet/DHCP/dhcp.c **** 
 1677              		.loc 1 1007 2 view .LVU549
 1678 006e 0422     		movs	r2, #4
 1679 0070 0DEB0201 		add	r1, sp, r2
 1680 0074 4FF48070 		mov	r0, #256
 1681 0078 FFF7FEFF 		bl	WIZCHIP_WRITE_BUF
 1682              	.LVL148:
1009:ioLibrary_Driver-master/Internet/DHCP/dhcp.c **** 	dhcp_state = STATE_DHCP_INIT;
 1683              		.loc 1 1009 2 view .LVU550
 1684 007c FFF7FEFF 		bl	reset_DHCP_timeout
 1685              	.LVL149:
1010:ioLibrary_Driver-master/Internet/DHCP/dhcp.c **** }
 1686              		.loc 1 1010 2 view .LVU551
1010:ioLibrary_Driver-master/Internet/DHCP/dhcp.c **** }
 1687              		.loc 1 1010 13 is_stmt 0 view .LVU552
 1688 0080 0F4B     		ldr	r3, .L95+20
 1689 0082 0022     		movs	r2, #0
ARM GAS  C:\Users\VIDCOM~1\AppData\Local\Temp\cc9naxsX.s 			page 53


 1690 0084 1A70     		strb	r2, [r3]
1011:ioLibrary_Driver-master/Internet/DHCP/dhcp.c **** 
 1691              		.loc 1 1011 1 view .LVU553
 1692 0086 02B0     		add	sp, sp, #8
 1693              	.LCFI22:
 1694              		.cfi_remember_state
 1695              		.cfi_def_cfa_offset 16
 1696              		@ sp needed
 1697 0088 70BD     		pop	{r4, r5, r6, pc}
 1698              	.LVL150:
 1699              	.L94:
 1700              	.LCFI23:
 1701              		.cfi_restore_state
 987:ioLibrary_Driver-master/Internet/DHCP/dhcp.c **** 		DHCP_CHADDR[1] = 0x08;
 1702              		.loc 1 987 3 is_stmt 1 view .LVU554
 987:ioLibrary_Driver-master/Internet/DHCP/dhcp.c **** 		DHCP_CHADDR[1] = 0x08;
 1703              		.loc 1 987 18 is_stmt 0 view .LVU555
 1704 008a 0849     		ldr	r1, .L95
 1705 008c 0023     		movs	r3, #0
 1706 008e 0B70     		strb	r3, [r1]
 988:ioLibrary_Driver-master/Internet/DHCP/dhcp.c **** 		DHCP_CHADDR[2] = 0xdc;
 1707              		.loc 1 988 3 is_stmt 1 view .LVU556
 988:ioLibrary_Driver-master/Internet/DHCP/dhcp.c **** 		DHCP_CHADDR[2] = 0xdc;
 1708              		.loc 1 988 18 is_stmt 0 view .LVU557
 1709 0090 0822     		movs	r2, #8
 1710 0092 4A70     		strb	r2, [r1, #1]
 989:ioLibrary_Driver-master/Internet/DHCP/dhcp.c **** 		DHCP_CHADDR[3] = 0x00;
 1711              		.loc 1 989 3 is_stmt 1 view .LVU558
 989:ioLibrary_Driver-master/Internet/DHCP/dhcp.c **** 		DHCP_CHADDR[3] = 0x00;
 1712              		.loc 1 989 18 is_stmt 0 view .LVU559
 1713 0094 DC22     		movs	r2, #220
 1714 0096 8A70     		strb	r2, [r1, #2]
 990:ioLibrary_Driver-master/Internet/DHCP/dhcp.c **** 		DHCP_CHADDR[4] = 0x00;
 1715              		.loc 1 990 3 is_stmt 1 view .LVU560
 990:ioLibrary_Driver-master/Internet/DHCP/dhcp.c **** 		DHCP_CHADDR[4] = 0x00;
 1716              		.loc 1 990 18 is_stmt 0 view .LVU561
 1717 0098 CB70     		strb	r3, [r1, #3]
 991:ioLibrary_Driver-master/Internet/DHCP/dhcp.c **** 		DHCP_CHADDR[5] = 0x00;
 1718              		.loc 1 991 3 is_stmt 1 view .LVU562
 991:ioLibrary_Driver-master/Internet/DHCP/dhcp.c **** 		DHCP_CHADDR[5] = 0x00;
 1719              		.loc 1 991 18 is_stmt 0 view .LVU563
 1720 009a 0B71     		strb	r3, [r1, #4]
 992:ioLibrary_Driver-master/Internet/DHCP/dhcp.c **** 		setSHAR(DHCP_CHADDR);
 1721              		.loc 1 992 3 is_stmt 1 view .LVU564
 992:ioLibrary_Driver-master/Internet/DHCP/dhcp.c **** 		setSHAR(DHCP_CHADDR);
 1722              		.loc 1 992 18 is_stmt 0 view .LVU565
 1723 009c 4B71     		strb	r3, [r1, #5]
 993:ioLibrary_Driver-master/Internet/DHCP/dhcp.c **** 	}
 1724              		.loc 1 993 3 is_stmt 1 view .LVU566
 1725 009e 0622     		movs	r2, #6
 1726 00a0 4FF41060 		mov	r0, #2304
 1727 00a4 FFF7FEFF 		bl	WIZCHIP_WRITE_BUF
 1728              	.LVL151:
 1729 00a8 C5E7     		b	.L92
 1730              	.L96:
 1731 00aa 00BF     		.align	2
 1732              	.L95:
ARM GAS  C:\Users\VIDCOM~1\AppData\Local\Temp\cc9naxsX.s 			page 54


 1733 00ac 00000000 		.word	DHCP_CHADDR
 1734 00b0 00000000 		.word	DHCP_SOCKET
 1735 00b4 00000000 		.word	pDHCPMSG
 1736 00b8 00000000 		.word	DHCP_XID
 1737 00bc 78563412 		.word	305419896
 1738 00c0 00000000 		.word	dhcp_state
 1739              		.cfi_endproc
 1740              	.LFE13:
 1742              		.section	.text.DHCP_time_handler,"ax",%progbits
 1743              		.align	1
 1744              		.global	DHCP_time_handler
 1745              		.syntax unified
 1746              		.thumb
 1747              		.thumb_func
 1749              	DHCP_time_handler:
 1750              	.LFB15:
1020:ioLibrary_Driver-master/Internet/DHCP/dhcp.c **** 
1021:ioLibrary_Driver-master/Internet/DHCP/dhcp.c **** void DHCP_time_handler(void)
1022:ioLibrary_Driver-master/Internet/DHCP/dhcp.c **** {
 1751              		.loc 1 1022 1 view -0
 1752              		.cfi_startproc
 1753              		@ args = 0, pretend = 0, frame = 0
 1754              		@ frame_needed = 0, uses_anonymous_args = 0
 1755              		@ link register save eliminated.
1023:ioLibrary_Driver-master/Internet/DHCP/dhcp.c **** 	dhcp_tick_1s++;
 1756              		.loc 1 1023 2 view .LVU568
 1757              		.loc 1 1023 14 is_stmt 0 view .LVU569
 1758 0000 024A     		ldr	r2, .L98
 1759 0002 1368     		ldr	r3, [r2]
 1760 0004 0133     		adds	r3, r3, #1
 1761 0006 1360     		str	r3, [r2]
1024:ioLibrary_Driver-master/Internet/DHCP/dhcp.c **** }
 1762              		.loc 1 1024 1 view .LVU570
 1763 0008 7047     		bx	lr
 1764              	.L99:
 1765 000a 00BF     		.align	2
 1766              	.L98:
 1767 000c 00000000 		.word	dhcp_tick_1s
 1768              		.cfi_endproc
 1769              	.LFE15:
 1771              		.section	.text.getIPfromDHCP,"ax",%progbits
 1772              		.align	1
 1773              		.global	getIPfromDHCP
 1774              		.syntax unified
 1775              		.thumb
 1776              		.thumb_func
 1778              	getIPfromDHCP:
 1779              	.LVL152:
 1780              	.LFB16:
1025:ioLibrary_Driver-master/Internet/DHCP/dhcp.c **** 
1026:ioLibrary_Driver-master/Internet/DHCP/dhcp.c **** void getIPfromDHCP(uint8_t *ip)
1027:ioLibrary_Driver-master/Internet/DHCP/dhcp.c **** {
 1781              		.loc 1 1027 1 is_stmt 1 view -0
 1782              		.cfi_startproc
 1783              		@ args = 0, pretend = 0, frame = 0
 1784              		@ frame_needed = 0, uses_anonymous_args = 0
 1785              		@ link register save eliminated.
ARM GAS  C:\Users\VIDCOM~1\AppData\Local\Temp\cc9naxsX.s 			page 55


1028:ioLibrary_Driver-master/Internet/DHCP/dhcp.c **** 	ip[0] = DHCP_allocated_ip[0];
 1786              		.loc 1 1028 2 view .LVU572
 1787              		.loc 1 1028 27 is_stmt 0 view .LVU573
 1788 0000 044B     		ldr	r3, .L101
 1789 0002 1A78     		ldrb	r2, [r3]	@ zero_extendqisi2
 1790              		.loc 1 1028 8 view .LVU574
 1791 0004 0270     		strb	r2, [r0]
1029:ioLibrary_Driver-master/Internet/DHCP/dhcp.c **** 	ip[1] = DHCP_allocated_ip[1];
 1792              		.loc 1 1029 2 is_stmt 1 view .LVU575
 1793              		.loc 1 1029 27 is_stmt 0 view .LVU576
 1794 0006 5A78     		ldrb	r2, [r3, #1]	@ zero_extendqisi2
 1795              		.loc 1 1029 8 view .LVU577
 1796 0008 4270     		strb	r2, [r0, #1]
1030:ioLibrary_Driver-master/Internet/DHCP/dhcp.c **** 	ip[2] = DHCP_allocated_ip[2];
 1797              		.loc 1 1030 2 is_stmt 1 view .LVU578
 1798              		.loc 1 1030 27 is_stmt 0 view .LVU579
 1799 000a 9A78     		ldrb	r2, [r3, #2]	@ zero_extendqisi2
 1800              		.loc 1 1030 8 view .LVU580
 1801 000c 8270     		strb	r2, [r0, #2]
1031:ioLibrary_Driver-master/Internet/DHCP/dhcp.c **** 	ip[3] = DHCP_allocated_ip[3];
 1802              		.loc 1 1031 2 is_stmt 1 view .LVU581
 1803              		.loc 1 1031 27 is_stmt 0 view .LVU582
 1804 000e DB78     		ldrb	r3, [r3, #3]	@ zero_extendqisi2
 1805              		.loc 1 1031 8 view .LVU583
 1806 0010 C370     		strb	r3, [r0, #3]
1032:ioLibrary_Driver-master/Internet/DHCP/dhcp.c **** }
 1807              		.loc 1 1032 1 view .LVU584
 1808 0012 7047     		bx	lr
 1809              	.L102:
 1810              		.align	2
 1811              	.L101:
 1812 0014 00000000 		.word	DHCP_allocated_ip
 1813              		.cfi_endproc
 1814              	.LFE16:
 1816              		.section	.text.getGWfromDHCP,"ax",%progbits
 1817              		.align	1
 1818              		.global	getGWfromDHCP
 1819              		.syntax unified
 1820              		.thumb
 1821              		.thumb_func
 1823              	getGWfromDHCP:
 1824              	.LVL153:
 1825              	.LFB17:
1033:ioLibrary_Driver-master/Internet/DHCP/dhcp.c **** 
1034:ioLibrary_Driver-master/Internet/DHCP/dhcp.c **** void getGWfromDHCP(uint8_t *ip)
1035:ioLibrary_Driver-master/Internet/DHCP/dhcp.c **** {
 1826              		.loc 1 1035 1 is_stmt 1 view -0
 1827              		.cfi_startproc
 1828              		@ args = 0, pretend = 0, frame = 0
 1829              		@ frame_needed = 0, uses_anonymous_args = 0
 1830              		@ link register save eliminated.
1036:ioLibrary_Driver-master/Internet/DHCP/dhcp.c **** 	ip[0] = DHCP_allocated_gw[0];
 1831              		.loc 1 1036 2 view .LVU586
 1832              		.loc 1 1036 27 is_stmt 0 view .LVU587
 1833 0000 044B     		ldr	r3, .L104
 1834 0002 1A78     		ldrb	r2, [r3]	@ zero_extendqisi2
 1835              		.loc 1 1036 8 view .LVU588
ARM GAS  C:\Users\VIDCOM~1\AppData\Local\Temp\cc9naxsX.s 			page 56


 1836 0004 0270     		strb	r2, [r0]
1037:ioLibrary_Driver-master/Internet/DHCP/dhcp.c **** 	ip[1] = DHCP_allocated_gw[1];
 1837              		.loc 1 1037 2 is_stmt 1 view .LVU589
 1838              		.loc 1 1037 27 is_stmt 0 view .LVU590
 1839 0006 5A78     		ldrb	r2, [r3, #1]	@ zero_extendqisi2
 1840              		.loc 1 1037 8 view .LVU591
 1841 0008 4270     		strb	r2, [r0, #1]
1038:ioLibrary_Driver-master/Internet/DHCP/dhcp.c **** 	ip[2] = DHCP_allocated_gw[2];
 1842              		.loc 1 1038 2 is_stmt 1 view .LVU592
 1843              		.loc 1 1038 27 is_stmt 0 view .LVU593
 1844 000a 9A78     		ldrb	r2, [r3, #2]	@ zero_extendqisi2
 1845              		.loc 1 1038 8 view .LVU594
 1846 000c 8270     		strb	r2, [r0, #2]
1039:ioLibrary_Driver-master/Internet/DHCP/dhcp.c **** 	ip[3] = DHCP_allocated_gw[3];
 1847              		.loc 1 1039 2 is_stmt 1 view .LVU595
 1848              		.loc 1 1039 27 is_stmt 0 view .LVU596
 1849 000e DB78     		ldrb	r3, [r3, #3]	@ zero_extendqisi2
 1850              		.loc 1 1039 8 view .LVU597
 1851 0010 C370     		strb	r3, [r0, #3]
1040:ioLibrary_Driver-master/Internet/DHCP/dhcp.c **** }
 1852              		.loc 1 1040 1 view .LVU598
 1853 0012 7047     		bx	lr
 1854              	.L105:
 1855              		.align	2
 1856              	.L104:
 1857 0014 00000000 		.word	DHCP_allocated_gw
 1858              		.cfi_endproc
 1859              	.LFE17:
 1861              		.section	.text.getSNfromDHCP,"ax",%progbits
 1862              		.align	1
 1863              		.global	getSNfromDHCP
 1864              		.syntax unified
 1865              		.thumb
 1866              		.thumb_func
 1868              	getSNfromDHCP:
 1869              	.LVL154:
 1870              	.LFB18:
1041:ioLibrary_Driver-master/Internet/DHCP/dhcp.c **** 
1042:ioLibrary_Driver-master/Internet/DHCP/dhcp.c **** void getSNfromDHCP(uint8_t *ip)
1043:ioLibrary_Driver-master/Internet/DHCP/dhcp.c **** {
 1871              		.loc 1 1043 1 is_stmt 1 view -0
 1872              		.cfi_startproc
 1873              		@ args = 0, pretend = 0, frame = 0
 1874              		@ frame_needed = 0, uses_anonymous_args = 0
 1875              		@ link register save eliminated.
1044:ioLibrary_Driver-master/Internet/DHCP/dhcp.c **** 	ip[0] = DHCP_allocated_sn[0];
 1876              		.loc 1 1044 2 view .LVU600
 1877              		.loc 1 1044 27 is_stmt 0 view .LVU601
 1878 0000 044B     		ldr	r3, .L107
 1879 0002 1A78     		ldrb	r2, [r3]	@ zero_extendqisi2
 1880              		.loc 1 1044 8 view .LVU602
 1881 0004 0270     		strb	r2, [r0]
1045:ioLibrary_Driver-master/Internet/DHCP/dhcp.c **** 	ip[1] = DHCP_allocated_sn[1];
 1882              		.loc 1 1045 2 is_stmt 1 view .LVU603
 1883              		.loc 1 1045 27 is_stmt 0 view .LVU604
 1884 0006 5A78     		ldrb	r2, [r3, #1]	@ zero_extendqisi2
 1885              		.loc 1 1045 8 view .LVU605
ARM GAS  C:\Users\VIDCOM~1\AppData\Local\Temp\cc9naxsX.s 			page 57


 1886 0008 4270     		strb	r2, [r0, #1]
1046:ioLibrary_Driver-master/Internet/DHCP/dhcp.c **** 	ip[2] = DHCP_allocated_sn[2];
 1887              		.loc 1 1046 2 is_stmt 1 view .LVU606
 1888              		.loc 1 1046 27 is_stmt 0 view .LVU607
 1889 000a 9A78     		ldrb	r2, [r3, #2]	@ zero_extendqisi2
 1890              		.loc 1 1046 8 view .LVU608
 1891 000c 8270     		strb	r2, [r0, #2]
1047:ioLibrary_Driver-master/Internet/DHCP/dhcp.c **** 	ip[3] = DHCP_allocated_sn[3];
 1892              		.loc 1 1047 2 is_stmt 1 view .LVU609
 1893              		.loc 1 1047 27 is_stmt 0 view .LVU610
 1894 000e DB78     		ldrb	r3, [r3, #3]	@ zero_extendqisi2
 1895              		.loc 1 1047 8 view .LVU611
 1896 0010 C370     		strb	r3, [r0, #3]
1048:ioLibrary_Driver-master/Internet/DHCP/dhcp.c **** }
 1897              		.loc 1 1048 1 view .LVU612
 1898 0012 7047     		bx	lr
 1899              	.L108:
 1900              		.align	2
 1901              	.L107:
 1902 0014 00000000 		.word	DHCP_allocated_sn
 1903              		.cfi_endproc
 1904              	.LFE18:
 1906              		.section	.text.getDNSfromDHCP,"ax",%progbits
 1907              		.align	1
 1908              		.global	getDNSfromDHCP
 1909              		.syntax unified
 1910              		.thumb
 1911              		.thumb_func
 1913              	getDNSfromDHCP:
 1914              	.LVL155:
 1915              	.LFB19:
1049:ioLibrary_Driver-master/Internet/DHCP/dhcp.c **** 
1050:ioLibrary_Driver-master/Internet/DHCP/dhcp.c **** void getDNSfromDHCP(uint8_t *ip)
1051:ioLibrary_Driver-master/Internet/DHCP/dhcp.c **** {
 1916              		.loc 1 1051 1 is_stmt 1 view -0
 1917              		.cfi_startproc
 1918              		@ args = 0, pretend = 0, frame = 0
 1919              		@ frame_needed = 0, uses_anonymous_args = 0
 1920              		@ link register save eliminated.
1052:ioLibrary_Driver-master/Internet/DHCP/dhcp.c **** 	ip[0] = DHCP_allocated_dns[0];
 1921              		.loc 1 1052 2 view .LVU614
 1922              		.loc 1 1052 28 is_stmt 0 view .LVU615
 1923 0000 044B     		ldr	r3, .L110
 1924 0002 1A78     		ldrb	r2, [r3]	@ zero_extendqisi2
 1925              		.loc 1 1052 8 view .LVU616
 1926 0004 0270     		strb	r2, [r0]
1053:ioLibrary_Driver-master/Internet/DHCP/dhcp.c **** 	ip[1] = DHCP_allocated_dns[1];
 1927              		.loc 1 1053 2 is_stmt 1 view .LVU617
 1928              		.loc 1 1053 28 is_stmt 0 view .LVU618
 1929 0006 5A78     		ldrb	r2, [r3, #1]	@ zero_extendqisi2
 1930              		.loc 1 1053 8 view .LVU619
 1931 0008 4270     		strb	r2, [r0, #1]
1054:ioLibrary_Driver-master/Internet/DHCP/dhcp.c **** 	ip[2] = DHCP_allocated_dns[2];
 1932              		.loc 1 1054 2 is_stmt 1 view .LVU620
 1933              		.loc 1 1054 28 is_stmt 0 view .LVU621
 1934 000a 9A78     		ldrb	r2, [r3, #2]	@ zero_extendqisi2
 1935              		.loc 1 1054 8 view .LVU622
ARM GAS  C:\Users\VIDCOM~1\AppData\Local\Temp\cc9naxsX.s 			page 58


 1936 000c 8270     		strb	r2, [r0, #2]
1055:ioLibrary_Driver-master/Internet/DHCP/dhcp.c **** 	ip[3] = DHCP_allocated_dns[3];
 1937              		.loc 1 1055 2 is_stmt 1 view .LVU623
 1938              		.loc 1 1055 28 is_stmt 0 view .LVU624
 1939 000e DB78     		ldrb	r3, [r3, #3]	@ zero_extendqisi2
 1940              		.loc 1 1055 8 view .LVU625
 1941 0010 C370     		strb	r3, [r0, #3]
1056:ioLibrary_Driver-master/Internet/DHCP/dhcp.c **** }
 1942              		.loc 1 1056 1 view .LVU626
 1943 0012 7047     		bx	lr
 1944              	.L111:
 1945              		.align	2
 1946              	.L110:
 1947 0014 00000000 		.word	DHCP_allocated_dns
 1948              		.cfi_endproc
 1949              	.LFE19:
 1951              		.section	.text.getDHCPLeasetime,"ax",%progbits
 1952              		.align	1
 1953              		.global	getDHCPLeasetime
 1954              		.syntax unified
 1955              		.thumb
 1956              		.thumb_func
 1958              	getDHCPLeasetime:
 1959              	.LFB20:
1057:ioLibrary_Driver-master/Internet/DHCP/dhcp.c **** 
1058:ioLibrary_Driver-master/Internet/DHCP/dhcp.c **** uint32_t getDHCPLeasetime(void)
1059:ioLibrary_Driver-master/Internet/DHCP/dhcp.c **** {
 1960              		.loc 1 1059 1 is_stmt 1 view -0
 1961              		.cfi_startproc
 1962              		@ args = 0, pretend = 0, frame = 0
 1963              		@ frame_needed = 0, uses_anonymous_args = 0
 1964              		@ link register save eliminated.
1060:ioLibrary_Driver-master/Internet/DHCP/dhcp.c **** 	return dhcp_lease_time;
 1965              		.loc 1 1060 2 view .LVU628
1061:ioLibrary_Driver-master/Internet/DHCP/dhcp.c **** }
 1966              		.loc 1 1061 1 is_stmt 0 view .LVU629
 1967 0000 014B     		ldr	r3, .L113
 1968 0002 1868     		ldr	r0, [r3]
 1969 0004 7047     		bx	lr
 1970              	.L114:
 1971 0006 00BF     		.align	2
 1972              	.L113:
 1973 0008 00000000 		.word	dhcp_lease_time
 1974              		.cfi_endproc
 1975              	.LFE20:
 1977              		.section	.text.NibbleToHex,"ax",%progbits
 1978              		.align	1
 1979              		.global	NibbleToHex
 1980              		.syntax unified
 1981              		.thumb
 1982              		.thumb_func
 1984              	NibbleToHex:
 1985              	.LVL156:
 1986              	.LFB21:
1062:ioLibrary_Driver-master/Internet/DHCP/dhcp.c **** 
1063:ioLibrary_Driver-master/Internet/DHCP/dhcp.c **** char NibbleToHex(uint8_t nibble)
1064:ioLibrary_Driver-master/Internet/DHCP/dhcp.c **** {
ARM GAS  C:\Users\VIDCOM~1\AppData\Local\Temp\cc9naxsX.s 			page 59


 1987              		.loc 1 1064 1 is_stmt 1 view -0
 1988              		.cfi_startproc
 1989              		@ args = 0, pretend = 0, frame = 0
 1990              		@ frame_needed = 0, uses_anonymous_args = 0
 1991              		@ link register save eliminated.
1065:ioLibrary_Driver-master/Internet/DHCP/dhcp.c **** 	nibble &= 0x0F;
 1992              		.loc 1 1065 2 view .LVU631
 1993              		.loc 1 1065 9 is_stmt 0 view .LVU632
 1994 0000 00F00F00 		and	r0, r0, #15
 1995              	.LVL157:
1066:ioLibrary_Driver-master/Internet/DHCP/dhcp.c **** 	if (nibble <= 9)
 1996              		.loc 1 1066 2 is_stmt 1 view .LVU633
 1997              		.loc 1 1066 5 is_stmt 0 view .LVU634
 1998 0004 0928     		cmp	r0, #9
 1999 0006 01D8     		bhi	.L116
1067:ioLibrary_Driver-master/Internet/DHCP/dhcp.c **** 		return nibble + '0';
 2000              		.loc 1 1067 3 is_stmt 1 view .LVU635
 2001              		.loc 1 1067 17 is_stmt 0 view .LVU636
 2002 0008 3030     		adds	r0, r0, #48
 2003              	.LVL158:
 2004              		.loc 1 1067 17 view .LVU637
 2005 000a 7047     		bx	lr
 2006              	.LVL159:
 2007              	.L116:
1068:ioLibrary_Driver-master/Internet/DHCP/dhcp.c **** 	else
1069:ioLibrary_Driver-master/Internet/DHCP/dhcp.c **** 		return nibble + ('A' - 0x0A);
 2008              		.loc 1 1069 3 is_stmt 1 view .LVU638
 2009              		.loc 1 1069 17 is_stmt 0 view .LVU639
 2010 000c 3730     		adds	r0, r0, #55
 2011              	.LVL160:
1070:ioLibrary_Driver-master/Internet/DHCP/dhcp.c **** }
 2012              		.loc 1 1070 1 view .LVU640
 2013 000e 7047     		bx	lr
 2014              		.cfi_endproc
 2015              	.LFE21:
 2017              		.section	.text.send_DHCP_DISCOVER,"ax",%progbits
 2018              		.align	1
 2019              		.global	send_DHCP_DISCOVER
 2020              		.syntax unified
 2021              		.thumb
 2022              		.thumb_func
 2024              	send_DHCP_DISCOVER:
 2025              	.LFB5:
 369:ioLibrary_Driver-master/Internet/DHCP/dhcp.c **** 	uint16_t i;
 2026              		.loc 1 369 1 is_stmt 1 view -0
 2027              		.cfi_startproc
 2028              		@ args = 0, pretend = 0, frame = 8
 2029              		@ frame_needed = 0, uses_anonymous_args = 0
 2030 0000 2DE9F04F 		push	{r4, r5, r6, r7, r8, r9, r10, fp, lr}
 2031              	.LCFI24:
 2032              		.cfi_def_cfa_offset 36
 2033              		.cfi_offset 4, -36
 2034              		.cfi_offset 5, -32
 2035              		.cfi_offset 6, -28
 2036              		.cfi_offset 7, -24
 2037              		.cfi_offset 8, -20
 2038              		.cfi_offset 9, -16
ARM GAS  C:\Users\VIDCOM~1\AppData\Local\Temp\cc9naxsX.s 			page 60


 2039              		.cfi_offset 10, -12
 2040              		.cfi_offset 11, -8
 2041              		.cfi_offset 14, -4
 2042 0004 85B0     		sub	sp, sp, #20
 2043              	.LCFI25:
 2044              		.cfi_def_cfa_offset 56
 370:ioLibrary_Driver-master/Internet/DHCP/dhcp.c **** 	uint8_t ip[4];
 2045              		.loc 1 370 2 view .LVU642
 371:ioLibrary_Driver-master/Internet/DHCP/dhcp.c **** 	uint16_t k = 0;
 2046              		.loc 1 371 2 view .LVU643
 372:ioLibrary_Driver-master/Internet/DHCP/dhcp.c **** 
 2047              		.loc 1 372 2 view .LVU644
 2048              	.LVL161:
 374:ioLibrary_Driver-master/Internet/DHCP/dhcp.c **** 	DHCP_SIP[0] = 0;
 2049              		.loc 1 374 2 view .LVU645
 2050 0006 FFF7FEFF 		bl	makeDHCPMSG
 2051              	.LVL162:
 375:ioLibrary_Driver-master/Internet/DHCP/dhcp.c **** 	DHCP_SIP[1] = 0;
 2052              		.loc 1 375 2 view .LVU646
 375:ioLibrary_Driver-master/Internet/DHCP/dhcp.c **** 	DHCP_SIP[1] = 0;
 2053              		.loc 1 375 14 is_stmt 0 view .LVU647
 2054 000a 724B     		ldr	r3, .L124
 2055 000c 0025     		movs	r5, #0
 2056 000e 1D70     		strb	r5, [r3]
 376:ioLibrary_Driver-master/Internet/DHCP/dhcp.c **** 	DHCP_SIP[2] = 0;
 2057              		.loc 1 376 2 is_stmt 1 view .LVU648
 376:ioLibrary_Driver-master/Internet/DHCP/dhcp.c **** 	DHCP_SIP[2] = 0;
 2058              		.loc 1 376 14 is_stmt 0 view .LVU649
 2059 0010 5D70     		strb	r5, [r3, #1]
 377:ioLibrary_Driver-master/Internet/DHCP/dhcp.c **** 	DHCP_SIP[3] = 0;
 2060              		.loc 1 377 2 is_stmt 1 view .LVU650
 377:ioLibrary_Driver-master/Internet/DHCP/dhcp.c **** 	DHCP_SIP[3] = 0;
 2061              		.loc 1 377 14 is_stmt 0 view .LVU651
 2062 0012 9D70     		strb	r5, [r3, #2]
 378:ioLibrary_Driver-master/Internet/DHCP/dhcp.c **** 	DHCP_REAL_SIP[0] = 0;
 2063              		.loc 1 378 2 is_stmt 1 view .LVU652
 378:ioLibrary_Driver-master/Internet/DHCP/dhcp.c **** 	DHCP_REAL_SIP[0] = 0;
 2064              		.loc 1 378 14 is_stmt 0 view .LVU653
 2065 0014 DD70     		strb	r5, [r3, #3]
 379:ioLibrary_Driver-master/Internet/DHCP/dhcp.c **** 	DHCP_REAL_SIP[1] = 0;
 2066              		.loc 1 379 2 is_stmt 1 view .LVU654
 379:ioLibrary_Driver-master/Internet/DHCP/dhcp.c **** 	DHCP_REAL_SIP[1] = 0;
 2067              		.loc 1 379 19 is_stmt 0 view .LVU655
 2068 0016 704B     		ldr	r3, .L124+4
 2069 0018 1D70     		strb	r5, [r3]
 380:ioLibrary_Driver-master/Internet/DHCP/dhcp.c **** 	DHCP_REAL_SIP[2] = 0;
 2070              		.loc 1 380 2 is_stmt 1 view .LVU656
 380:ioLibrary_Driver-master/Internet/DHCP/dhcp.c **** 	DHCP_REAL_SIP[2] = 0;
 2071              		.loc 1 380 19 is_stmt 0 view .LVU657
 2072 001a 5D70     		strb	r5, [r3, #1]
 381:ioLibrary_Driver-master/Internet/DHCP/dhcp.c **** 	DHCP_REAL_SIP[3] = 0;
 2073              		.loc 1 381 2 is_stmt 1 view .LVU658
 381:ioLibrary_Driver-master/Internet/DHCP/dhcp.c **** 	DHCP_REAL_SIP[3] = 0;
 2074              		.loc 1 381 19 is_stmt 0 view .LVU659
 2075 001c 9D70     		strb	r5, [r3, #2]
 382:ioLibrary_Driver-master/Internet/DHCP/dhcp.c **** 
 2076              		.loc 1 382 2 is_stmt 1 view .LVU660
ARM GAS  C:\Users\VIDCOM~1\AppData\Local\Temp\cc9naxsX.s 			page 61


 382:ioLibrary_Driver-master/Internet/DHCP/dhcp.c **** 
 2077              		.loc 1 382 19 is_stmt 0 view .LVU661
 2078 001e DD70     		strb	r5, [r3, #3]
 384:ioLibrary_Driver-master/Internet/DHCP/dhcp.c **** 
 2079              		.loc 1 384 2 is_stmt 1 view .LVU662
 2080              	.LVL163:
 387:ioLibrary_Driver-master/Internet/DHCP/dhcp.c **** 	pDHCPMSG->OPT[k++] = 0x01;
 2081              		.loc 1 387 2 view .LVU663
 387:ioLibrary_Driver-master/Internet/DHCP/dhcp.c **** 	pDHCPMSG->OPT[k++] = 0x01;
 2082              		.loc 1 387 10 is_stmt 0 view .LVU664
 2083 0020 6E4B     		ldr	r3, .L124+8
 2084 0022 1E68     		ldr	r6, [r3]
 2085              	.LVL164:
 387:ioLibrary_Driver-master/Internet/DHCP/dhcp.c **** 	pDHCPMSG->OPT[k++] = 0x01;
 2086              		.loc 1 387 21 view .LVU665
 2087 0024 3523     		movs	r3, #53
 2088 0026 86F8F030 		strb	r3, [r6, #240]
 388:ioLibrary_Driver-master/Internet/DHCP/dhcp.c **** 	pDHCPMSG->OPT[k++] = DHCP_DISCOVER;
 2089              		.loc 1 388 2 is_stmt 1 view .LVU666
 2090              	.LVL165:
 388:ioLibrary_Driver-master/Internet/DHCP/dhcp.c **** 	pDHCPMSG->OPT[k++] = DHCP_DISCOVER;
 2091              		.loc 1 388 21 is_stmt 0 view .LVU667
 2092 002a 0123     		movs	r3, #1
 2093 002c 86F8F130 		strb	r3, [r6, #241]
 389:ioLibrary_Driver-master/Internet/DHCP/dhcp.c **** 
 2094              		.loc 1 389 2 is_stmt 1 view .LVU668
 2095              	.LVL166:
 389:ioLibrary_Driver-master/Internet/DHCP/dhcp.c **** 
 2096              		.loc 1 389 21 is_stmt 0 view .LVU669
 2097 0030 86F8F230 		strb	r3, [r6, #242]
 392:ioLibrary_Driver-master/Internet/DHCP/dhcp.c **** 	pDHCPMSG->OPT[k++] = 0x07;
 2098              		.loc 1 392 2 is_stmt 1 view .LVU670
 2099              	.LVL167:
 392:ioLibrary_Driver-master/Internet/DHCP/dhcp.c **** 	pDHCPMSG->OPT[k++] = 0x07;
 2100              		.loc 1 392 21 is_stmt 0 view .LVU671
 2101 0034 3D22     		movs	r2, #61
 2102 0036 86F8F320 		strb	r2, [r6, #243]
 393:ioLibrary_Driver-master/Internet/DHCP/dhcp.c **** 	pDHCPMSG->OPT[k++] = 0x01;
 2103              		.loc 1 393 2 is_stmt 1 view .LVU672
 2104              	.LVL168:
 393:ioLibrary_Driver-master/Internet/DHCP/dhcp.c **** 	pDHCPMSG->OPT[k++] = 0x01;
 2105              		.loc 1 393 21 is_stmt 0 view .LVU673
 2106 003a 0722     		movs	r2, #7
 2107 003c 86F8F420 		strb	r2, [r6, #244]
 394:ioLibrary_Driver-master/Internet/DHCP/dhcp.c **** 	pDHCPMSG->OPT[k++] = DHCP_CHADDR[0];
 2108              		.loc 1 394 2 is_stmt 1 view .LVU674
 2109              	.LVL169:
 394:ioLibrary_Driver-master/Internet/DHCP/dhcp.c **** 	pDHCPMSG->OPT[k++] = DHCP_CHADDR[0];
 2110              		.loc 1 394 21 is_stmt 0 view .LVU675
 2111 0040 86F8F530 		strb	r3, [r6, #245]
 395:ioLibrary_Driver-master/Internet/DHCP/dhcp.c **** 	pDHCPMSG->OPT[k++] = DHCP_CHADDR[1];
 2112              		.loc 1 395 2 is_stmt 1 view .LVU676
 2113              	.LVL170:
 395:ioLibrary_Driver-master/Internet/DHCP/dhcp.c **** 	pDHCPMSG->OPT[k++] = DHCP_CHADDR[1];
 2114              		.loc 1 395 34 is_stmt 0 view .LVU677
 2115 0044 664B     		ldr	r3, .L124+12
 2116 0046 1A78     		ldrb	r2, [r3]	@ zero_extendqisi2
ARM GAS  C:\Users\VIDCOM~1\AppData\Local\Temp\cc9naxsX.s 			page 62


 395:ioLibrary_Driver-master/Internet/DHCP/dhcp.c **** 	pDHCPMSG->OPT[k++] = DHCP_CHADDR[1];
 2117              		.loc 1 395 21 view .LVU678
 2118 0048 86F8F620 		strb	r2, [r6, #246]
 396:ioLibrary_Driver-master/Internet/DHCP/dhcp.c **** 	pDHCPMSG->OPT[k++] = DHCP_CHADDR[2];
 2119              		.loc 1 396 2 is_stmt 1 view .LVU679
 2120              	.LVL171:
 396:ioLibrary_Driver-master/Internet/DHCP/dhcp.c **** 	pDHCPMSG->OPT[k++] = DHCP_CHADDR[2];
 2121              		.loc 1 396 34 is_stmt 0 view .LVU680
 2122 004c 5A78     		ldrb	r2, [r3, #1]	@ zero_extendqisi2
 396:ioLibrary_Driver-master/Internet/DHCP/dhcp.c **** 	pDHCPMSG->OPT[k++] = DHCP_CHADDR[2];
 2123              		.loc 1 396 21 view .LVU681
 2124 004e 86F8F720 		strb	r2, [r6, #247]
 397:ioLibrary_Driver-master/Internet/DHCP/dhcp.c **** 	pDHCPMSG->OPT[k++] = DHCP_CHADDR[3];
 2125              		.loc 1 397 2 is_stmt 1 view .LVU682
 2126              	.LVL172:
 397:ioLibrary_Driver-master/Internet/DHCP/dhcp.c **** 	pDHCPMSG->OPT[k++] = DHCP_CHADDR[3];
 2127              		.loc 1 397 34 is_stmt 0 view .LVU683
 2128 0052 9A78     		ldrb	r2, [r3, #2]	@ zero_extendqisi2
 397:ioLibrary_Driver-master/Internet/DHCP/dhcp.c **** 	pDHCPMSG->OPT[k++] = DHCP_CHADDR[3];
 2129              		.loc 1 397 21 view .LVU684
 2130 0054 86F8F820 		strb	r2, [r6, #248]
 398:ioLibrary_Driver-master/Internet/DHCP/dhcp.c **** 	pDHCPMSG->OPT[k++] = DHCP_CHADDR[4];
 2131              		.loc 1 398 2 is_stmt 1 view .LVU685
 2132              	.LVL173:
 398:ioLibrary_Driver-master/Internet/DHCP/dhcp.c **** 	pDHCPMSG->OPT[k++] = DHCP_CHADDR[4];
 2133              		.loc 1 398 34 is_stmt 0 view .LVU686
 2134 0058 93F80390 		ldrb	r9, [r3, #3]	@ zero_extendqisi2
 398:ioLibrary_Driver-master/Internet/DHCP/dhcp.c **** 	pDHCPMSG->OPT[k++] = DHCP_CHADDR[4];
 2135              		.loc 1 398 21 view .LVU687
 2136 005c 86F8F990 		strb	r9, [r6, #249]
 399:ioLibrary_Driver-master/Internet/DHCP/dhcp.c **** 	pDHCPMSG->OPT[k++] = DHCP_CHADDR[5];
 2137              		.loc 1 399 2 is_stmt 1 view .LVU688
 2138              	.LVL174:
 399:ioLibrary_Driver-master/Internet/DHCP/dhcp.c **** 	pDHCPMSG->OPT[k++] = DHCP_CHADDR[5];
 2139              		.loc 1 399 34 is_stmt 0 view .LVU689
 2140 0060 93F80480 		ldrb	r8, [r3, #4]	@ zero_extendqisi2
 399:ioLibrary_Driver-master/Internet/DHCP/dhcp.c **** 	pDHCPMSG->OPT[k++] = DHCP_CHADDR[5];
 2141              		.loc 1 399 21 view .LVU690
 2142 0064 86F8FA80 		strb	r8, [r6, #250]
 400:ioLibrary_Driver-master/Internet/DHCP/dhcp.c **** 
 2143              		.loc 1 400 2 is_stmt 1 view .LVU691
 2144              	.LVL175:
 400:ioLibrary_Driver-master/Internet/DHCP/dhcp.c **** 
 2145              		.loc 1 400 34 is_stmt 0 view .LVU692
 2146 0068 5F79     		ldrb	r7, [r3, #5]	@ zero_extendqisi2
 400:ioLibrary_Driver-master/Internet/DHCP/dhcp.c **** 
 2147              		.loc 1 400 21 view .LVU693
 2148 006a 86F8FB70 		strb	r7, [r6, #251]
 403:ioLibrary_Driver-master/Internet/DHCP/dhcp.c **** 	pDHCPMSG->OPT[k++] = 0; // fill zero length of hostname
 2149              		.loc 1 403 2 is_stmt 1 view .LVU694
 2150              	.LVL176:
 403:ioLibrary_Driver-master/Internet/DHCP/dhcp.c **** 	pDHCPMSG->OPT[k++] = 0; // fill zero length of hostname
 2151              		.loc 1 403 21 is_stmt 0 view .LVU695
 2152 006e 0C23     		movs	r3, #12
 2153 0070 86F8FC30 		strb	r3, [r6, #252]
 404:ioLibrary_Driver-master/Internet/DHCP/dhcp.c **** 	for (i = 0; HOST_NAME[i] != 0; i++)
 2154              		.loc 1 404 2 is_stmt 1 view .LVU696
ARM GAS  C:\Users\VIDCOM~1\AppData\Local\Temp\cc9naxsX.s 			page 63


 2155              	.LVL177:
 404:ioLibrary_Driver-master/Internet/DHCP/dhcp.c **** 	for (i = 0; HOST_NAME[i] != 0; i++)
 2156              		.loc 1 404 21 is_stmt 0 view .LVU697
 2157 0074 86F8FD50 		strb	r5, [r6, #253]
 405:ioLibrary_Driver-master/Internet/DHCP/dhcp.c **** 		pDHCPMSG->OPT[k++] = HOST_NAME[i];
 2158              		.loc 1 405 2 is_stmt 1 view .LVU698
 2159              	.LVL178:
 404:ioLibrary_Driver-master/Internet/DHCP/dhcp.c **** 	for (i = 0; HOST_NAME[i] != 0; i++)
 2160              		.loc 1 404 17 is_stmt 0 view .LVU699
 2161 0078 1224     		movs	r4, #18
 405:ioLibrary_Driver-master/Internet/DHCP/dhcp.c **** 		pDHCPMSG->OPT[k++] = HOST_NAME[i];
 2162              		.loc 1 405 2 view .LVU700
 2163 007a 06E0     		b	.L119
 2164              	.LVL179:
 2165              	.L120:
 406:ioLibrary_Driver-master/Internet/DHCP/dhcp.c **** 	pDHCPMSG->OPT[k++] = NibbleToHex(DHCP_CHADDR[3] >> 4);
 2166              		.loc 1 406 3 is_stmt 1 discriminator 3 view .LVU701
 406:ioLibrary_Driver-master/Internet/DHCP/dhcp.c **** 	pDHCPMSG->OPT[k++] = NibbleToHex(DHCP_CHADDR[3] >> 4);
 2167              		.loc 1 406 18 is_stmt 0 discriminator 3 view .LVU702
 2168 007c 621C     		adds	r2, r4, #1
 2169              	.LVL180:
 406:ioLibrary_Driver-master/Internet/DHCP/dhcp.c **** 	pDHCPMSG->OPT[k++] = NibbleToHex(DHCP_CHADDR[3] >> 4);
 2170              		.loc 1 406 22 discriminator 3 view .LVU703
 2171 007e 3444     		add	r4, r4, r6
 2172 0080 84F8EC30 		strb	r3, [r4, #236]
 405:ioLibrary_Driver-master/Internet/DHCP/dhcp.c **** 		pDHCPMSG->OPT[k++] = HOST_NAME[i];
 2173              		.loc 1 405 34 is_stmt 1 discriminator 3 view .LVU704
 2174 0084 0135     		adds	r5, r5, #1
 2175              	.LVL181:
 405:ioLibrary_Driver-master/Internet/DHCP/dhcp.c **** 		pDHCPMSG->OPT[k++] = HOST_NAME[i];
 2176              		.loc 1 405 34 is_stmt 0 discriminator 3 view .LVU705
 2177 0086 ADB2     		uxth	r5, r5
 2178              	.LVL182:
 406:ioLibrary_Driver-master/Internet/DHCP/dhcp.c **** 	pDHCPMSG->OPT[k++] = NibbleToHex(DHCP_CHADDR[3] >> 4);
 2179              		.loc 1 406 18 discriminator 3 view .LVU706
 2180 0088 94B2     		uxth	r4, r2
 2181              	.LVL183:
 2182              	.L119:
 405:ioLibrary_Driver-master/Internet/DHCP/dhcp.c **** 		pDHCPMSG->OPT[k++] = HOST_NAME[i];
 2183              		.loc 1 405 27 is_stmt 1 discriminator 1 view .LVU707
 405:ioLibrary_Driver-master/Internet/DHCP/dhcp.c **** 		pDHCPMSG->OPT[k++] = HOST_NAME[i];
 2184              		.loc 1 405 23 is_stmt 0 discriminator 1 view .LVU708
 2185 008a 564B     		ldr	r3, .L124+16
 2186 008c 5B5D     		ldrb	r3, [r3, r5]	@ zero_extendqisi2
 405:ioLibrary_Driver-master/Internet/DHCP/dhcp.c **** 		pDHCPMSG->OPT[k++] = HOST_NAME[i];
 2187              		.loc 1 405 27 discriminator 1 view .LVU709
 2188 008e 002B     		cmp	r3, #0
 2189 0090 F4D1     		bne	.L120
 407:ioLibrary_Driver-master/Internet/DHCP/dhcp.c **** 	pDHCPMSG->OPT[k++] = NibbleToHex(DHCP_CHADDR[3]);
 2190              		.loc 1 407 2 is_stmt 1 view .LVU710
 407:ioLibrary_Driver-master/Internet/DHCP/dhcp.c **** 	pDHCPMSG->OPT[k++] = NibbleToHex(DHCP_CHADDR[3]);
 2191              		.loc 1 407 17 is_stmt 0 view .LVU711
 2192 0092 04F1010A 		add	r10, r4, #1
 2193 0096 1FFA8AFA 		uxth	r10, r10
 2194              	.LVL184:
 407:ioLibrary_Driver-master/Internet/DHCP/dhcp.c **** 	pDHCPMSG->OPT[k++] = NibbleToHex(DHCP_CHADDR[3]);
 2195              		.loc 1 407 23 view .LVU712
ARM GAS  C:\Users\VIDCOM~1\AppData\Local\Temp\cc9naxsX.s 			page 64


 2196 009a 4FEA1910 		lsr	r0, r9, #4
 2197 009e FFF7FEFF 		bl	NibbleToHex
 2198              	.LVL185:
 407:ioLibrary_Driver-master/Internet/DHCP/dhcp.c **** 	pDHCPMSG->OPT[k++] = NibbleToHex(DHCP_CHADDR[3]);
 2199              		.loc 1 407 21 view .LVU713
 2200 00a2 3319     		adds	r3, r6, r4
 2201 00a4 83F8EC00 		strb	r0, [r3, #236]
 408:ioLibrary_Driver-master/Internet/DHCP/dhcp.c **** 	pDHCPMSG->OPT[k++] = NibbleToHex(DHCP_CHADDR[4] >> 4);
 2202              		.loc 1 408 2 is_stmt 1 view .LVU714
 408:ioLibrary_Driver-master/Internet/DHCP/dhcp.c **** 	pDHCPMSG->OPT[k++] = NibbleToHex(DHCP_CHADDR[4] >> 4);
 2203              		.loc 1 408 17 is_stmt 0 view .LVU715
 2204 00a8 04F1020B 		add	fp, r4, #2
 2205 00ac 1FFA8BFB 		uxth	fp, fp
 2206              	.LVL186:
 408:ioLibrary_Driver-master/Internet/DHCP/dhcp.c **** 	pDHCPMSG->OPT[k++] = NibbleToHex(DHCP_CHADDR[4] >> 4);
 2207              		.loc 1 408 23 view .LVU716
 2208 00b0 4846     		mov	r0, r9
 2209 00b2 FFF7FEFF 		bl	NibbleToHex
 2210              	.LVL187:
 408:ioLibrary_Driver-master/Internet/DHCP/dhcp.c **** 	pDHCPMSG->OPT[k++] = NibbleToHex(DHCP_CHADDR[4] >> 4);
 2211              		.loc 1 408 21 view .LVU717
 2212 00b6 B244     		add	r10, r10, r6
 2213 00b8 8AF8EC00 		strb	r0, [r10, #236]
 409:ioLibrary_Driver-master/Internet/DHCP/dhcp.c **** 	pDHCPMSG->OPT[k++] = NibbleToHex(DHCP_CHADDR[4]);
 2214              		.loc 1 409 2 is_stmt 1 view .LVU718
 409:ioLibrary_Driver-master/Internet/DHCP/dhcp.c **** 	pDHCPMSG->OPT[k++] = NibbleToHex(DHCP_CHADDR[4]);
 2215              		.loc 1 409 17 is_stmt 0 view .LVU719
 2216 00bc 04F10309 		add	r9, r4, #3
 2217 00c0 1FFA89F9 		uxth	r9, r9
 2218              	.LVL188:
 409:ioLibrary_Driver-master/Internet/DHCP/dhcp.c **** 	pDHCPMSG->OPT[k++] = NibbleToHex(DHCP_CHADDR[4]);
 2219              		.loc 1 409 23 view .LVU720
 2220 00c4 4FEA1810 		lsr	r0, r8, #4
 2221 00c8 FFF7FEFF 		bl	NibbleToHex
 2222              	.LVL189:
 409:ioLibrary_Driver-master/Internet/DHCP/dhcp.c **** 	pDHCPMSG->OPT[k++] = NibbleToHex(DHCP_CHADDR[4]);
 2223              		.loc 1 409 21 view .LVU721
 2224 00cc B344     		add	fp, fp, r6
 2225 00ce 8BF8EC00 		strb	r0, [fp, #236]
 410:ioLibrary_Driver-master/Internet/DHCP/dhcp.c **** 	pDHCPMSG->OPT[k++] = NibbleToHex(DHCP_CHADDR[5] >> 4);
 2226              		.loc 1 410 2 is_stmt 1 view .LVU722
 410:ioLibrary_Driver-master/Internet/DHCP/dhcp.c **** 	pDHCPMSG->OPT[k++] = NibbleToHex(DHCP_CHADDR[5] >> 4);
 2227              		.loc 1 410 17 is_stmt 0 view .LVU723
 2228 00d2 04F1040A 		add	r10, r4, #4
 2229 00d6 1FFA8AFA 		uxth	r10, r10
 2230              	.LVL190:
 410:ioLibrary_Driver-master/Internet/DHCP/dhcp.c **** 	pDHCPMSG->OPT[k++] = NibbleToHex(DHCP_CHADDR[5] >> 4);
 2231              		.loc 1 410 23 view .LVU724
 2232 00da 4046     		mov	r0, r8
 2233 00dc FFF7FEFF 		bl	NibbleToHex
 2234              	.LVL191:
 410:ioLibrary_Driver-master/Internet/DHCP/dhcp.c **** 	pDHCPMSG->OPT[k++] = NibbleToHex(DHCP_CHADDR[5] >> 4);
 2235              		.loc 1 410 21 view .LVU725
 2236 00e0 B144     		add	r9, r9, r6
 2237 00e2 89F8EC00 		strb	r0, [r9, #236]
 411:ioLibrary_Driver-master/Internet/DHCP/dhcp.c **** 	pDHCPMSG->OPT[k++] = NibbleToHex(DHCP_CHADDR[5]);
 2238              		.loc 1 411 2 is_stmt 1 view .LVU726
ARM GAS  C:\Users\VIDCOM~1\AppData\Local\Temp\cc9naxsX.s 			page 65


 411:ioLibrary_Driver-master/Internet/DHCP/dhcp.c **** 	pDHCPMSG->OPT[k++] = NibbleToHex(DHCP_CHADDR[5]);
 2239              		.loc 1 411 17 is_stmt 0 view .LVU727
 2240 00e6 04F10509 		add	r9, r4, #5
 2241 00ea 1FFA89F9 		uxth	r9, r9
 2242              	.LVL192:
 411:ioLibrary_Driver-master/Internet/DHCP/dhcp.c **** 	pDHCPMSG->OPT[k++] = NibbleToHex(DHCP_CHADDR[5]);
 2243              		.loc 1 411 23 view .LVU728
 2244 00ee 3809     		lsrs	r0, r7, #4
 2245 00f0 FFF7FEFF 		bl	NibbleToHex
 2246              	.LVL193:
 411:ioLibrary_Driver-master/Internet/DHCP/dhcp.c **** 	pDHCPMSG->OPT[k++] = NibbleToHex(DHCP_CHADDR[5]);
 2247              		.loc 1 411 21 view .LVU729
 2248 00f4 B244     		add	r10, r10, r6
 2249 00f6 8AF8EC00 		strb	r0, [r10, #236]
 412:ioLibrary_Driver-master/Internet/DHCP/dhcp.c **** 	pDHCPMSG->OPT[k - (i + 6 + 1)] = i + 6; // length of hostname
 2250              		.loc 1 412 2 is_stmt 1 view .LVU730
 412:ioLibrary_Driver-master/Internet/DHCP/dhcp.c **** 	pDHCPMSG->OPT[k - (i + 6 + 1)] = i + 6; // length of hostname
 2251              		.loc 1 412 17 is_stmt 0 view .LVU731
 2252 00fa 04F10608 		add	r8, r4, #6
 2253 00fe 1FFA88F8 		uxth	r8, r8
 2254              	.LVL194:
 412:ioLibrary_Driver-master/Internet/DHCP/dhcp.c **** 	pDHCPMSG->OPT[k - (i + 6 + 1)] = i + 6; // length of hostname
 2255              		.loc 1 412 23 view .LVU732
 2256 0102 3846     		mov	r0, r7
 2257 0104 FFF7FEFF 		bl	NibbleToHex
 2258              	.LVL195:
 412:ioLibrary_Driver-master/Internet/DHCP/dhcp.c **** 	pDHCPMSG->OPT[k - (i + 6 + 1)] = i + 6; // length of hostname
 2259              		.loc 1 412 21 view .LVU733
 2260 0108 B144     		add	r9, r9, r6
 2261 010a 89F8EC00 		strb	r0, [r9, #236]
 413:ioLibrary_Driver-master/Internet/DHCP/dhcp.c **** 
 2262              		.loc 1 413 2 is_stmt 1 view .LVU734
 413:ioLibrary_Driver-master/Internet/DHCP/dhcp.c **** 
 2263              		.loc 1 413 27 is_stmt 0 view .LVU735
 2264 010e EB1D     		adds	r3, r5, #7
 413:ioLibrary_Driver-master/Internet/DHCP/dhcp.c **** 
 2265              		.loc 1 413 18 view .LVU736
 2266 0110 A8EB0303 		sub	r3, r8, r3
 413:ioLibrary_Driver-master/Internet/DHCP/dhcp.c **** 
 2267              		.loc 1 413 37 view .LVU737
 2268 0114 0635     		adds	r5, r5, #6
 2269              	.LVL196:
 413:ioLibrary_Driver-master/Internet/DHCP/dhcp.c **** 
 2270              		.loc 1 413 33 view .LVU738
 2271 0116 3344     		add	r3, r3, r6
 2272 0118 83F8EC50 		strb	r5, [r3, #236]
 415:ioLibrary_Driver-master/Internet/DHCP/dhcp.c **** 	pDHCPMSG->OPT[k++] = 0x06; // length of request
 2273              		.loc 1 415 2 is_stmt 1 view .LVU739
 415:ioLibrary_Driver-master/Internet/DHCP/dhcp.c **** 	pDHCPMSG->OPT[k++] = 0x06; // length of request
 2274              		.loc 1 415 17 is_stmt 0 view .LVU740
 2275 011c E21D     		adds	r2, r4, #7
 2276 011e 92B2     		uxth	r2, r2
 2277              	.LVL197:
 415:ioLibrary_Driver-master/Internet/DHCP/dhcp.c **** 	pDHCPMSG->OPT[k++] = 0x06; // length of request
 2278              		.loc 1 415 21 view .LVU741
 2279 0120 B044     		add	r8, r8, r6
 2280 0122 3723     		movs	r3, #55
ARM GAS  C:\Users\VIDCOM~1\AppData\Local\Temp\cc9naxsX.s 			page 66


 2281 0124 88F8EC30 		strb	r3, [r8, #236]
 416:ioLibrary_Driver-master/Internet/DHCP/dhcp.c **** 	pDHCPMSG->OPT[k++] = subnetMask;
 2282              		.loc 1 416 2 is_stmt 1 view .LVU742
 416:ioLibrary_Driver-master/Internet/DHCP/dhcp.c **** 	pDHCPMSG->OPT[k++] = subnetMask;
 2283              		.loc 1 416 17 is_stmt 0 view .LVU743
 2284 0128 04F10803 		add	r3, r4, #8
 2285 012c 9BB2     		uxth	r3, r3
 2286              	.LVL198:
 416:ioLibrary_Driver-master/Internet/DHCP/dhcp.c **** 	pDHCPMSG->OPT[k++] = subnetMask;
 2287              		.loc 1 416 21 view .LVU744
 2288 012e 3244     		add	r2, r2, r6
 2289 0130 0621     		movs	r1, #6
 2290 0132 82F8EC10 		strb	r1, [r2, #236]
 417:ioLibrary_Driver-master/Internet/DHCP/dhcp.c **** 	pDHCPMSG->OPT[k++] = routersOnSubnet;
 2291              		.loc 1 417 2 is_stmt 1 view .LVU745
 417:ioLibrary_Driver-master/Internet/DHCP/dhcp.c **** 	pDHCPMSG->OPT[k++] = routersOnSubnet;
 2292              		.loc 1 417 17 is_stmt 0 view .LVU746
 2293 0136 04F10902 		add	r2, r4, #9
 2294 013a 92B2     		uxth	r2, r2
 2295              	.LVL199:
 417:ioLibrary_Driver-master/Internet/DHCP/dhcp.c **** 	pDHCPMSG->OPT[k++] = routersOnSubnet;
 2296              		.loc 1 417 21 view .LVU747
 2297 013c 3344     		add	r3, r3, r6
 2298 013e 0120     		movs	r0, #1
 2299 0140 83F8EC00 		strb	r0, [r3, #236]
 418:ioLibrary_Driver-master/Internet/DHCP/dhcp.c **** 	pDHCPMSG->OPT[k++] = dns;
 2300              		.loc 1 418 2 is_stmt 1 view .LVU748
 418:ioLibrary_Driver-master/Internet/DHCP/dhcp.c **** 	pDHCPMSG->OPT[k++] = dns;
 2301              		.loc 1 418 17 is_stmt 0 view .LVU749
 2302 0144 04F10A03 		add	r3, r4, #10
 2303 0148 9BB2     		uxth	r3, r3
 2304              	.LVL200:
 418:ioLibrary_Driver-master/Internet/DHCP/dhcp.c **** 	pDHCPMSG->OPT[k++] = dns;
 2305              		.loc 1 418 21 view .LVU750
 2306 014a 3244     		add	r2, r2, r6
 2307 014c 0320     		movs	r0, #3
 2308 014e 82F8EC00 		strb	r0, [r2, #236]
 419:ioLibrary_Driver-master/Internet/DHCP/dhcp.c **** 	pDHCPMSG->OPT[k++] = domainName;
 2309              		.loc 1 419 2 is_stmt 1 view .LVU751
 419:ioLibrary_Driver-master/Internet/DHCP/dhcp.c **** 	pDHCPMSG->OPT[k++] = domainName;
 2310              		.loc 1 419 17 is_stmt 0 view .LVU752
 2311 0152 04F10B02 		add	r2, r4, #11
 2312 0156 92B2     		uxth	r2, r2
 2313              	.LVL201:
 419:ioLibrary_Driver-master/Internet/DHCP/dhcp.c **** 	pDHCPMSG->OPT[k++] = domainName;
 2314              		.loc 1 419 21 view .LVU753
 2315 0158 3344     		add	r3, r3, r6
 2316 015a 83F8EC10 		strb	r1, [r3, #236]
 420:ioLibrary_Driver-master/Internet/DHCP/dhcp.c **** 	pDHCPMSG->OPT[k++] = dhcpT1value;
 2317              		.loc 1 420 2 is_stmt 1 view .LVU754
 420:ioLibrary_Driver-master/Internet/DHCP/dhcp.c **** 	pDHCPMSG->OPT[k++] = dhcpT1value;
 2318              		.loc 1 420 17 is_stmt 0 view .LVU755
 2319 015e 04F10C03 		add	r3, r4, #12
 2320 0162 9BB2     		uxth	r3, r3
 2321              	.LVL202:
 420:ioLibrary_Driver-master/Internet/DHCP/dhcp.c **** 	pDHCPMSG->OPT[k++] = dhcpT1value;
 2322              		.loc 1 420 21 view .LVU756
ARM GAS  C:\Users\VIDCOM~1\AppData\Local\Temp\cc9naxsX.s 			page 67


 2323 0164 3244     		add	r2, r2, r6
 2324 0166 0F21     		movs	r1, #15
 2325 0168 82F8EC10 		strb	r1, [r2, #236]
 421:ioLibrary_Driver-master/Internet/DHCP/dhcp.c **** 	pDHCPMSG->OPT[k++] = dhcpT2value;
 2326              		.loc 1 421 2 is_stmt 1 view .LVU757
 421:ioLibrary_Driver-master/Internet/DHCP/dhcp.c **** 	pDHCPMSG->OPT[k++] = dhcpT2value;
 2327              		.loc 1 421 17 is_stmt 0 view .LVU758
 2328 016c 04F10D02 		add	r2, r4, #13
 2329 0170 92B2     		uxth	r2, r2
 2330              	.LVL203:
 421:ioLibrary_Driver-master/Internet/DHCP/dhcp.c **** 	pDHCPMSG->OPT[k++] = dhcpT2value;
 2331              		.loc 1 421 21 view .LVU759
 2332 0172 3344     		add	r3, r3, r6
 2333 0174 3A21     		movs	r1, #58
 2334 0176 83F8EC10 		strb	r1, [r3, #236]
 422:ioLibrary_Driver-master/Internet/DHCP/dhcp.c **** 	pDHCPMSG->OPT[k++] = endOption;
 2335              		.loc 1 422 2 is_stmt 1 view .LVU760
 422:ioLibrary_Driver-master/Internet/DHCP/dhcp.c **** 	pDHCPMSG->OPT[k++] = endOption;
 2336              		.loc 1 422 17 is_stmt 0 view .LVU761
 2337 017a 04F10E03 		add	r3, r4, #14
 2338 017e 9BB2     		uxth	r3, r3
 2339              	.LVL204:
 422:ioLibrary_Driver-master/Internet/DHCP/dhcp.c **** 	pDHCPMSG->OPT[k++] = endOption;
 2340              		.loc 1 422 21 view .LVU762
 2341 0180 3244     		add	r2, r2, r6
 2342 0182 3B21     		movs	r1, #59
 2343 0184 82F8EC10 		strb	r1, [r2, #236]
 423:ioLibrary_Driver-master/Internet/DHCP/dhcp.c **** 
 2344              		.loc 1 423 2 is_stmt 1 view .LVU763
 423:ioLibrary_Driver-master/Internet/DHCP/dhcp.c **** 
 2345              		.loc 1 423 17 is_stmt 0 view .LVU764
 2346 0188 0F34     		adds	r4, r4, #15
 2347 018a A4B2     		uxth	r4, r4
 2348              	.LVL205:
 423:ioLibrary_Driver-master/Internet/DHCP/dhcp.c **** 
 2349              		.loc 1 423 21 view .LVU765
 2350 018c 3344     		add	r3, r3, r6
 2351 018e FF22     		movs	r2, #255
 2352 0190 83F8EC20 		strb	r2, [r3, #236]
 425:ioLibrary_Driver-master/Internet/DHCP/dhcp.c **** 		pDHCPMSG->OPT[i] = 0;
 2353              		.loc 1 425 2 is_stmt 1 view .LVU766
 2354              	.LVL206:
 425:ioLibrary_Driver-master/Internet/DHCP/dhcp.c **** 		pDHCPMSG->OPT[i] = 0;
 2355              		.loc 1 425 2 is_stmt 0 view .LVU767
 2356 0194 05E0     		b	.L121
 2357              	.LVL207:
 2358              	.L122:
 426:ioLibrary_Driver-master/Internet/DHCP/dhcp.c **** 
 2359              		.loc 1 426 3 is_stmt 1 discriminator 3 view .LVU768
 426:ioLibrary_Driver-master/Internet/DHCP/dhcp.c **** 
 2360              		.loc 1 426 20 is_stmt 0 discriminator 3 view .LVU769
 2361 0196 3319     		adds	r3, r6, r4
 2362 0198 0022     		movs	r2, #0
 2363 019a 83F8EC20 		strb	r2, [r3, #236]
 425:ioLibrary_Driver-master/Internet/DHCP/dhcp.c **** 		pDHCPMSG->OPT[i] = 0;
 2364              		.loc 1 425 29 is_stmt 1 discriminator 3 view .LVU770
 2365 019e 0134     		adds	r4, r4, #1
ARM GAS  C:\Users\VIDCOM~1\AppData\Local\Temp\cc9naxsX.s 			page 68


 2366              	.LVL208:
 425:ioLibrary_Driver-master/Internet/DHCP/dhcp.c **** 		pDHCPMSG->OPT[i] = 0;
 2367              		.loc 1 425 29 is_stmt 0 discriminator 3 view .LVU771
 2368 01a0 A4B2     		uxth	r4, r4
 2369              	.LVL209:
 2370              	.L121:
 425:ioLibrary_Driver-master/Internet/DHCP/dhcp.c **** 		pDHCPMSG->OPT[i] = 0;
 2371              		.loc 1 425 16 is_stmt 1 discriminator 1 view .LVU772
 2372 01a2 B4F59C7F 		cmp	r4, #312
 2373 01a6 F6D3     		bcc	.L122
 429:ioLibrary_Driver-master/Internet/DHCP/dhcp.c **** 	ip[1] = 255;
 2374              		.loc 1 429 2 view .LVU773
 429:ioLibrary_Driver-master/Internet/DHCP/dhcp.c **** 	ip[1] = 255;
 2375              		.loc 1 429 8 is_stmt 0 view .LVU774
 2376 01a8 FF23     		movs	r3, #255
 2377 01aa 8DF80C30 		strb	r3, [sp, #12]
 430:ioLibrary_Driver-master/Internet/DHCP/dhcp.c **** 	ip[2] = 255;
 2378              		.loc 1 430 2 is_stmt 1 view .LVU775
 430:ioLibrary_Driver-master/Internet/DHCP/dhcp.c **** 	ip[2] = 255;
 2379              		.loc 1 430 8 is_stmt 0 view .LVU776
 2380 01ae 8DF80D30 		strb	r3, [sp, #13]
 431:ioLibrary_Driver-master/Internet/DHCP/dhcp.c **** 	ip[3] = 255;
 2381              		.loc 1 431 2 is_stmt 1 view .LVU777
 431:ioLibrary_Driver-master/Internet/DHCP/dhcp.c **** 	ip[3] = 255;
 2382              		.loc 1 431 8 is_stmt 0 view .LVU778
 2383 01b2 8DF80E30 		strb	r3, [sp, #14]
 432:ioLibrary_Driver-master/Internet/DHCP/dhcp.c **** 
 2384              		.loc 1 432 2 is_stmt 1 view .LVU779
 432:ioLibrary_Driver-master/Internet/DHCP/dhcp.c **** 
 2385              		.loc 1 432 8 is_stmt 0 view .LVU780
 2386 01b6 8DF80F30 		strb	r3, [sp, #15]
 438:ioLibrary_Driver-master/Internet/DHCP/dhcp.c **** }
 2387              		.loc 1 438 2 is_stmt 1 view .LVU781
 2388 01ba 4323     		movs	r3, #67
 2389 01bc 0093     		str	r3, [sp]
 2390 01be 03AB     		add	r3, sp, #12
 2391 01c0 4FF40972 		mov	r2, #548
 2392 01c4 3146     		mov	r1, r6
 2393 01c6 0848     		ldr	r0, .L124+20
 2394 01c8 0078     		ldrb	r0, [r0]	@ zero_extendqisi2
 2395 01ca FFF7FEFF 		bl	sendto
 2396              	.LVL210:
 439:ioLibrary_Driver-master/Internet/DHCP/dhcp.c **** 
 2397              		.loc 1 439 1 is_stmt 0 view .LVU782
 2398 01ce 05B0     		add	sp, sp, #20
 2399              	.LCFI26:
 2400              		.cfi_def_cfa_offset 36
 2401              		@ sp needed
 2402 01d0 BDE8F08F 		pop	{r4, r5, r6, r7, r8, r9, r10, fp, pc}
 2403              	.LVL211:
 2404              	.L125:
 439:ioLibrary_Driver-master/Internet/DHCP/dhcp.c **** 
 2405              		.loc 1 439 1 view .LVU783
 2406              		.align	2
 2407              	.L124:
 2408 01d4 00000000 		.word	DHCP_SIP
 2409 01d8 00000000 		.word	DHCP_REAL_SIP
ARM GAS  C:\Users\VIDCOM~1\AppData\Local\Temp\cc9naxsX.s 			page 69


 2410 01dc 00000000 		.word	pDHCPMSG
 2411 01e0 00000000 		.word	DHCP_CHADDR
 2412 01e4 00000000 		.word	HOST_NAME
 2413 01e8 00000000 		.word	DHCP_SOCKET
 2414              		.cfi_endproc
 2415              	.LFE5:
 2417              		.section	.text.send_DHCP_REQUEST,"ax",%progbits
 2418              		.align	1
 2419              		.global	send_DHCP_REQUEST
 2420              		.syntax unified
 2421              		.thumb
 2422              		.thumb_func
 2424              	send_DHCP_REQUEST:
 2425              	.LFB6:
 443:ioLibrary_Driver-master/Internet/DHCP/dhcp.c **** 	int i;
 2426              		.loc 1 443 1 is_stmt 1 view -0
 2427              		.cfi_startproc
 2428              		@ args = 0, pretend = 0, frame = 8
 2429              		@ frame_needed = 0, uses_anonymous_args = 0
 2430 0000 2DE9F04F 		push	{r4, r5, r6, r7, r8, r9, r10, fp, lr}
 2431              	.LCFI27:
 2432              		.cfi_def_cfa_offset 36
 2433              		.cfi_offset 4, -36
 2434              		.cfi_offset 5, -32
 2435              		.cfi_offset 6, -28
 2436              		.cfi_offset 7, -24
 2437              		.cfi_offset 8, -20
 2438              		.cfi_offset 9, -16
 2439              		.cfi_offset 10, -12
 2440              		.cfi_offset 11, -8
 2441              		.cfi_offset 14, -4
 2442 0004 85B0     		sub	sp, sp, #20
 2443              	.LCFI28:
 2444              		.cfi_def_cfa_offset 56
 444:ioLibrary_Driver-master/Internet/DHCP/dhcp.c **** 	uint8_t ip[4];
 2445              		.loc 1 444 2 view .LVU785
 445:ioLibrary_Driver-master/Internet/DHCP/dhcp.c **** 	uint16_t k = 0;
 2446              		.loc 1 445 2 view .LVU786
 446:ioLibrary_Driver-master/Internet/DHCP/dhcp.c **** 
 2447              		.loc 1 446 2 view .LVU787
 2448              	.LVL212:
 448:ioLibrary_Driver-master/Internet/DHCP/dhcp.c **** 
 2449              		.loc 1 448 2 view .LVU788
 2450 0006 FFF7FEFF 		bl	makeDHCPMSG
 2451              	.LVL213:
 450:ioLibrary_Driver-master/Internet/DHCP/dhcp.c **** 	{
 2452              		.loc 1 450 2 view .LVU789
 450:ioLibrary_Driver-master/Internet/DHCP/dhcp.c **** 	{
 2453              		.loc 1 450 38 is_stmt 0 view .LVU790
 2454 000a 9D4B     		ldr	r3, .L138
 2455 000c 1B78     		ldrb	r3, [r3]	@ zero_extendqisi2
 2456 000e 033B     		subs	r3, r3, #3
 2457 0010 DBB2     		uxtb	r3, r3
 450:ioLibrary_Driver-master/Internet/DHCP/dhcp.c **** 	{
 2458              		.loc 1 450 5 view .LVU791
 2459 0012 012B     		cmp	r3, #1
 2460 0014 40D9     		bls	.L136
ARM GAS  C:\Users\VIDCOM~1\AppData\Local\Temp\cc9naxsX.s 			page 70


 465:ioLibrary_Driver-master/Internet/DHCP/dhcp.c **** 		ip[1] = 255;
 2461              		.loc 1 465 3 is_stmt 1 view .LVU792
 465:ioLibrary_Driver-master/Internet/DHCP/dhcp.c **** 		ip[1] = 255;
 2462              		.loc 1 465 9 is_stmt 0 view .LVU793
 2463 0016 FF23     		movs	r3, #255
 2464 0018 8DF80C30 		strb	r3, [sp, #12]
 466:ioLibrary_Driver-master/Internet/DHCP/dhcp.c **** 		ip[2] = 255;
 2465              		.loc 1 466 3 is_stmt 1 view .LVU794
 466:ioLibrary_Driver-master/Internet/DHCP/dhcp.c **** 		ip[2] = 255;
 2466              		.loc 1 466 9 is_stmt 0 view .LVU795
 2467 001c 8DF80D30 		strb	r3, [sp, #13]
 467:ioLibrary_Driver-master/Internet/DHCP/dhcp.c **** 		ip[3] = 255;
 2468              		.loc 1 467 3 is_stmt 1 view .LVU796
 467:ioLibrary_Driver-master/Internet/DHCP/dhcp.c **** 		ip[3] = 255;
 2469              		.loc 1 467 9 is_stmt 0 view .LVU797
 2470 0020 8DF80E30 		strb	r3, [sp, #14]
 468:ioLibrary_Driver-master/Internet/DHCP/dhcp.c **** 	}
 2471              		.loc 1 468 3 is_stmt 1 view .LVU798
 468:ioLibrary_Driver-master/Internet/DHCP/dhcp.c **** 	}
 2472              		.loc 1 468 9 is_stmt 0 view .LVU799
 2473 0024 8DF80F30 		strb	r3, [sp, #15]
 2474              	.L128:
 471:ioLibrary_Driver-master/Internet/DHCP/dhcp.c **** 
 2475              		.loc 1 471 2 is_stmt 1 view .LVU800
 2476              	.LVL214:
 474:ioLibrary_Driver-master/Internet/DHCP/dhcp.c **** 	pDHCPMSG->OPT[k++] = 0x01;
 2477              		.loc 1 474 2 view .LVU801
 474:ioLibrary_Driver-master/Internet/DHCP/dhcp.c **** 	pDHCPMSG->OPT[k++] = 0x01;
 2478              		.loc 1 474 10 is_stmt 0 view .LVU802
 2479 0028 964B     		ldr	r3, .L138+4
 2480 002a 1D68     		ldr	r5, [r3]
 2481              	.LVL215:
 474:ioLibrary_Driver-master/Internet/DHCP/dhcp.c **** 	pDHCPMSG->OPT[k++] = 0x01;
 2482              		.loc 1 474 21 view .LVU803
 2483 002c 3523     		movs	r3, #53
 2484 002e 85F8F030 		strb	r3, [r5, #240]
 475:ioLibrary_Driver-master/Internet/DHCP/dhcp.c **** 	pDHCPMSG->OPT[k++] = DHCP_REQUEST;
 2485              		.loc 1 475 2 is_stmt 1 view .LVU804
 2486              	.LVL216:
 475:ioLibrary_Driver-master/Internet/DHCP/dhcp.c **** 	pDHCPMSG->OPT[k++] = DHCP_REQUEST;
 2487              		.loc 1 475 21 is_stmt 0 view .LVU805
 2488 0032 0123     		movs	r3, #1
 2489 0034 85F8F130 		strb	r3, [r5, #241]
 476:ioLibrary_Driver-master/Internet/DHCP/dhcp.c **** 
 2490              		.loc 1 476 2 is_stmt 1 view .LVU806
 2491              	.LVL217:
 476:ioLibrary_Driver-master/Internet/DHCP/dhcp.c **** 
 2492              		.loc 1 476 21 is_stmt 0 view .LVU807
 2493 0038 0322     		movs	r2, #3
 2494 003a 85F8F220 		strb	r2, [r5, #242]
 478:ioLibrary_Driver-master/Internet/DHCP/dhcp.c **** 	pDHCPMSG->OPT[k++] = 0x07;
 2495              		.loc 1 478 2 is_stmt 1 view .LVU808
 2496              	.LVL218:
 478:ioLibrary_Driver-master/Internet/DHCP/dhcp.c **** 	pDHCPMSG->OPT[k++] = 0x07;
 2497              		.loc 1 478 21 is_stmt 0 view .LVU809
 2498 003e 3D22     		movs	r2, #61
 2499 0040 85F8F320 		strb	r2, [r5, #243]
ARM GAS  C:\Users\VIDCOM~1\AppData\Local\Temp\cc9naxsX.s 			page 71


 479:ioLibrary_Driver-master/Internet/DHCP/dhcp.c **** 	pDHCPMSG->OPT[k++] = 0x01;
 2500              		.loc 1 479 2 is_stmt 1 view .LVU810
 2501              	.LVL219:
 479:ioLibrary_Driver-master/Internet/DHCP/dhcp.c **** 	pDHCPMSG->OPT[k++] = 0x01;
 2502              		.loc 1 479 21 is_stmt 0 view .LVU811
 2503 0044 0722     		movs	r2, #7
 2504 0046 85F8F420 		strb	r2, [r5, #244]
 480:ioLibrary_Driver-master/Internet/DHCP/dhcp.c **** 	pDHCPMSG->OPT[k++] = DHCP_CHADDR[0];
 2505              		.loc 1 480 2 is_stmt 1 view .LVU812
 2506              	.LVL220:
 480:ioLibrary_Driver-master/Internet/DHCP/dhcp.c **** 	pDHCPMSG->OPT[k++] = DHCP_CHADDR[0];
 2507              		.loc 1 480 21 is_stmt 0 view .LVU813
 2508 004a 85F8F530 		strb	r3, [r5, #245]
 481:ioLibrary_Driver-master/Internet/DHCP/dhcp.c **** 	pDHCPMSG->OPT[k++] = DHCP_CHADDR[1];
 2509              		.loc 1 481 2 is_stmt 1 view .LVU814
 2510              	.LVL221:
 481:ioLibrary_Driver-master/Internet/DHCP/dhcp.c **** 	pDHCPMSG->OPT[k++] = DHCP_CHADDR[1];
 2511              		.loc 1 481 34 is_stmt 0 view .LVU815
 2512 004e 8E4B     		ldr	r3, .L138+8
 2513 0050 1A78     		ldrb	r2, [r3]	@ zero_extendqisi2
 481:ioLibrary_Driver-master/Internet/DHCP/dhcp.c **** 	pDHCPMSG->OPT[k++] = DHCP_CHADDR[1];
 2514              		.loc 1 481 21 view .LVU816
 2515 0052 85F8F620 		strb	r2, [r5, #246]
 482:ioLibrary_Driver-master/Internet/DHCP/dhcp.c **** 	pDHCPMSG->OPT[k++] = DHCP_CHADDR[2];
 2516              		.loc 1 482 2 is_stmt 1 view .LVU817
 2517              	.LVL222:
 482:ioLibrary_Driver-master/Internet/DHCP/dhcp.c **** 	pDHCPMSG->OPT[k++] = DHCP_CHADDR[2];
 2518              		.loc 1 482 34 is_stmt 0 view .LVU818
 2519 0056 5A78     		ldrb	r2, [r3, #1]	@ zero_extendqisi2
 482:ioLibrary_Driver-master/Internet/DHCP/dhcp.c **** 	pDHCPMSG->OPT[k++] = DHCP_CHADDR[2];
 2520              		.loc 1 482 21 view .LVU819
 2521 0058 85F8F720 		strb	r2, [r5, #247]
 483:ioLibrary_Driver-master/Internet/DHCP/dhcp.c **** 	pDHCPMSG->OPT[k++] = DHCP_CHADDR[3];
 2522              		.loc 1 483 2 is_stmt 1 view .LVU820
 2523              	.LVL223:
 483:ioLibrary_Driver-master/Internet/DHCP/dhcp.c **** 	pDHCPMSG->OPT[k++] = DHCP_CHADDR[3];
 2524              		.loc 1 483 34 is_stmt 0 view .LVU821
 2525 005c 9A78     		ldrb	r2, [r3, #2]	@ zero_extendqisi2
 483:ioLibrary_Driver-master/Internet/DHCP/dhcp.c **** 	pDHCPMSG->OPT[k++] = DHCP_CHADDR[3];
 2526              		.loc 1 483 21 view .LVU822
 2527 005e 85F8F820 		strb	r2, [r5, #248]
 484:ioLibrary_Driver-master/Internet/DHCP/dhcp.c **** 	pDHCPMSG->OPT[k++] = DHCP_CHADDR[4];
 2528              		.loc 1 484 2 is_stmt 1 view .LVU823
 2529              	.LVL224:
 484:ioLibrary_Driver-master/Internet/DHCP/dhcp.c **** 	pDHCPMSG->OPT[k++] = DHCP_CHADDR[4];
 2530              		.loc 1 484 34 is_stmt 0 view .LVU824
 2531 0062 93F80390 		ldrb	r9, [r3, #3]	@ zero_extendqisi2
 484:ioLibrary_Driver-master/Internet/DHCP/dhcp.c **** 	pDHCPMSG->OPT[k++] = DHCP_CHADDR[4];
 2532              		.loc 1 484 21 view .LVU825
 2533 0066 85F8F990 		strb	r9, [r5, #249]
 485:ioLibrary_Driver-master/Internet/DHCP/dhcp.c **** 	pDHCPMSG->OPT[k++] = DHCP_CHADDR[5];
 2534              		.loc 1 485 2 is_stmt 1 view .LVU826
 2535              	.LVL225:
 485:ioLibrary_Driver-master/Internet/DHCP/dhcp.c **** 	pDHCPMSG->OPT[k++] = DHCP_CHADDR[5];
 2536              		.loc 1 485 34 is_stmt 0 view .LVU827
 2537 006a 93F80480 		ldrb	r8, [r3, #4]	@ zero_extendqisi2
 485:ioLibrary_Driver-master/Internet/DHCP/dhcp.c **** 	pDHCPMSG->OPT[k++] = DHCP_CHADDR[5];
ARM GAS  C:\Users\VIDCOM~1\AppData\Local\Temp\cc9naxsX.s 			page 72


 2538              		.loc 1 485 21 view .LVU828
 2539 006e 85F8FA80 		strb	r8, [r5, #250]
 486:ioLibrary_Driver-master/Internet/DHCP/dhcp.c **** 
 2540              		.loc 1 486 2 is_stmt 1 view .LVU829
 2541              	.LVL226:
 486:ioLibrary_Driver-master/Internet/DHCP/dhcp.c **** 
 2542              		.loc 1 486 34 is_stmt 0 view .LVU830
 2543 0072 5F79     		ldrb	r7, [r3, #5]	@ zero_extendqisi2
 486:ioLibrary_Driver-master/Internet/DHCP/dhcp.c **** 
 2544              		.loc 1 486 21 view .LVU831
 2545 0074 85F8FB70 		strb	r7, [r5, #251]
 488:ioLibrary_Driver-master/Internet/DHCP/dhcp.c **** 	{
 2546              		.loc 1 488 2 is_stmt 1 view .LVU832
 488:ioLibrary_Driver-master/Internet/DHCP/dhcp.c **** 	{
 2547              		.loc 1 488 8 is_stmt 0 view .LVU833
 2548 0078 9DF80F30 		ldrb	r3, [sp, #15]	@ zero_extendqisi2
 488:ioLibrary_Driver-master/Internet/DHCP/dhcp.c **** 	{
 2549              		.loc 1 488 5 view .LVU834
 2550 007c FF2B     		cmp	r3, #255
 2551 007e 27D0     		beq	.L137
 486:ioLibrary_Driver-master/Internet/DHCP/dhcp.c **** 
 2552              		.loc 1 486 17 view .LVU835
 2553 0080 1024     		movs	r4, #16
 2554              	.LVL227:
 2555              	.L129:
 506:ioLibrary_Driver-master/Internet/DHCP/dhcp.c **** 	pDHCPMSG->OPT[k++] = 0; // length of hostname
 2556              		.loc 1 506 2 is_stmt 1 view .LVU836
 506:ioLibrary_Driver-master/Internet/DHCP/dhcp.c **** 	pDHCPMSG->OPT[k++] = 0; // length of hostname
 2557              		.loc 1 506 17 is_stmt 0 view .LVU837
 2558 0082 631C     		adds	r3, r4, #1
 2559              	.LVL228:
 506:ioLibrary_Driver-master/Internet/DHCP/dhcp.c **** 	pDHCPMSG->OPT[k++] = 0; // length of hostname
 2560              		.loc 1 506 21 view .LVU838
 2561 0084 2A19     		adds	r2, r5, r4
 2562 0086 0C21     		movs	r1, #12
 2563 0088 82F8EC10 		strb	r1, [r2, #236]
 507:ioLibrary_Driver-master/Internet/DHCP/dhcp.c **** 	for (i = 0; HOST_NAME[i] != 0; i++)
 2564              		.loc 1 507 2 is_stmt 1 view .LVU839
 507:ioLibrary_Driver-master/Internet/DHCP/dhcp.c **** 	for (i = 0; HOST_NAME[i] != 0; i++)
 2565              		.loc 1 507 17 is_stmt 0 view .LVU840
 2566 008c 0234     		adds	r4, r4, #2
 2567              	.LVL229:
 507:ioLibrary_Driver-master/Internet/DHCP/dhcp.c **** 	for (i = 0; HOST_NAME[i] != 0; i++)
 2568              		.loc 1 507 21 view .LVU841
 2569 008e 2B44     		add	r3, r3, r5
 2570 0090 0026     		movs	r6, #0
 2571 0092 83F8EC60 		strb	r6, [r3, #236]
 508:ioLibrary_Driver-master/Internet/DHCP/dhcp.c **** 		pDHCPMSG->OPT[k++] = HOST_NAME[i];
 2572              		.loc 1 508 2 is_stmt 1 view .LVU842
 2573              	.LVL230:
 508:ioLibrary_Driver-master/Internet/DHCP/dhcp.c **** 		pDHCPMSG->OPT[k++] = HOST_NAME[i];
 2574              		.loc 1 508 2 is_stmt 0 view .LVU843
 2575 0096 48E0     		b	.L130
 2576              	.LVL231:
 2577              	.L136:
 452:ioLibrary_Driver-master/Internet/DHCP/dhcp.c **** 		*((uint8_t *)(&pDHCPMSG->flags) + 1) = (DHCP_FLAGSUNICAST & 0x00FF);
 2578              		.loc 1 452 3 is_stmt 1 view .LVU844
ARM GAS  C:\Users\VIDCOM~1\AppData\Local\Temp\cc9naxsX.s 			page 73


 452:ioLibrary_Driver-master/Internet/DHCP/dhcp.c **** 		*((uint8_t *)(&pDHCPMSG->flags) + 1) = (DHCP_FLAGSUNICAST & 0x00FF);
 2579              		.loc 1 452 26 is_stmt 0 view .LVU845
 2580 0098 7A4B     		ldr	r3, .L138+4
 2581 009a 1B68     		ldr	r3, [r3]
 452:ioLibrary_Driver-master/Internet/DHCP/dhcp.c **** 		*((uint8_t *)(&pDHCPMSG->flags) + 1) = (DHCP_FLAGSUNICAST & 0x00FF);
 2582              		.loc 1 452 36 view .LVU846
 2583 009c 0022     		movs	r2, #0
 2584 009e 9A72     		strb	r2, [r3, #10]
 453:ioLibrary_Driver-master/Internet/DHCP/dhcp.c **** 		pDHCPMSG->ciaddr[0] = DHCP_allocated_ip[0];
 2585              		.loc 1 453 3 is_stmt 1 view .LVU847
 453:ioLibrary_Driver-master/Internet/DHCP/dhcp.c **** 		pDHCPMSG->ciaddr[0] = DHCP_allocated_ip[0];
 2586              		.loc 1 453 40 is_stmt 0 view .LVU848
 2587 00a0 DA72     		strb	r2, [r3, #11]
 454:ioLibrary_Driver-master/Internet/DHCP/dhcp.c **** 		pDHCPMSG->ciaddr[1] = DHCP_allocated_ip[1];
 2588              		.loc 1 454 3 is_stmt 1 view .LVU849
 454:ioLibrary_Driver-master/Internet/DHCP/dhcp.c **** 		pDHCPMSG->ciaddr[1] = DHCP_allocated_ip[1];
 2589              		.loc 1 454 42 is_stmt 0 view .LVU850
 2590 00a2 7A4A     		ldr	r2, .L138+12
 2591 00a4 1178     		ldrb	r1, [r2]	@ zero_extendqisi2
 454:ioLibrary_Driver-master/Internet/DHCP/dhcp.c **** 		pDHCPMSG->ciaddr[1] = DHCP_allocated_ip[1];
 2592              		.loc 1 454 23 view .LVU851
 2593 00a6 1973     		strb	r1, [r3, #12]
 455:ioLibrary_Driver-master/Internet/DHCP/dhcp.c **** 		pDHCPMSG->ciaddr[2] = DHCP_allocated_ip[2];
 2594              		.loc 1 455 3 is_stmt 1 view .LVU852
 455:ioLibrary_Driver-master/Internet/DHCP/dhcp.c **** 		pDHCPMSG->ciaddr[2] = DHCP_allocated_ip[2];
 2595              		.loc 1 455 42 is_stmt 0 view .LVU853
 2596 00a8 5178     		ldrb	r1, [r2, #1]	@ zero_extendqisi2
 455:ioLibrary_Driver-master/Internet/DHCP/dhcp.c **** 		pDHCPMSG->ciaddr[2] = DHCP_allocated_ip[2];
 2597              		.loc 1 455 23 view .LVU854
 2598 00aa 5973     		strb	r1, [r3, #13]
 456:ioLibrary_Driver-master/Internet/DHCP/dhcp.c **** 		pDHCPMSG->ciaddr[3] = DHCP_allocated_ip[3];
 2599              		.loc 1 456 3 is_stmt 1 view .LVU855
 456:ioLibrary_Driver-master/Internet/DHCP/dhcp.c **** 		pDHCPMSG->ciaddr[3] = DHCP_allocated_ip[3];
 2600              		.loc 1 456 42 is_stmt 0 view .LVU856
 2601 00ac 9178     		ldrb	r1, [r2, #2]	@ zero_extendqisi2
 456:ioLibrary_Driver-master/Internet/DHCP/dhcp.c **** 		pDHCPMSG->ciaddr[3] = DHCP_allocated_ip[3];
 2602              		.loc 1 456 23 view .LVU857
 2603 00ae 9973     		strb	r1, [r3, #14]
 457:ioLibrary_Driver-master/Internet/DHCP/dhcp.c **** 		ip[0] = DHCP_SIP[0];
 2604              		.loc 1 457 3 is_stmt 1 view .LVU858
 457:ioLibrary_Driver-master/Internet/DHCP/dhcp.c **** 		ip[0] = DHCP_SIP[0];
 2605              		.loc 1 457 42 is_stmt 0 view .LVU859
 2606 00b0 D278     		ldrb	r2, [r2, #3]	@ zero_extendqisi2
 457:ioLibrary_Driver-master/Internet/DHCP/dhcp.c **** 		ip[0] = DHCP_SIP[0];
 2607              		.loc 1 457 23 view .LVU860
 2608 00b2 DA73     		strb	r2, [r3, #15]
 458:ioLibrary_Driver-master/Internet/DHCP/dhcp.c **** 		ip[1] = DHCP_SIP[1];
 2609              		.loc 1 458 3 is_stmt 1 view .LVU861
 458:ioLibrary_Driver-master/Internet/DHCP/dhcp.c **** 		ip[1] = DHCP_SIP[1];
 2610              		.loc 1 458 19 is_stmt 0 view .LVU862
 2611 00b4 764B     		ldr	r3, .L138+16
 2612 00b6 1A78     		ldrb	r2, [r3]	@ zero_extendqisi2
 458:ioLibrary_Driver-master/Internet/DHCP/dhcp.c **** 		ip[1] = DHCP_SIP[1];
 2613              		.loc 1 458 9 view .LVU863
 2614 00b8 8DF80C20 		strb	r2, [sp, #12]
 459:ioLibrary_Driver-master/Internet/DHCP/dhcp.c **** 		ip[2] = DHCP_SIP[2];
 2615              		.loc 1 459 3 is_stmt 1 view .LVU864
ARM GAS  C:\Users\VIDCOM~1\AppData\Local\Temp\cc9naxsX.s 			page 74


 459:ioLibrary_Driver-master/Internet/DHCP/dhcp.c **** 		ip[2] = DHCP_SIP[2];
 2616              		.loc 1 459 19 is_stmt 0 view .LVU865
 2617 00bc 5A78     		ldrb	r2, [r3, #1]	@ zero_extendqisi2
 459:ioLibrary_Driver-master/Internet/DHCP/dhcp.c **** 		ip[2] = DHCP_SIP[2];
 2618              		.loc 1 459 9 view .LVU866
 2619 00be 8DF80D20 		strb	r2, [sp, #13]
 460:ioLibrary_Driver-master/Internet/DHCP/dhcp.c **** 		ip[3] = DHCP_SIP[3];
 2620              		.loc 1 460 3 is_stmt 1 view .LVU867
 460:ioLibrary_Driver-master/Internet/DHCP/dhcp.c **** 		ip[3] = DHCP_SIP[3];
 2621              		.loc 1 460 19 is_stmt 0 view .LVU868
 2622 00c2 9A78     		ldrb	r2, [r3, #2]	@ zero_extendqisi2
 460:ioLibrary_Driver-master/Internet/DHCP/dhcp.c **** 		ip[3] = DHCP_SIP[3];
 2623              		.loc 1 460 9 view .LVU869
 2624 00c4 8DF80E20 		strb	r2, [sp, #14]
 461:ioLibrary_Driver-master/Internet/DHCP/dhcp.c **** 	}
 2625              		.loc 1 461 3 is_stmt 1 view .LVU870
 461:ioLibrary_Driver-master/Internet/DHCP/dhcp.c **** 	}
 2626              		.loc 1 461 19 is_stmt 0 view .LVU871
 2627 00c8 DB78     		ldrb	r3, [r3, #3]	@ zero_extendqisi2
 461:ioLibrary_Driver-master/Internet/DHCP/dhcp.c **** 	}
 2628              		.loc 1 461 9 view .LVU872
 2629 00ca 8DF80F30 		strb	r3, [sp, #15]
 2630 00ce ABE7     		b	.L128
 2631              	.LVL232:
 2632              	.L137:
 490:ioLibrary_Driver-master/Internet/DHCP/dhcp.c **** 		pDHCPMSG->OPT[k++] = 0x04;
 2633              		.loc 1 490 3 is_stmt 1 view .LVU873
 490:ioLibrary_Driver-master/Internet/DHCP/dhcp.c **** 		pDHCPMSG->OPT[k++] = 0x04;
 2634              		.loc 1 490 22 is_stmt 0 view .LVU874
 2635 00d0 3223     		movs	r3, #50
 2636 00d2 85F8FC30 		strb	r3, [r5, #252]
 491:ioLibrary_Driver-master/Internet/DHCP/dhcp.c **** 		pDHCPMSG->OPT[k++] = DHCP_allocated_ip[0];
 2637              		.loc 1 491 3 is_stmt 1 view .LVU875
 2638              	.LVL233:
 491:ioLibrary_Driver-master/Internet/DHCP/dhcp.c **** 		pDHCPMSG->OPT[k++] = DHCP_allocated_ip[0];
 2639              		.loc 1 491 22 is_stmt 0 view .LVU876
 2640 00d6 0422     		movs	r2, #4
 2641 00d8 85F8FD20 		strb	r2, [r5, #253]
 492:ioLibrary_Driver-master/Internet/DHCP/dhcp.c **** 		pDHCPMSG->OPT[k++] = DHCP_allocated_ip[1];
 2642              		.loc 1 492 3 is_stmt 1 view .LVU877
 2643              	.LVL234:
 492:ioLibrary_Driver-master/Internet/DHCP/dhcp.c **** 		pDHCPMSG->OPT[k++] = DHCP_allocated_ip[1];
 2644              		.loc 1 492 41 is_stmt 0 view .LVU878
 2645 00dc 6B4B     		ldr	r3, .L138+12
 2646 00de 1978     		ldrb	r1, [r3]	@ zero_extendqisi2
 492:ioLibrary_Driver-master/Internet/DHCP/dhcp.c **** 		pDHCPMSG->OPT[k++] = DHCP_allocated_ip[1];
 2647              		.loc 1 492 22 view .LVU879
 2648 00e0 85F8FE10 		strb	r1, [r5, #254]
 493:ioLibrary_Driver-master/Internet/DHCP/dhcp.c **** 		pDHCPMSG->OPT[k++] = DHCP_allocated_ip[2];
 2649              		.loc 1 493 3 is_stmt 1 view .LVU880
 2650              	.LVL235:
 493:ioLibrary_Driver-master/Internet/DHCP/dhcp.c **** 		pDHCPMSG->OPT[k++] = DHCP_allocated_ip[2];
 2651              		.loc 1 493 41 is_stmt 0 view .LVU881
 2652 00e4 5978     		ldrb	r1, [r3, #1]	@ zero_extendqisi2
 493:ioLibrary_Driver-master/Internet/DHCP/dhcp.c **** 		pDHCPMSG->OPT[k++] = DHCP_allocated_ip[2];
 2653              		.loc 1 493 22 view .LVU882
 2654 00e6 85F8FF10 		strb	r1, [r5, #255]
ARM GAS  C:\Users\VIDCOM~1\AppData\Local\Temp\cc9naxsX.s 			page 75


