ARM GAS  C:\Users\VIDCOM~1\AppData\Local\Temp\cc4j4Ttx.s 			page 1


   1              		.cpu cortex-m3
   2              		.arch armv7-m
   3              		.fpu softvfp
   4              		.eabi_attribute 20, 1
   5              		.eabi_attribute 21, 1
   6              		.eabi_attribute 23, 3
   7              		.eabi_attribute 24, 1
   8              		.eabi_attribute 25, 1
   9              		.eabi_attribute 26, 1
  10              		.eabi_attribute 30, 1
  11              		.eabi_attribute 34, 1
  12              		.eabi_attribute 18, 4
  13              		.file	"freertos.c"
  14              		.text
  15              	.Ltext0:
  16              		.cfi_sections	.debug_frame
  17              		.file 1 "Core/Src/freertos.c"
  18              		.section	.text._Crc16_mdb,"ax",%progbits
  19              		.align	1
  20              		.syntax unified
  21              		.thumb
  22              		.thumb_func
  24              	_Crc16_mdb:
  25              	.LVL0:
  26              	.LFB585:
   1:Core/Src/freertos.c **** /* USER CODE BEGIN Header */
   2:Core/Src/freertos.c **** /**
   3:Core/Src/freertos.c ****  ******************************************************************************
   4:Core/Src/freertos.c ****  * File Name          : freertos.c
   5:Core/Src/freertos.c ****  * Description        : Code for freertos applications
   6:Core/Src/freertos.c ****  ******************************************************************************
   7:Core/Src/freertos.c ****  * @attention
   8:Core/Src/freertos.c ****  *
   9:Core/Src/freertos.c ****  * Copyright (c) 2023 STMicroelectronics.
  10:Core/Src/freertos.c ****  * All rights reserved.
  11:Core/Src/freertos.c ****  *
  12:Core/Src/freertos.c ****  * This software is licensed under terms that can be found in the LICENSE file
  13:Core/Src/freertos.c ****  * in the root directory of this software component.
  14:Core/Src/freertos.c ****  * If no LICENSE file comes with this software, it is provided AS-IS.
  15:Core/Src/freertos.c ****  *
  16:Core/Src/freertos.c ****  ******************************************************************************
  17:Core/Src/freertos.c ****  */
  18:Core/Src/freertos.c **** /* USER CODE END Header */
  19:Core/Src/freertos.c **** 
  20:Core/Src/freertos.c **** /* Includes ------------------------------------------------------------------*/
  21:Core/Src/freertos.c **** #include "FreeRTOS.h"
  22:Core/Src/freertos.c **** #include "task.h"
  23:Core/Src/freertos.c **** #include "main.h"
  24:Core/Src/freertos.c **** #include "cmsis_os.h"
  25:Core/Src/freertos.c **** 
  26:Core/Src/freertos.c **** /* Private includes ----------------------------------------------------------*/
  27:Core/Src/freertos.c **** /* USER CODE BEGIN Includes */
  28:Core/Src/freertos.c **** #include "Eth.h"
  29:Core/Src/freertos.c **** #include "BSP_ICA2D13.h"
  30:Core/Src/freertos.c **** 
  31:Core/Src/freertos.c **** #include "tim.h"
  32:Core/Src/freertos.c **** #include "usart.h"
ARM GAS  C:\Users\VIDCOM~1\AppData\Local\Temp\cc4j4Ttx.s 			page 2


  33:Core/Src/freertos.c **** 
  34:Core/Src/freertos.c **** #include "ModbusSS.h"
  35:Core/Src/freertos.c **** #include "ModbusConf.h"
  36:Core/Src/freertos.c **** #include "ModbusProtocol.h"
  37:Core/Src/freertos.c **** /* USER CODE END Includes */
  38:Core/Src/freertos.c **** 
  39:Core/Src/freertos.c **** /* Private typedef -----------------------------------------------------------*/
  40:Core/Src/freertos.c **** /* USER CODE BEGIN PTD */
  41:Core/Src/freertos.c **** int32_t cbckModbusTcpServer(Eth_t_SocTcp *socket);
  42:Core/Src/freertos.c **** 
  43:Core/Src/freertos.c **** /* USER CODE END PTD */
  44:Core/Src/freertos.c **** 
  45:Core/Src/freertos.c **** /* Private define ------------------------------------------------------------*/
  46:Core/Src/freertos.c **** /* USER CODE BEGIN PD */
  47:Core/Src/freertos.c **** /*---------------------MODBUS------------------------*/
  48:Core/Src/freertos.c **** // ModbusCoreTypedef modbusCore;
  49:Core/Src/freertos.c **** #define MODBUS_TCP_SERVER_SOC_CNT (4)
  50:Core/Src/freertos.c **** Eth_t_SocTcp tcpModbusSocket[MODBUS_TCP_SERVER_SOC_CNT];
  51:Core/Src/freertos.c **** uint8_t modbusBufRxTxTCP[MODBUS_SS_BUF_CNT];
  52:Core/Src/freertos.c **** #define MODBUS_TABLE_HOLDING_QUANT (MBP_reg_7 - MBP_reg_1 + 1)
  53:Core/Src/freertos.c **** uint16_t modbusHoldingBuf[MODBUS_TABLE_HOLDING_QUANT];
  54:Core/Src/freertos.c **** 
  55:Core/Src/freertos.c **** 
  56:Core/Src/freertos.c **** #define MDB_RTU_TX_SLACE_ID (1)
  57:Core/Src/freertos.c **** #define MDB_RTU_TX_FUNCTION (4)
  58:Core/Src/freertos.c **** #define MDB_RTU_TX_REG_ADRES (1)
  59:Core/Src/freertos.c **** #define MDB_RTU_TX_REG_QANT (5)
  60:Core/Src/freertos.c **** #define MDB_RTU_TX_COUNT_BYTE (8)
  61:Core/Src/freertos.c **** 
  62:Core/Src/freertos.c **** #define MDB_RTU_RX_COUNT_BYTE (5 + (MDB_RTU_TX_REG_QANT * 2))
  63:Core/Src/freertos.c **** 
  64:Core/Src/freertos.c **** uint8_t modbusBufTxRtu485[30];
  65:Core/Src/freertos.c **** uint8_t modbusBufRxRtu485[30];
  66:Core/Src/freertos.c **** uint8_t mdb_wait_rx_flag = 0;
  67:Core/Src/freertos.c **** 
  68:Core/Src/freertos.c **** uint16_t mdb_reg_buf[MDB_RTU_TX_REG_QANT] = {0};
  69:Core/Src/freertos.c **** uint16_t mdb_err_cnt = 0;
  70:Core/Src/freertos.c **** uint8_t  mdb_err_code = 0;
  71:Core/Src/freertos.c **** 
  72:Core/Src/freertos.c **** 
  73:Core/Src/freertos.c **** //--ModbusSS
  74:Core/Src/freertos.c **** ModbusSS_table_t modbusTableHolding1 = {
  75:Core/Src/freertos.c ****     .buf = (uint8_t *)modbusHoldingBuf,
  76:Core/Src/freertos.c ****     .quantity = MODBUS_TABLE_HOLDING_QUANT,
  77:Core/Src/freertos.c ****     .regNo = MBP_reg_1,
  78:Core/Src/freertos.c ****     .type = ModbusSS_Holding};
  79:Core/Src/freertos.c **** 
  80:Core/Src/freertos.c **** ModbusSS_table_t *modbusTables[1] = {&modbusTableHolding1};
  81:Core/Src/freertos.c **** 
  82:Core/Src/freertos.c **** void modbusHoldingReq(ModbusSS_table_t *table, uint16_t reg, uint16_t quantity);
  83:Core/Src/freertos.c **** 
  84:Core/Src/freertos.c **** ModbusSS_t modbusSS_tcp = {
  85:Core/Src/freertos.c ****     .bufRxTx = modbusBufRxTxTCP,
  86:Core/Src/freertos.c ****     .cbHoldingRequest = modbusHoldingReq,
  87:Core/Src/freertos.c ****     .rtuTcp = MODBUS_SS_TCP,
  88:Core/Src/freertos.c ****     .slaveId = 1,
  89:Core/Src/freertos.c ****     .tables = modbusTables,
ARM GAS  C:\Users\VIDCOM~1\AppData\Local\Temp\cc4j4Ttx.s 			page 3


  90:Core/Src/freertos.c ****     .tablesCount = 1};
  91:Core/Src/freertos.c **** 
  92:Core/Src/freertos.c **** /*---------------------MODBUS END------------------------*/
  93:Core/Src/freertos.c **** 
  94:Core/Src/freertos.c **** /* USER CODE END PD */
  95:Core/Src/freertos.c **** 
  96:Core/Src/freertos.c **** /* Private macro -------------------------------------------------------------*/
  97:Core/Src/freertos.c **** /* USER CODE BEGIN PM */
  98:Core/Src/freertos.c **** 
  99:Core/Src/freertos.c **** /* USER CODE END PM */
 100:Core/Src/freertos.c **** 
 101:Core/Src/freertos.c **** /* Private variables ---------------------------------------------------------*/
 102:Core/Src/freertos.c **** /* USER CODE BEGIN Variables */
 103:Core/Src/freertos.c **** osThreadId_t taskNetHandle;
 104:Core/Src/freertos.c **** const osThreadAttr_t taskNet_attributes = {
 105:Core/Src/freertos.c ****     .name = "taskNet",
 106:Core/Src/freertos.c ****     .stack_size = 256 * 4,
 107:Core/Src/freertos.c ****     .priority = (osPriority_t)osPriorityNormal,
 108:Core/Src/freertos.c **** };
 109:Core/Src/freertos.c **** 
 110:Core/Src/freertos.c **** osThreadId_t taskMdbHandle;
 111:Core/Src/freertos.c **** const osThreadAttr_t taskMdb_attributes = {
 112:Core/Src/freertos.c ****     .name = "taskMdb",
 113:Core/Src/freertos.c ****     .stack_size = 256 * 4,
 114:Core/Src/freertos.c ****     .priority = (osPriority_t)osPriorityNormal,
 115:Core/Src/freertos.c **** };
 116:Core/Src/freertos.c **** 
 117:Core/Src/freertos.c **** /* USER CODE END Variables */
 118:Core/Src/freertos.c **** /* Definitions for defaultTask */
 119:Core/Src/freertos.c **** osThreadId_t defaultTaskHandle;
 120:Core/Src/freertos.c **** const osThreadAttr_t defaultTask_attributes = {
 121:Core/Src/freertos.c ****     .name = "defaultTask",
 122:Core/Src/freertos.c ****     .stack_size = 256 * 4,
 123:Core/Src/freertos.c ****     .priority = (osPriority_t)osPriorityNormal,
 124:Core/Src/freertos.c **** };
 125:Core/Src/freertos.c **** 
 126:Core/Src/freertos.c **** /* Private function prototypes -----------------------------------------------*/
 127:Core/Src/freertos.c **** /* USER CODE BEGIN FunctionPrototypes */
 128:Core/Src/freertos.c **** void taskNetEntry(void *argument);
 129:Core/Src/freertos.c **** void taskMdbEntry(void *argument);
 130:Core/Src/freertos.c **** 
 131:Core/Src/freertos.c **** __STATIC_INLINE uint16_t _Crc16_mdb(uint8_t *pcBlock, uint16_t len);
 132:Core/Src/freertos.c **** 
 133:Core/Src/freertos.c **** /* USER CODE END FunctionPrototypes */
 134:Core/Src/freertos.c **** 
 135:Core/Src/freertos.c **** void StartDefaultTask(void *argument);
 136:Core/Src/freertos.c **** 
 137:Core/Src/freertos.c **** void MX_FREERTOS_Init(void); /* (MISRA C 2004 rule 8.1) */
 138:Core/Src/freertos.c **** 
 139:Core/Src/freertos.c **** /**
 140:Core/Src/freertos.c ****  * @brief  FreeRTOS initialization
 141:Core/Src/freertos.c ****  * @param  None
 142:Core/Src/freertos.c ****  * @retval None
 143:Core/Src/freertos.c ****  */
 144:Core/Src/freertos.c **** void MX_FREERTOS_Init(void)
 145:Core/Src/freertos.c **** {
 146:Core/Src/freertos.c ****   /* USER CODE BEGIN Init */
ARM GAS  C:\Users\VIDCOM~1\AppData\Local\Temp\cc4j4Ttx.s 			page 4


 147:Core/Src/freertos.c **** 
 148:Core/Src/freertos.c ****   /* USER CODE END Init */
 149:Core/Src/freertos.c **** 
 150:Core/Src/freertos.c ****   /* USER CODE BEGIN RTOS_MUTEX */
 151:Core/Src/freertos.c ****   /* add mutexes, ... */
 152:Core/Src/freertos.c ****   /* USER CODE END RTOS_MUTEX */
 153:Core/Src/freertos.c **** 
 154:Core/Src/freertos.c ****   /* USER CODE BEGIN RTOS_SEMAPHORES */
 155:Core/Src/freertos.c ****   /* add semaphores, ... */
 156:Core/Src/freertos.c ****   /* USER CODE END RTOS_SEMAPHORES */
 157:Core/Src/freertos.c **** 
 158:Core/Src/freertos.c ****   /* USER CODE BEGIN RTOS_TIMERS */
 159:Core/Src/freertos.c ****   /* start timers, add new ones, ... */
 160:Core/Src/freertos.c ****   /* USER CODE END RTOS_TIMERS */
 161:Core/Src/freertos.c **** 
 162:Core/Src/freertos.c ****   /* USER CODE BEGIN RTOS_QUEUES */
 163:Core/Src/freertos.c ****   /* add queues, ... */
 164:Core/Src/freertos.c ****   /* USER CODE END RTOS_QUEUES */
 165:Core/Src/freertos.c **** 
 166:Core/Src/freertos.c ****   /* Create the thread(s) */
 167:Core/Src/freertos.c ****   /* creation of defaultTask */
 168:Core/Src/freertos.c ****   defaultTaskHandle = osThreadNew(StartDefaultTask, NULL, &defaultTask_attributes);
 169:Core/Src/freertos.c **** 
 170:Core/Src/freertos.c ****   /* USER CODE BEGIN RTOS_THREADS */
 171:Core/Src/freertos.c ****   taskNetHandle = osThreadNew(taskNetEntry, NULL, &taskNet_attributes);
 172:Core/Src/freertos.c ****   taskMdbHandle = osThreadNew(taskMdbEntry, NULL, &taskMdb_attributes);
 173:Core/Src/freertos.c **** 
 174:Core/Src/freertos.c ****   asm("NOP");
 175:Core/Src/freertos.c ****   /* USER CODE END RTOS_THREADS */
 176:Core/Src/freertos.c **** 
 177:Core/Src/freertos.c ****   /* USER CODE BEGIN RTOS_EVENTS */
 178:Core/Src/freertos.c ****   /* add events, ... */
 179:Core/Src/freertos.c ****   /* USER CODE END RTOS_EVENTS */
 180:Core/Src/freertos.c **** }
 181:Core/Src/freertos.c **** 
 182:Core/Src/freertos.c **** /* USER CODE BEGIN Header_StartDefaultTask */
 183:Core/Src/freertos.c **** /**
 184:Core/Src/freertos.c ****  * @brief  Function implementing the defaultTask thread.
 185:Core/Src/freertos.c ****  * @param  argument: Not used
 186:Core/Src/freertos.c ****  * @retval None
 187:Core/Src/freertos.c ****  */
 188:Core/Src/freertos.c **** /* USER CODE END Header_StartDefaultTask */
 189:Core/Src/freertos.c **** void StartDefaultTask(void *argument)
 190:Core/Src/freertos.c **** {
 191:Core/Src/freertos.c ****   /* USER CODE BEGIN StartDefaultTask */
 192:Core/Src/freertos.c **** 
 193:Core/Src/freertos.c ****   asm("NOP");
 194:Core/Src/freertos.c **** 
 195:Core/Src/freertos.c ****   // uint16_t state_DI = 0;
 196:Core/Src/freertos.c ****   // uint16_t state_AI[2];
 197:Core/Src/freertos.c **** 
 198:Core/Src/freertos.c ****   // HAL_UART_Receive_IT(&huart1, modbusBufRxTxRtu485,10);
 199:Core/Src/freertos.c **** 
 200:Core/Src/freertos.c ****   /* Infinite loop */
 201:Core/Src/freertos.c ****   for (;;)
 202:Core/Src/freertos.c ****   {
 203:Core/Src/freertos.c ****     // for (int i = BSP_DI1; i < BSP_DI_COUNT; i++)
ARM GAS  C:\Users\VIDCOM~1\AppData\Local\Temp\cc4j4Ttx.s 			page 5


 204:Core/Src/freertos.c ****     // {
 205:Core/Src/freertos.c ****     //     bsp_di_get(i);
 206:Core/Src/freertos.c ****     // }
 207:Core/Src/freertos.c ****     // asm("NOP");
 208:Core/Src/freertos.c ****     // bsp_ai_read();
 209:Core/Src/freertos.c **** 
 210:Core/Src/freertos.c ****     // LL_GPIO_TogglePin(O_D_Led_GPIO_Port, O_D_Led_Pin);
 211:Core/Src/freertos.c ****     osDelay(1);
 212:Core/Src/freertos.c ****   }
 213:Core/Src/freertos.c ****   /* USER CODE END StartDefaultTask */
 214:Core/Src/freertos.c **** }
 215:Core/Src/freertos.c **** 
 216:Core/Src/freertos.c **** /* Private application code --------------------------------------------------*/
 217:Core/Src/freertos.c **** /* USER CODE BEGIN Application */
 218:Core/Src/freertos.c **** 
 219:Core/Src/freertos.c **** //---------------------------------- NETWORK
 220:Core/Src/freertos.c **** void taskNetEntry(void *argument)
 221:Core/Src/freertos.c **** {
 222:Core/Src/freertos.c ****   /* USER CODE BEGIN taskLedEntry */
 223:Core/Src/freertos.c **** 
 224:Core/Src/freertos.c ****   if (Eth_f_Init() != SET)
 225:Core/Src/freertos.c ****   {
 226:Core/Src/freertos.c ****     Error_Handler();
 227:Core/Src/freertos.c ****   };
 228:Core/Src/freertos.c **** 
 229:Core/Src/freertos.c ****   /*---------------------MODBUS------------------------*/
 230:Core/Src/freertos.c ****   for (int i = 0; i < MODBUS_TCP_SERVER_SOC_CNT; i++)
 231:Core/Src/freertos.c ****   {
 232:Core/Src/freertos.c ****     tcpModbusSocket[i].hwSocNum = i;
 233:Core/Src/freertos.c ****     tcpModbusSocket[i].port = 502;
 234:Core/Src/freertos.c ****     tcpModbusSocket[i].bufRx = modbusBufRxTxTCP;
 235:Core/Src/freertos.c ****     tcpModbusSocket[i].bufTx = modbusBufRxTxTCP;
 236:Core/Src/freertos.c ****     tcpModbusSocket[i].bufRxLen = MODBUS_SS_BUF_CNT;
 237:Core/Src/freertos.c ****     tcpModbusSocket[i].bufTxLen = MODBUS_SS_BUF_CNT;
 238:Core/Src/freertos.c ****     tcpModbusSocket[i].cbfunc_pendingData = cbckModbusTcpServer;
 239:Core/Src/freertos.c ****     // tcpModbusSocket[i].echoMode = SET;
 240:Core/Src/freertos.c ****   }
 241:Core/Src/freertos.c ****   /*---------------------MODBUS END------------------------*/
 242:Core/Src/freertos.c **** 
 243:Core/Src/freertos.c ****   /* Infinite loop */
 244:Core/Src/freertos.c ****   for (;;)
 245:Core/Src/freertos.c ****   {
 246:Core/Src/freertos.c **** 
 247:Core/Src/freertos.c ****     for (int i = 0; i < MODBUS_TCP_SERVER_SOC_CNT; i++)
 248:Core/Src/freertos.c ****     {
 249:Core/Src/freertos.c ****       if (Eth_f_runTcpSrv(&tcpModbusSocket[i]) != SET)
 250:Core/Src/freertos.c ****       {
 251:Core/Src/freertos.c ****         Error_Handler();
 252:Core/Src/freertos.c ****       }
 253:Core/Src/freertos.c ****     }
 254:Core/Src/freertos.c **** 
 255:Core/Src/freertos.c ****     // BSP_LED2_G_TOGGLE();
 256:Core/Src/freertos.c **** 
 257:Core/Src/freertos.c ****     osDelay(1);
 258:Core/Src/freertos.c ****   }
 259:Core/Src/freertos.c ****   /* USER CODE END taskLedEntry */
 260:Core/Src/freertos.c **** }
ARM GAS  C:\Users\VIDCOM~1\AppData\Local\Temp\cc4j4Ttx.s 			page 6


 261:Core/Src/freertos.c **** 
 262:Core/Src/freertos.c **** int32_t cbckModbusTcpServer(Eth_t_SocTcp *socket)
 263:Core/Src/freertos.c **** {
 264:Core/Src/freertos.c ****   socket->exchangeState = state_res_inProc;
 265:Core/Src/freertos.c ****   socket->txFrameSize = ModbusSS_ParseRxData(&modbusSS_tcp);
 266:Core/Src/freertos.c ****   return 0;
 267:Core/Src/freertos.c **** }
 268:Core/Src/freertos.c **** 
 269:Core/Src/freertos.c **** void modbusHoldingReq(ModbusSS_table_t *table, uint16_t reg, uint16_t quantity)
 270:Core/Src/freertos.c **** {
 271:Core/Src/freertos.c **** 
 272:Core/Src/freertos.c ****   BSP_LED1_TOGGLE();
 273:Core/Src/freertos.c ****   if (table == &modbusTableHolding1)
 274:Core/Src/freertos.c ****   {
 275:Core/Src/freertos.c ****     for (int r = reg; r < reg + quantity; r++)
 276:Core/Src/freertos.c ****     {
 277:Core/Src/freertos.c ****       asm("NOP");
 278:Core/Src/freertos.c ****       switch (r)
 279:Core/Src/freertos.c ****       {
 280:Core/Src/freertos.c ****       case MBP_reg_1:
 281:Core/Src/freertos.c ****         ModbusSS_SetWord(table, r, mdb_reg_buf[0]);
 282:Core/Src/freertos.c ****         asm("NOP");
 283:Core/Src/freertos.c ****         break;
 284:Core/Src/freertos.c ****       case MBP_reg_2:
 285:Core/Src/freertos.c ****         ModbusSS_SetWord(table, r, mdb_reg_buf[1]);
 286:Core/Src/freertos.c ****         asm("NOP");
 287:Core/Src/freertos.c ****         break;
 288:Core/Src/freertos.c ****       case MBP_reg_3:
 289:Core/Src/freertos.c ****         ModbusSS_SetWord(table, r, mdb_reg_buf[2]);
 290:Core/Src/freertos.c ****         asm("NOP");
 291:Core/Src/freertos.c ****         break;
 292:Core/Src/freertos.c ****       case MBP_reg_4:
 293:Core/Src/freertos.c ****         ModbusSS_SetWord(table, r, mdb_reg_buf[3]);
 294:Core/Src/freertos.c ****         asm("NOP");
 295:Core/Src/freertos.c ****         break;
 296:Core/Src/freertos.c ****       case MBP_reg_5:
 297:Core/Src/freertos.c ****         ModbusSS_SetWord(table, r, mdb_reg_buf[4]);
 298:Core/Src/freertos.c ****         asm("NOP");
 299:Core/Src/freertos.c ****         break;
 300:Core/Src/freertos.c ****       case MBP_reg_6:
 301:Core/Src/freertos.c ****         ModbusSS_SetWord(table, r, mdb_err_cnt);
 302:Core/Src/freertos.c ****         asm("NOP");
 303:Core/Src/freertos.c ****         break;
 304:Core/Src/freertos.c ****       case MBP_reg_7:
 305:Core/Src/freertos.c ****         ModbusSS_SetWord(table, r, mdb_err_code);
 306:Core/Src/freertos.c ****         asm("NOP");
 307:Core/Src/freertos.c ****         break;
 308:Core/Src/freertos.c ****       default:
 309:Core/Src/freertos.c ****         break;
 310:Core/Src/freertos.c ****       }
 311:Core/Src/freertos.c ****     }
 312:Core/Src/freertos.c ****   }
 313:Core/Src/freertos.c **** }
 314:Core/Src/freertos.c **** //---------------------------------- NETWORK END
 315:Core/Src/freertos.c **** 
 316:Core/Src/freertos.c **** //---------------------------------- MODBUS RTU
 317:Core/Src/freertos.c **** 
ARM GAS  C:\Users\VIDCOM~1\AppData\Local\Temp\cc4j4Ttx.s 			page 7


 318:Core/Src/freertos.c **** 
 319:Core/Src/freertos.c **** #define MDB_RTU_TX_SCAN_RATE (250)
 320:Core/Src/freertos.c **** #define MDB_RTU_RX_RESPONS_TIMEOUT (2000)
 321:Core/Src/freertos.c **** 
 322:Core/Src/freertos.c **** enum userFlag
 323:Core/Src/freertos.c **** {
 324:Core/Src/freertos.c ****   flagReset = 0,
 325:Core/Src/freertos.c ****   flagSet = 1
 326:Core/Src/freertos.c **** };
 327:Core/Src/freertos.c **** 
 328:Core/Src/freertos.c **** enum Mdb_RTU_TX_buf_index
 329:Core/Src/freertos.c **** {
 330:Core/Src/freertos.c ****   adress_TX   = 0,
 331:Core/Src/freertos.c ****   function_TX = 1,
 332:Core/Src/freertos.c ****   adress_first_reg_HB_TX = 2,
 333:Core/Src/freertos.c ****   adress_first_reg_LB_TX = 3,
 334:Core/Src/freertos.c ****   count_reg_HB_TX = 4,
 335:Core/Src/freertos.c ****   count_reg_LB_TX = 5,
 336:Core/Src/freertos.c ****   CRC_LB_TX = 6,
 337:Core/Src/freertos.c ****   CRC_HB_TX = 7,
 338:Core/Src/freertos.c **** };
 339:Core/Src/freertos.c **** 
 340:Core/Src/freertos.c **** enum Mdb_RTU_err_name
 341:Core/Src/freertos.c **** {
 342:Core/Src/freertos.c ****   noErr   = 0,
 343:Core/Src/freertos.c ****   crc_no_corret = 3,
 344:Core/Src/freertos.c ****   timeout = 11
 345:Core/Src/freertos.c **** };
 346:Core/Src/freertos.c **** 
 347:Core/Src/freertos.c **** void taskMdbEntry(void *argument)
 348:Core/Src/freertos.c **** {
 349:Core/Src/freertos.c ****   /* USER CODE BEGIN taskMdbEntry */
 350:Core/Src/freertos.c **** 
 351:Core/Src/freertos.c ****   /* Infinite loop */
 352:Core/Src/freertos.c **** 
 353:Core/Src/freertos.c ****   for (;;)
 354:Core/Src/freertos.c ****   {
 355:Core/Src/freertos.c ****     static uint16_t mdb_req_time = 0;
 356:Core/Src/freertos.c ****     static uint16_t mdb_respons_timeout = 0;
 357:Core/Src/freertos.c ****     static uint16_t crc = 0;
 358:Core/Src/freertos.c ****     osDelay(1);
 359:Core/Src/freertos.c **** 
 360:Core/Src/freertos.c ****     if (mdb_wait_rx_flag == flagSet)
 361:Core/Src/freertos.c ****     {
 362:Core/Src/freertos.c ****       if (mdb_respons_timeout++ > MDB_RTU_RX_RESPONS_TIMEOUT)
 363:Core/Src/freertos.c ****       {
 364:Core/Src/freertos.c ****         HAL_UART_AbortReceive_IT(&huart1);
 365:Core/Src/freertos.c ****         mdb_wait_rx_flag = flagReset;
 366:Core/Src/freertos.c ****         mdb_respons_timeout = 0;
 367:Core/Src/freertos.c ****         mdb_err_cnt++;
 368:Core/Src/freertos.c ****         mdb_err_code = timeout;
 369:Core/Src/freertos.c ****       }
 370:Core/Src/freertos.c ****     }
 371:Core/Src/freertos.c ****     else if (mdb_req_time++ > MDB_RTU_TX_SCAN_RATE)
 372:Core/Src/freertos.c ****     {
 373:Core/Src/freertos.c **** 
 374:Core/Src/freertos.c ****       modbusBufTxRtu485[adress_TX] = MDB_RTU_TX_SLACE_ID;
ARM GAS  C:\Users\VIDCOM~1\AppData\Local\Temp\cc4j4Ttx.s 			page 8


 375:Core/Src/freertos.c ****       modbusBufTxRtu485[function_TX] = MDB_RTU_TX_FUNCTION;
 376:Core/Src/freertos.c ****       modbusBufTxRtu485[adress_first_reg_HB_TX] = 0x00;
 377:Core/Src/freertos.c ****       modbusBufTxRtu485[adress_first_reg_LB_TX] = MDB_RTU_TX_REG_ADRES;
 378:Core/Src/freertos.c ****       modbusBufTxRtu485[count_reg_HB_TX] = 0x00;
 379:Core/Src/freertos.c ****       modbusBufTxRtu485[count_reg_LB_TX] = MDB_RTU_TX_REG_QANT;
 380:Core/Src/freertos.c ****       crc = _Crc16_mdb(modbusBufTxRtu485, 6);
 381:Core/Src/freertos.c ****       modbusBufTxRtu485[CRC_LB_TX] = (uint8_t)crc;
 382:Core/Src/freertos.c ****       modbusBufTxRtu485[CRC_HB_TX] = (uint8_t)(crc >> 8);
 383:Core/Src/freertos.c **** 
 384:Core/Src/freertos.c ****       mdb_wait_rx_flag = flagSet;
 385:Core/Src/freertos.c ****       mdb_respons_timeout = 0;
 386:Core/Src/freertos.c ****       if (HAL_UART_Transmit(&huart1, modbusBufTxRtu485, MDB_RTU_TX_COUNT_BYTE, 2) == HAL_OK)
 387:Core/Src/freertos.c ****       {
 388:Core/Src/freertos.c ****         HAL_UART_Receive_IT(&huart1, modbusBufRxRtu485, MDB_RTU_RX_COUNT_BYTE);
 389:Core/Src/freertos.c ****       }
 390:Core/Src/freertos.c ****       mdb_req_time = 0;
 391:Core/Src/freertos.c ****     }
 392:Core/Src/freertos.c ****   }
 393:Core/Src/freertos.c ****   /* USER CODE END taskMdbEntry */
 394:Core/Src/freertos.c **** }
 395:Core/Src/freertos.c **** 
 396:Core/Src/freertos.c **** enum Mdb_RTU_RX_buf_index
 397:Core/Src/freertos.c **** {
 398:Core/Src/freertos.c ****   adress_RX   = 0,
 399:Core/Src/freertos.c ****   function_RX = 1,
 400:Core/Src/freertos.c ****   count_byte_RX = 2,
 401:Core/Src/freertos.c **** 
 402:Core/Src/freertos.c **** /*
 403:Core/Src/freertos.c **** reg data
 404:Core/Src/freertos.c **** */
 405:Core/Src/freertos.c **** 
 406:Core/Src/freertos.c ****   CRC_LB_RX = count_byte_RX+1+MDB_RTU_TX_REG_QANT*2,
 407:Core/Src/freertos.c ****   CRC_HB_RX = CRC_LB_RX+1,
 408:Core/Src/freertos.c **** };
 409:Core/Src/freertos.c **** 
 410:Core/Src/freertos.c **** 
 411:Core/Src/freertos.c **** void HAL_UART_RxCpltCallback(UART_HandleTypeDef *huart)
 412:Core/Src/freertos.c **** {
 413:Core/Src/freertos.c ****   uint8_t mdb_err = noErr;
 414:Core/Src/freertos.c ****   uint16_t calculated_CRC = 0;
 415:Core/Src/freertos.c ****   uint16_t resive_CRC = 0;
 416:Core/Src/freertos.c **** 
 417:Core/Src/freertos.c ****   calculated_CRC = _Crc16_mdb(modbusBufRxRtu485, (MDB_RTU_RX_COUNT_BYTE-2));
 418:Core/Src/freertos.c **** 
 419:Core/Src/freertos.c ****   resive_CRC |= (uint16_t)(modbusBufRxRtu485[CRC_LB_RX]);
 420:Core/Src/freertos.c ****   resive_CRC |= (uint16_t)(modbusBufRxRtu485[CRC_HB_RX] << 8);
 421:Core/Src/freertos.c **** 
 422:Core/Src/freertos.c ****   if (calculated_CRC != resive_CRC)
 423:Core/Src/freertos.c ****   {
 424:Core/Src/freertos.c ****     mdb_err = crc_no_corret;
 425:Core/Src/freertos.c ****   }
 426:Core/Src/freertos.c **** 
 427:Core/Src/freertos.c **** 
 428:Core/Src/freertos.c ****   if (mdb_err_code == 0)
 429:Core/Src/freertos.c ****   {
 430:Core/Src/freertos.c ****     for (uint8_t i = 0; i < MDB_RTU_TX_REG_QANT; i++)
 431:Core/Src/freertos.c ****     {
ARM GAS  C:\Users\VIDCOM~1\AppData\Local\Temp\cc4j4Ttx.s 			page 9


 432:Core/Src/freertos.c ****       mdb_reg_buf[i] = 0;
 433:Core/Src/freertos.c ****     }
 434:Core/Src/freertos.c **** 
 435:Core/Src/freertos.c ****     for (uint8_t ind = (count_byte_RX+1), i = 0; i < MDB_RTU_TX_REG_QANT ; ind+=2, i++)
 436:Core/Src/freertos.c ****     {
 437:Core/Src/freertos.c ****       mdb_reg_buf[i] |= (uint16_t)(modbusBufRxRtu485[ind] << 8);
 438:Core/Src/freertos.c ****       mdb_reg_buf[i] |= (uint16_t)(modbusBufRxRtu485[ind+1]);
 439:Core/Src/freertos.c ****     }
 440:Core/Src/freertos.c ****   }
 441:Core/Src/freertos.c **** 
 442:Core/Src/freertos.c ****   mdb_wait_rx_flag = flagReset;
 443:Core/Src/freertos.c ****   BSP_LED3_TOGGLE();
 444:Core/Src/freertos.c ****   mdb_err_code = mdb_err;
 445:Core/Src/freertos.c **** }
 446:Core/Src/freertos.c **** 
 447:Core/Src/freertos.c **** __STATIC_INLINE uint16_t _Crc16_mdb(uint8_t *pcBlock, uint16_t len)
 448:Core/Src/freertos.c **** {
  27              		.loc 1 448 1 view -0
  28              		.cfi_startproc
  29              		@ args = 0, pretend = 0, frame = 0
  30              		@ frame_needed = 0, uses_anonymous_args = 0
  31              		@ link register save eliminated.
  32              		.loc 1 448 1 is_stmt 0 view .LVU1
  33 0000 8446     		mov	ip, r0
 449:Core/Src/freertos.c ****   uint16_t w = 0;
  34              		.loc 1 449 3 is_stmt 1 view .LVU2
  35              	.LVL1:
 450:Core/Src/freertos.c ****   uint8_t shift_cnt;
  36              		.loc 1 450 3 view .LVU3
 451:Core/Src/freertos.c **** 
 452:Core/Src/freertos.c ****   w = 0xffffU;
  37              		.loc 1 452 3 view .LVU4
 453:Core/Src/freertos.c ****   for (; len > 0; len--)
  38              		.loc 1 453 3 view .LVU5
 452:Core/Src/freertos.c ****   for (; len > 0; len--)
  39              		.loc 1 452 5 is_stmt 0 view .LVU6
  40 0002 4FF6FF70 		movw	r0, #65535
  41              	.LVL2:
  42              		.loc 1 453 3 view .LVU7
  43 0006 0EE0     		b	.L2
  44              	.LVL3:
  45              	.L4:
 454:Core/Src/freertos.c ****   {
 455:Core/Src/freertos.c ****     w = (uint16_t)((w / 256U) * 256U + ((w % 256U) ^ (*pcBlock++)));
 456:Core/Src/freertos.c ****     for (shift_cnt = 0; shift_cnt < 8; shift_cnt++)
 457:Core/Src/freertos.c ****     {
 458:Core/Src/freertos.c ****       if ((w & 0x1) == 1)
 459:Core/Src/freertos.c ****         w = (uint16_t)((w >> 1) ^ 0xa001U);
 460:Core/Src/freertos.c ****       else
 461:Core/Src/freertos.c ****         w >>= 1;
  46              		.loc 1 461 9 is_stmt 1 view .LVU8
  47              		.loc 1 461 11 is_stmt 0 view .LVU9
  48 0008 4008     		lsrs	r0, r0, #1
  49              	.LVL4:
  50              	.L5:
 456:Core/Src/freertos.c ****     {
  51              		.loc 1 456 49 is_stmt 1 discriminator 2 view .LVU10
ARM GAS  C:\Users\VIDCOM~1\AppData\Local\Temp\cc4j4Ttx.s 			page 10


  52 000a 0133     		adds	r3, r3, #1
  53              	.LVL5:
 456:Core/Src/freertos.c ****     {
  54              		.loc 1 456 49 is_stmt 0 discriminator 2 view .LVU11
  55 000c DBB2     		uxtb	r3, r3
  56              	.LVL6:
  57              	.L3:
 456:Core/Src/freertos.c ****     {
  58              		.loc 1 456 35 is_stmt 1 discriminator 1 view .LVU12
  59 000e 072B     		cmp	r3, #7
  60 0010 07D8     		bhi	.L8
 458:Core/Src/freertos.c ****         w = (uint16_t)((w >> 1) ^ 0xa001U);
  61              		.loc 1 458 7 view .LVU13
 458:Core/Src/freertos.c ****         w = (uint16_t)((w >> 1) ^ 0xa001U);
  62              		.loc 1 458 10 is_stmt 0 view .LVU14
  63 0012 10F0010F 		tst	r0, #1
  64 0016 F7D0     		beq	.L4
 459:Core/Src/freertos.c ****       else
  65              		.loc 1 459 9 is_stmt 1 view .LVU15
 459:Core/Src/freertos.c ****       else
  66              		.loc 1 459 11 is_stmt 0 view .LVU16
  67 0018 4AF20102 		movw	r2, #40961
  68 001c 82EA5000 		eor	r0, r2, r0, lsr #1
  69              	.LVL7:
 459:Core/Src/freertos.c ****       else
  70              		.loc 1 459 11 view .LVU17
  71 0020 F3E7     		b	.L5
  72              	.L8:
 453:Core/Src/freertos.c ****   {
  73              		.loc 1 453 22 is_stmt 1 view .LVU18
  74 0022 0139     		subs	r1, r1, #1
  75              	.LVL8:
 453:Core/Src/freertos.c ****   {
  76              		.loc 1 453 22 is_stmt 0 view .LVU19
  77 0024 89B2     		uxth	r1, r1
  78              	.LVL9:
  79              	.L2:
 453:Core/Src/freertos.c ****   {
  80              		.loc 1 453 14 is_stmt 1 discriminator 1 view .LVU20
  81 0026 49B1     		cbz	r1, .L9
 455:Core/Src/freertos.c ****     for (shift_cnt = 0; shift_cnt < 8; shift_cnt++)
  82              		.loc 1 455 5 view .LVU21
 455:Core/Src/freertos.c ****     for (shift_cnt = 0; shift_cnt < 8; shift_cnt++)
  83              		.loc 1 455 31 is_stmt 0 view .LVU22
  84 0028 00F47F43 		and	r3, r0, #65280
  85              	.LVL10:
 455:Core/Src/freertos.c ****     for (shift_cnt = 0; shift_cnt < 8; shift_cnt++)
  86              		.loc 1 455 55 view .LVU23
  87 002c 1CF8012B 		ldrb	r2, [ip], #1	@ zero_extendqisi2
  88              	.LVL11:
 455:Core/Src/freertos.c ****     for (shift_cnt = 0; shift_cnt < 8; shift_cnt++)
  89              		.loc 1 455 52 view .LVU24
  90 0030 C0B2     		uxtb	r0, r0
  91              	.LVL12:
 455:Core/Src/freertos.c ****     for (shift_cnt = 0; shift_cnt < 8; shift_cnt++)
  92              		.loc 1 455 52 view .LVU25
  93 0032 4240     		eors	r2, r2, r0
ARM GAS  C:\Users\VIDCOM~1\AppData\Local\Temp\cc4j4Ttx.s 			page 11


 455:Core/Src/freertos.c ****     for (shift_cnt = 0; shift_cnt < 8; shift_cnt++)
  94              		.loc 1 455 7 view .LVU26
  95 0034 1344     		add	r3, r3, r2
  96 0036 98B2     		uxth	r0, r3
  97              	.LVL13:
 456:Core/Src/freertos.c ****     {
  98              		.loc 1 456 5 is_stmt 1 view .LVU27
 456:Core/Src/freertos.c ****     {
  99              		.loc 1 456 20 is_stmt 0 view .LVU28
 100 0038 0023     		movs	r3, #0
 456:Core/Src/freertos.c ****     {
 101              		.loc 1 456 5 view .LVU29
 102 003a E8E7     		b	.L3
 103              	.LVL14:
 104              	.L9:
 462:Core/Src/freertos.c ****     }
 463:Core/Src/freertos.c ****   }
 464:Core/Src/freertos.c ****   return w;
 105              		.loc 1 464 3 is_stmt 1 view .LVU30
 465:Core/Src/freertos.c **** }
 106              		.loc 1 465 1 is_stmt 0 view .LVU31
 107 003c 7047     		bx	lr
 108              		.cfi_endproc
 109              	.LFE585:
 111              		.section	.text.StartDefaultTask,"ax",%progbits
 112              		.align	1
 113              		.global	StartDefaultTask
 114              		.syntax unified
 115              		.thumb
 116              		.thumb_func
 118              	StartDefaultTask:
 119              	.LVL15:
 120              	.LFB579:
 190:Core/Src/freertos.c ****   /* USER CODE BEGIN StartDefaultTask */
 121              		.loc 1 190 1 is_stmt 1 view -0
 122              		.cfi_startproc
 123              		@ Volatile: function does not return.
 124              		@ args = 0, pretend = 0, frame = 0
 125              		@ frame_needed = 0, uses_anonymous_args = 0
 190:Core/Src/freertos.c ****   /* USER CODE BEGIN StartDefaultTask */
 126              		.loc 1 190 1 is_stmt 0 view .LVU33
 127 0000 08B5     		push	{r3, lr}
 128              	.LCFI0:
 129              		.cfi_def_cfa_offset 8
 130              		.cfi_offset 3, -8
 131              		.cfi_offset 14, -4
 193:Core/Src/freertos.c **** 
 132              		.loc 1 193 3 is_stmt 1 view .LVU34
 133              		.syntax unified
 134              	@ 193 "Core/Src/freertos.c" 1
 135 0002 00BF     		NOP
 136              	@ 0 "" 2
 137              	.LVL16:
 138              		.thumb
 139              		.syntax unified
 140              	.L11:
 201:Core/Src/freertos.c ****   {
ARM GAS  C:\Users\VIDCOM~1\AppData\Local\Temp\cc4j4Ttx.s 			page 12


 141              		.loc 1 201 3 discriminator 1 view .LVU35
 211:Core/Src/freertos.c ****   }
 142              		.loc 1 211 5 discriminator 1 view .LVU36
 143 0004 0120     		movs	r0, #1
 144 0006 FFF7FEFF 		bl	osDelay
 145              	.LVL17:
 201:Core/Src/freertos.c ****   {
 146              		.loc 1 201 3 discriminator 1 view .LVU37
 147 000a FBE7     		b	.L11
 148              		.cfi_endproc
 149              	.LFE579:
 151              		.section	.text.taskNetEntry,"ax",%progbits
 152              		.align	1
 153              		.global	taskNetEntry
 154              		.syntax unified
 155              		.thumb
 156              		.thumb_func
 158              	taskNetEntry:
 159              	.LVL18:
 160              	.LFB580:
 221:Core/Src/freertos.c ****   /* USER CODE BEGIN taskLedEntry */
 161              		.loc 1 221 1 view -0
 162              		.cfi_startproc
 163              		@ args = 0, pretend = 0, frame = 0
 164              		@ frame_needed = 0, uses_anonymous_args = 0
 221:Core/Src/freertos.c ****   /* USER CODE BEGIN taskLedEntry */
 165              		.loc 1 221 1 is_stmt 0 view .LVU39
 166 0000 10B5     		push	{r4, lr}
 167              	.LCFI1:
 168              		.cfi_def_cfa_offset 8
 169              		.cfi_offset 4, -8
 170              		.cfi_offset 14, -4
 224:Core/Src/freertos.c ****   {
 171              		.loc 1 224 3 is_stmt 1 view .LVU40
 224:Core/Src/freertos.c ****   {
 172              		.loc 1 224 7 is_stmt 0 view .LVU41
 173 0002 FFF7FEFF 		bl	Eth_f_Init
 174              	.LVL19:
 224:Core/Src/freertos.c ****   {
 175              		.loc 1 224 6 view .LVU42
 176 0006 0128     		cmp	r0, #1
 177 0008 01D1     		bne	.L22
 178              	.L14:
 221:Core/Src/freertos.c ****   /* USER CODE BEGIN taskLedEntry */
 179              		.loc 1 221 1 discriminator 1 view .LVU43
 180 000a 0022     		movs	r2, #0
 181 000c 15E0     		b	.L15
 182              	.L22:
 226:Core/Src/freertos.c ****   };
 183              		.loc 1 226 5 is_stmt 1 view .LVU44
 184 000e FFF7FEFF 		bl	Error_Handler
 185              	.LVL20:
 186 0012 FAE7     		b	.L14
 187              	.LVL21:
 188              	.L16:
 189              	.LBB9:
 232:Core/Src/freertos.c ****     tcpModbusSocket[i].port = 502;
ARM GAS  C:\Users\VIDCOM~1\AppData\Local\Temp\cc4j4Ttx.s 			page 13


 190              		.loc 1 232 5 discriminator 3 view .LVU45
 232:Core/Src/freertos.c ****     tcpModbusSocket[i].port = 502;
 191              		.loc 1 232 33 is_stmt 0 discriminator 3 view .LVU46
 192 0014 1448     		ldr	r0, .L24
 193 0016 3421     		movs	r1, #52
 194 0018 02FB01F1 		mul	r1, r2, r1
 195 001c 4318     		adds	r3, r0, r1
 196 001e 4254     		strb	r2, [r0, r1]
 233:Core/Src/freertos.c ****     tcpModbusSocket[i].bufRx = modbusBufRxTxTCP;
 197              		.loc 1 233 5 is_stmt 1 discriminator 3 view .LVU47
 233:Core/Src/freertos.c ****     tcpModbusSocket[i].bufRx = modbusBufRxTxTCP;
 198              		.loc 1 233 29 is_stmt 0 discriminator 3 view .LVU48
 199 0020 4FF4FB71 		mov	r1, #502
 200 0024 5980     		strh	r1, [r3, #2]	@ movhi
 234:Core/Src/freertos.c ****     tcpModbusSocket[i].bufTx = modbusBufRxTxTCP;
 201              		.loc 1 234 5 is_stmt 1 discriminator 3 view .LVU49
 234:Core/Src/freertos.c ****     tcpModbusSocket[i].bufTx = modbusBufRxTxTCP;
 202              		.loc 1 234 30 is_stmt 0 discriminator 3 view .LVU50
 203 0026 1149     		ldr	r1, .L24+4
 204 0028 5960     		str	r1, [r3, #4]
 235:Core/Src/freertos.c ****     tcpModbusSocket[i].bufRxLen = MODBUS_SS_BUF_CNT;
 205              		.loc 1 235 5 is_stmt 1 discriminator 3 view .LVU51
 235:Core/Src/freertos.c ****     tcpModbusSocket[i].bufRxLen = MODBUS_SS_BUF_CNT;
 206              		.loc 1 235 30 is_stmt 0 discriminator 3 view .LVU52
 207 002a D960     		str	r1, [r3, #12]
 236:Core/Src/freertos.c ****     tcpModbusSocket[i].bufTxLen = MODBUS_SS_BUF_CNT;
 208              		.loc 1 236 5 is_stmt 1 discriminator 3 view .LVU53
 236:Core/Src/freertos.c ****     tcpModbusSocket[i].bufTxLen = MODBUS_SS_BUF_CNT;
 209              		.loc 1 236 33 is_stmt 0 discriminator 3 view .LVU54
 210 002c 4FF48271 		mov	r1, #260
 211 0030 1981     		strh	r1, [r3, #8]	@ movhi
 237:Core/Src/freertos.c ****     tcpModbusSocket[i].cbfunc_pendingData = cbckModbusTcpServer;
 212              		.loc 1 237 5 is_stmt 1 discriminator 3 view .LVU55
 237:Core/Src/freertos.c ****     tcpModbusSocket[i].cbfunc_pendingData = cbckModbusTcpServer;
 213              		.loc 1 237 33 is_stmt 0 discriminator 3 view .LVU56
 214 0032 1982     		strh	r1, [r3, #16]	@ movhi
 238:Core/Src/freertos.c ****     // tcpModbusSocket[i].echoMode = SET;
 215              		.loc 1 238 5 is_stmt 1 discriminator 3 view .LVU57
 238:Core/Src/freertos.c ****     // tcpModbusSocket[i].echoMode = SET;
 216              		.loc 1 238 43 is_stmt 0 discriminator 3 view .LVU58
 217 0034 0E49     		ldr	r1, .L24+8
 218 0036 5962     		str	r1, [r3, #36]
 230:Core/Src/freertos.c ****   {
 219              		.loc 1 230 51 is_stmt 1 discriminator 3 view .LVU59
 220 0038 0132     		adds	r2, r2, #1
 221              	.LVL22:
 222              	.L15:
 230:Core/Src/freertos.c ****   {
 223              		.loc 1 230 21 discriminator 1 view .LVU60
 224 003a 032A     		cmp	r2, #3
 225 003c EADD     		ble	.L16
 226 003e 10E0     		b	.L20
 227              	.LVL23:
 228              	.L18:
 230:Core/Src/freertos.c ****   {
 229              		.loc 1 230 21 is_stmt 0 discriminator 1 view .LVU61
 230              	.LBE9:
ARM GAS  C:\Users\VIDCOM~1\AppData\Local\Temp\cc4j4Ttx.s 			page 14


 231              	.LBB10:
 247:Core/Src/freertos.c ****     {
 232              		.loc 1 247 53 is_stmt 1 discriminator 2 view .LVU62
 233 0040 0134     		adds	r4, r4, #1
 234              	.LVL24:
 235              	.L17:
 247:Core/Src/freertos.c ****     {
 236              		.loc 1 247 23 discriminator 1 view .LVU63
 237 0042 032C     		cmp	r4, #3
 238 0044 0ADC     		bgt	.L23
 249:Core/Src/freertos.c ****       {
 239              		.loc 1 249 7 view .LVU64
 249:Core/Src/freertos.c ****       {
 240              		.loc 1 249 11 is_stmt 0 view .LVU65
 241 0046 3420     		movs	r0, #52
 242 0048 074B     		ldr	r3, .L24
 243 004a 00FB0430 		mla	r0, r0, r4, r3
 244 004e FFF7FEFF 		bl	Eth_f_runTcpSrv
 245              	.LVL25:
 249:Core/Src/freertos.c ****       {
 246              		.loc 1 249 10 view .LVU66
 247 0052 0128     		cmp	r0, #1
 248 0054 F4D0     		beq	.L18
 251:Core/Src/freertos.c ****       }
 249              		.loc 1 251 9 is_stmt 1 view .LVU67
 250 0056 FFF7FEFF 		bl	Error_Handler
 251              	.LVL26:
 252 005a F1E7     		b	.L18
 253              	.L23:
 254              	.LBE10:
 257:Core/Src/freertos.c ****   }
 255              		.loc 1 257 5 view .LVU68
 256 005c 0120     		movs	r0, #1
 257 005e FFF7FEFF 		bl	osDelay
 258              	.LVL27:
 244:Core/Src/freertos.c ****   {
 259              		.loc 1 244 3 view .LVU69
 260              	.L20:
 244:Core/Src/freertos.c ****   {
 261              		.loc 1 244 3 view .LVU70
 247:Core/Src/freertos.c ****     {
 262              		.loc 1 247 5 view .LVU71
 263              	.LBB11:
 247:Core/Src/freertos.c ****     {
 264              		.loc 1 247 10 view .LVU72
 247:Core/Src/freertos.c ****     {
 265              		.loc 1 247 14 is_stmt 0 view .LVU73
 266 0062 0024     		movs	r4, #0
 247:Core/Src/freertos.c ****     {
 267              		.loc 1 247 5 view .LVU74
 268 0064 EDE7     		b	.L17
 269              	.L25:
 270 0066 00BF     		.align	2
 271              	.L24:
 272 0068 00000000 		.word	tcpModbusSocket
 273 006c 00000000 		.word	modbusBufRxTxTCP
 274 0070 00000000 		.word	cbckModbusTcpServer
ARM GAS  C:\Users\VIDCOM~1\AppData\Local\Temp\cc4j4Ttx.s 			page 15


 275              	.LBE11:
 276              		.cfi_endproc
 277              	.LFE580:
 279              		.section	.text.cbckModbusTcpServer,"ax",%progbits
 280              		.align	1
 281              		.global	cbckModbusTcpServer
 282              		.syntax unified
 283              		.thumb
 284              		.thumb_func
 286              	cbckModbusTcpServer:
 287              	.LVL28:
 288              	.LFB581:
 263:Core/Src/freertos.c ****   socket->exchangeState = state_res_inProc;
 289              		.loc 1 263 1 is_stmt 1 view -0
 290              		.cfi_startproc
 291              		@ args = 0, pretend = 0, frame = 0
 292              		@ frame_needed = 0, uses_anonymous_args = 0
 263:Core/Src/freertos.c ****   socket->exchangeState = state_res_inProc;
 293              		.loc 1 263 1 is_stmt 0 view .LVU76
 294 0000 10B5     		push	{r4, lr}
 295              	.LCFI2:
 296              		.cfi_def_cfa_offset 8
 297              		.cfi_offset 4, -8
 298              		.cfi_offset 14, -4
 299 0002 0446     		mov	r4, r0
 264:Core/Src/freertos.c ****   socket->txFrameSize = ModbusSS_ParseRxData(&modbusSS_tcp);
 300              		.loc 1 264 3 is_stmt 1 view .LVU77
 264:Core/Src/freertos.c ****   socket->txFrameSize = ModbusSS_ParseRxData(&modbusSS_tcp);
 301              		.loc 1 264 25 is_stmt 0 view .LVU78
 302 0004 0323     		movs	r3, #3
 303 0006 C374     		strb	r3, [r0, #19]
 265:Core/Src/freertos.c ****   return 0;
 304              		.loc 1 265 3 is_stmt 1 view .LVU79
 265:Core/Src/freertos.c ****   return 0;
 305              		.loc 1 265 25 is_stmt 0 view .LVU80
 306 0008 0248     		ldr	r0, .L28
 307              	.LVL29:
 265:Core/Src/freertos.c ****   return 0;
 308              		.loc 1 265 25 view .LVU81
 309 000a FFF7FEFF 		bl	ModbusSS_ParseRxData
 310              	.LVL30:
 265:Core/Src/freertos.c ****   return 0;
 311              		.loc 1 265 23 view .LVU82
 312 000e A082     		strh	r0, [r4, #20]	@ movhi
 266:Core/Src/freertos.c **** }
 313              		.loc 1 266 3 is_stmt 1 view .LVU83
 267:Core/Src/freertos.c **** 
 314              		.loc 1 267 1 is_stmt 0 view .LVU84
 315 0010 0020     		movs	r0, #0
 316 0012 10BD     		pop	{r4, pc}
 317              	.LVL31:
 318              	.L29:
 267:Core/Src/freertos.c **** 
 319              		.loc 1 267 1 view .LVU85
 320              		.align	2
 321              	.L28:
 322 0014 00000000 		.word	modbusSS_tcp
ARM GAS  C:\Users\VIDCOM~1\AppData\Local\Temp\cc4j4Ttx.s 			page 16


 323              		.cfi_endproc
 324              	.LFE581:
 326              		.section	.text.modbusHoldingReq,"ax",%progbits
 327              		.align	1
 328              		.global	modbusHoldingReq
 329              		.syntax unified
 330              		.thumb
 331              		.thumb_func
 333              	modbusHoldingReq:
 334              	.LVL32:
 335              	.LFB582:
 270:Core/Src/freertos.c **** 
 336              		.loc 1 270 1 is_stmt 1 view -0
 337              		.cfi_startproc
 338              		@ args = 0, pretend = 0, frame = 0
 339              		@ frame_needed = 0, uses_anonymous_args = 0
 270:Core/Src/freertos.c **** 
 340              		.loc 1 270 1 is_stmt 0 view .LVU87
 341 0000 F8B5     		push	{r3, r4, r5, r6, r7, lr}
 342              	.LCFI3:
 343              		.cfi_def_cfa_offset 24
 344              		.cfi_offset 3, -24
 345              		.cfi_offset 4, -20
 346              		.cfi_offset 5, -16
 347              		.cfi_offset 6, -12
 348              		.cfi_offset 7, -8
 349              		.cfi_offset 14, -4
 350 0002 0E46     		mov	r6, r1
 351 0004 1746     		mov	r7, r2
 272:Core/Src/freertos.c ****   if (table == &modbusTableHolding1)
 352              		.loc 1 272 3 is_stmt 1 view .LVU88
 353              	.LVL33:
 354              	.LBB12:
 355              	.LBI12:
 356              		.file 2 "Drivers/STM32F1xx_HAL_Driver/Inc/stm32f1xx_ll_gpio.h"
   1:Drivers/STM32F1xx_HAL_Driver/Inc/stm32f1xx_ll_gpio.h **** /**
   2:Drivers/STM32F1xx_HAL_Driver/Inc/stm32f1xx_ll_gpio.h ****   ******************************************************************************
   3:Drivers/STM32F1xx_HAL_Driver/Inc/stm32f1xx_ll_gpio.h ****   * @file    stm32f1xx_ll_gpio.h
   4:Drivers/STM32F1xx_HAL_Driver/Inc/stm32f1xx_ll_gpio.h ****   * @author  MCD Application Team
   5:Drivers/STM32F1xx_HAL_Driver/Inc/stm32f1xx_ll_gpio.h ****   * @brief   Header file of GPIO LL module.
   6:Drivers/STM32F1xx_HAL_Driver/Inc/stm32f1xx_ll_gpio.h ****   ******************************************************************************
   7:Drivers/STM32F1xx_HAL_Driver/Inc/stm32f1xx_ll_gpio.h ****   * @attention
   8:Drivers/STM32F1xx_HAL_Driver/Inc/stm32f1xx_ll_gpio.h ****   *
   9:Drivers/STM32F1xx_HAL_Driver/Inc/stm32f1xx_ll_gpio.h ****   * <h2><center>&copy; Copyright (c) 2016 STMicroelectronics.
  10:Drivers/STM32F1xx_HAL_Driver/Inc/stm32f1xx_ll_gpio.h ****   * All rights reserved.</center></h2>
  11:Drivers/STM32F1xx_HAL_Driver/Inc/stm32f1xx_ll_gpio.h ****   *
  12:Drivers/STM32F1xx_HAL_Driver/Inc/stm32f1xx_ll_gpio.h ****   * This software component is licensed by ST under BSD 3-Clause license,
  13:Drivers/STM32F1xx_HAL_Driver/Inc/stm32f1xx_ll_gpio.h ****   * the "License"; You may not use this file except in compliance with the
  14:Drivers/STM32F1xx_HAL_Driver/Inc/stm32f1xx_ll_gpio.h ****   * License. You may obtain a copy of the License at:
  15:Drivers/STM32F1xx_HAL_Driver/Inc/stm32f1xx_ll_gpio.h ****   *                        opensource.org/licenses/BSD-3-Clause
  16:Drivers/STM32F1xx_HAL_Driver/Inc/stm32f1xx_ll_gpio.h ****   *
  17:Drivers/STM32F1xx_HAL_Driver/Inc/stm32f1xx_ll_gpio.h ****   ******************************************************************************
  18:Drivers/STM32F1xx_HAL_Driver/Inc/stm32f1xx_ll_gpio.h ****   */
  19:Drivers/STM32F1xx_HAL_Driver/Inc/stm32f1xx_ll_gpio.h **** 
  20:Drivers/STM32F1xx_HAL_Driver/Inc/stm32f1xx_ll_gpio.h **** /* Define to prevent recursive inclusion -------------------------------------*/
  21:Drivers/STM32F1xx_HAL_Driver/Inc/stm32f1xx_ll_gpio.h **** #ifndef STM32F1xx_LL_GPIO_H
  22:Drivers/STM32F1xx_HAL_Driver/Inc/stm32f1xx_ll_gpio.h **** #define STM32F1xx_LL_GPIO_H
ARM GAS  C:\Users\VIDCOM~1\AppData\Local\Temp\cc4j4Ttx.s 			page 17


  23:Drivers/STM32F1xx_HAL_Driver/Inc/stm32f1xx_ll_gpio.h **** 
  24:Drivers/STM32F1xx_HAL_Driver/Inc/stm32f1xx_ll_gpio.h **** #ifdef __cplusplus
  25:Drivers/STM32F1xx_HAL_Driver/Inc/stm32f1xx_ll_gpio.h **** extern "C" {
  26:Drivers/STM32F1xx_HAL_Driver/Inc/stm32f1xx_ll_gpio.h **** #endif
  27:Drivers/STM32F1xx_HAL_Driver/Inc/stm32f1xx_ll_gpio.h **** 
  28:Drivers/STM32F1xx_HAL_Driver/Inc/stm32f1xx_ll_gpio.h **** /* Includes ------------------------------------------------------------------*/
  29:Drivers/STM32F1xx_HAL_Driver/Inc/stm32f1xx_ll_gpio.h **** #include "stm32f1xx.h"
  30:Drivers/STM32F1xx_HAL_Driver/Inc/stm32f1xx_ll_gpio.h **** 
  31:Drivers/STM32F1xx_HAL_Driver/Inc/stm32f1xx_ll_gpio.h **** /** @addtogroup STM32F1xx_LL_Driver
  32:Drivers/STM32F1xx_HAL_Driver/Inc/stm32f1xx_ll_gpio.h ****   * @{
  33:Drivers/STM32F1xx_HAL_Driver/Inc/stm32f1xx_ll_gpio.h ****   */
  34:Drivers/STM32F1xx_HAL_Driver/Inc/stm32f1xx_ll_gpio.h **** 
  35:Drivers/STM32F1xx_HAL_Driver/Inc/stm32f1xx_ll_gpio.h **** #if defined (GPIOA) || defined (GPIOB) || defined (GPIOC) || defined (GPIOD) || defined (GPIOE) || 
  36:Drivers/STM32F1xx_HAL_Driver/Inc/stm32f1xx_ll_gpio.h **** 
  37:Drivers/STM32F1xx_HAL_Driver/Inc/stm32f1xx_ll_gpio.h **** /** @defgroup GPIO_LL GPIO
  38:Drivers/STM32F1xx_HAL_Driver/Inc/stm32f1xx_ll_gpio.h ****   * @{
  39:Drivers/STM32F1xx_HAL_Driver/Inc/stm32f1xx_ll_gpio.h ****   */
  40:Drivers/STM32F1xx_HAL_Driver/Inc/stm32f1xx_ll_gpio.h **** 
  41:Drivers/STM32F1xx_HAL_Driver/Inc/stm32f1xx_ll_gpio.h **** /* Private types -------------------------------------------------------------*/
  42:Drivers/STM32F1xx_HAL_Driver/Inc/stm32f1xx_ll_gpio.h **** /* Private variables ---------------------------------------------------------*/
  43:Drivers/STM32F1xx_HAL_Driver/Inc/stm32f1xx_ll_gpio.h **** /* Private constants ---------------------------------------------------------*/
  44:Drivers/STM32F1xx_HAL_Driver/Inc/stm32f1xx_ll_gpio.h **** 
  45:Drivers/STM32F1xx_HAL_Driver/Inc/stm32f1xx_ll_gpio.h **** /** @defgroup GPIO_LL_Private_Constants GPIO Private Constants
  46:Drivers/STM32F1xx_HAL_Driver/Inc/stm32f1xx_ll_gpio.h ****   * @{
  47:Drivers/STM32F1xx_HAL_Driver/Inc/stm32f1xx_ll_gpio.h ****   */
  48:Drivers/STM32F1xx_HAL_Driver/Inc/stm32f1xx_ll_gpio.h **** /* Defines used for Pin Mask Initialization */
  49:Drivers/STM32F1xx_HAL_Driver/Inc/stm32f1xx_ll_gpio.h **** #define GPIO_PIN_MASK_POS   8U
  50:Drivers/STM32F1xx_HAL_Driver/Inc/stm32f1xx_ll_gpio.h **** #define GPIO_PIN_NB         16U
  51:Drivers/STM32F1xx_HAL_Driver/Inc/stm32f1xx_ll_gpio.h **** /**
  52:Drivers/STM32F1xx_HAL_Driver/Inc/stm32f1xx_ll_gpio.h ****   * @}
  53:Drivers/STM32F1xx_HAL_Driver/Inc/stm32f1xx_ll_gpio.h ****   */
  54:Drivers/STM32F1xx_HAL_Driver/Inc/stm32f1xx_ll_gpio.h **** 
  55:Drivers/STM32F1xx_HAL_Driver/Inc/stm32f1xx_ll_gpio.h **** /* Private macros ------------------------------------------------------------*/
  56:Drivers/STM32F1xx_HAL_Driver/Inc/stm32f1xx_ll_gpio.h **** #if defined(USE_FULL_LL_DRIVER)
  57:Drivers/STM32F1xx_HAL_Driver/Inc/stm32f1xx_ll_gpio.h **** /** @defgroup GPIO_LL_Private_Macros GPIO Private Macros
  58:Drivers/STM32F1xx_HAL_Driver/Inc/stm32f1xx_ll_gpio.h ****   * @{
  59:Drivers/STM32F1xx_HAL_Driver/Inc/stm32f1xx_ll_gpio.h ****   */
  60:Drivers/STM32F1xx_HAL_Driver/Inc/stm32f1xx_ll_gpio.h **** 
  61:Drivers/STM32F1xx_HAL_Driver/Inc/stm32f1xx_ll_gpio.h **** /**
  62:Drivers/STM32F1xx_HAL_Driver/Inc/stm32f1xx_ll_gpio.h ****   * @}
  63:Drivers/STM32F1xx_HAL_Driver/Inc/stm32f1xx_ll_gpio.h ****   */
  64:Drivers/STM32F1xx_HAL_Driver/Inc/stm32f1xx_ll_gpio.h **** #endif /*USE_FULL_LL_DRIVER*/
  65:Drivers/STM32F1xx_HAL_Driver/Inc/stm32f1xx_ll_gpio.h **** 
  66:Drivers/STM32F1xx_HAL_Driver/Inc/stm32f1xx_ll_gpio.h **** /* Exported types ------------------------------------------------------------*/
  67:Drivers/STM32F1xx_HAL_Driver/Inc/stm32f1xx_ll_gpio.h **** #if defined(USE_FULL_LL_DRIVER)
  68:Drivers/STM32F1xx_HAL_Driver/Inc/stm32f1xx_ll_gpio.h **** /** @defgroup GPIO_LL_ES_INIT GPIO Exported Init structures
  69:Drivers/STM32F1xx_HAL_Driver/Inc/stm32f1xx_ll_gpio.h ****   * @{
  70:Drivers/STM32F1xx_HAL_Driver/Inc/stm32f1xx_ll_gpio.h ****   */
  71:Drivers/STM32F1xx_HAL_Driver/Inc/stm32f1xx_ll_gpio.h **** 
  72:Drivers/STM32F1xx_HAL_Driver/Inc/stm32f1xx_ll_gpio.h **** /**
  73:Drivers/STM32F1xx_HAL_Driver/Inc/stm32f1xx_ll_gpio.h ****   * @brief LL GPIO Init Structure definition
  74:Drivers/STM32F1xx_HAL_Driver/Inc/stm32f1xx_ll_gpio.h ****   */
  75:Drivers/STM32F1xx_HAL_Driver/Inc/stm32f1xx_ll_gpio.h **** typedef struct
  76:Drivers/STM32F1xx_HAL_Driver/Inc/stm32f1xx_ll_gpio.h **** {
  77:Drivers/STM32F1xx_HAL_Driver/Inc/stm32f1xx_ll_gpio.h ****   uint32_t Pin;          /*!< Specifies the GPIO pins to be configured.
  78:Drivers/STM32F1xx_HAL_Driver/Inc/stm32f1xx_ll_gpio.h ****                               This parameter can be any value of @ref GPIO_LL_EC_PIN */
  79:Drivers/STM32F1xx_HAL_Driver/Inc/stm32f1xx_ll_gpio.h **** 
ARM GAS  C:\Users\VIDCOM~1\AppData\Local\Temp\cc4j4Ttx.s 			page 18


  80:Drivers/STM32F1xx_HAL_Driver/Inc/stm32f1xx_ll_gpio.h ****   uint32_t Mode;         /*!< Specifies the operating mode for the selected pins.
  81:Drivers/STM32F1xx_HAL_Driver/Inc/stm32f1xx_ll_gpio.h ****                               This parameter can be a value of @ref GPIO_LL_EC_MODE.
  82:Drivers/STM32F1xx_HAL_Driver/Inc/stm32f1xx_ll_gpio.h **** 
  83:Drivers/STM32F1xx_HAL_Driver/Inc/stm32f1xx_ll_gpio.h ****                               GPIO HW configuration can be modified afterwards using unitary functi
  84:Drivers/STM32F1xx_HAL_Driver/Inc/stm32f1xx_ll_gpio.h **** 
  85:Drivers/STM32F1xx_HAL_Driver/Inc/stm32f1xx_ll_gpio.h ****   uint32_t Speed;        /*!< Specifies the speed for the selected pins.
  86:Drivers/STM32F1xx_HAL_Driver/Inc/stm32f1xx_ll_gpio.h ****                               This parameter can be a value of @ref GPIO_LL_EC_SPEED.
  87:Drivers/STM32F1xx_HAL_Driver/Inc/stm32f1xx_ll_gpio.h **** 
  88:Drivers/STM32F1xx_HAL_Driver/Inc/stm32f1xx_ll_gpio.h ****                               GPIO HW configuration can be modified afterwards using unitary functi
  89:Drivers/STM32F1xx_HAL_Driver/Inc/stm32f1xx_ll_gpio.h **** 
  90:Drivers/STM32F1xx_HAL_Driver/Inc/stm32f1xx_ll_gpio.h ****   uint32_t OutputType;   /*!< Specifies the operating output type for the selected pins.
  91:Drivers/STM32F1xx_HAL_Driver/Inc/stm32f1xx_ll_gpio.h ****                               This parameter can be a value of @ref GPIO_LL_EC_OUTPUT.
  92:Drivers/STM32F1xx_HAL_Driver/Inc/stm32f1xx_ll_gpio.h **** 
  93:Drivers/STM32F1xx_HAL_Driver/Inc/stm32f1xx_ll_gpio.h ****                               GPIO HW configuration can be modified afterwards using unitary functi
  94:Drivers/STM32F1xx_HAL_Driver/Inc/stm32f1xx_ll_gpio.h **** 
  95:Drivers/STM32F1xx_HAL_Driver/Inc/stm32f1xx_ll_gpio.h ****   uint32_t Pull;         /*!< Specifies the operating Pull-up/Pull down for the selected pins.
  96:Drivers/STM32F1xx_HAL_Driver/Inc/stm32f1xx_ll_gpio.h ****                               This parameter can be a value of @ref GPIO_LL_EC_PULL.
  97:Drivers/STM32F1xx_HAL_Driver/Inc/stm32f1xx_ll_gpio.h **** 
  98:Drivers/STM32F1xx_HAL_Driver/Inc/stm32f1xx_ll_gpio.h ****                               GPIO HW configuration can be modified afterwards using unitary functi
  99:Drivers/STM32F1xx_HAL_Driver/Inc/stm32f1xx_ll_gpio.h **** } LL_GPIO_InitTypeDef;
 100:Drivers/STM32F1xx_HAL_Driver/Inc/stm32f1xx_ll_gpio.h **** 
 101:Drivers/STM32F1xx_HAL_Driver/Inc/stm32f1xx_ll_gpio.h **** /**
 102:Drivers/STM32F1xx_HAL_Driver/Inc/stm32f1xx_ll_gpio.h ****   * @}
 103:Drivers/STM32F1xx_HAL_Driver/Inc/stm32f1xx_ll_gpio.h ****   */
 104:Drivers/STM32F1xx_HAL_Driver/Inc/stm32f1xx_ll_gpio.h **** #endif /* USE_FULL_LL_DRIVER */
 105:Drivers/STM32F1xx_HAL_Driver/Inc/stm32f1xx_ll_gpio.h **** 
 106:Drivers/STM32F1xx_HAL_Driver/Inc/stm32f1xx_ll_gpio.h **** /* Exported constants --------------------------------------------------------*/
 107:Drivers/STM32F1xx_HAL_Driver/Inc/stm32f1xx_ll_gpio.h **** /** @defgroup GPIO_LL_Exported_Constants GPIO Exported Constants
 108:Drivers/STM32F1xx_HAL_Driver/Inc/stm32f1xx_ll_gpio.h ****   * @{
 109:Drivers/STM32F1xx_HAL_Driver/Inc/stm32f1xx_ll_gpio.h ****   */
 110:Drivers/STM32F1xx_HAL_Driver/Inc/stm32f1xx_ll_gpio.h **** 
 111:Drivers/STM32F1xx_HAL_Driver/Inc/stm32f1xx_ll_gpio.h **** /** @defgroup GPIO_LL_EC_PIN PIN
 112:Drivers/STM32F1xx_HAL_Driver/Inc/stm32f1xx_ll_gpio.h ****   * @{
 113:Drivers/STM32F1xx_HAL_Driver/Inc/stm32f1xx_ll_gpio.h ****   */
 114:Drivers/STM32F1xx_HAL_Driver/Inc/stm32f1xx_ll_gpio.h **** #define LL_GPIO_PIN_0                    ((GPIO_BSRR_BS0  << GPIO_PIN_MASK_POS) | 0x00000001U)  /*!
 115:Drivers/STM32F1xx_HAL_Driver/Inc/stm32f1xx_ll_gpio.h **** #define LL_GPIO_PIN_1                    ((GPIO_BSRR_BS1  << GPIO_PIN_MASK_POS) | 0x00000002U)  /*!
 116:Drivers/STM32F1xx_HAL_Driver/Inc/stm32f1xx_ll_gpio.h **** #define LL_GPIO_PIN_2                    ((GPIO_BSRR_BS2  << GPIO_PIN_MASK_POS) | 0x00000004U)  /*!
 117:Drivers/STM32F1xx_HAL_Driver/Inc/stm32f1xx_ll_gpio.h **** #define LL_GPIO_PIN_3                    ((GPIO_BSRR_BS3  << GPIO_PIN_MASK_POS) | 0x00000008U)  /*!
 118:Drivers/STM32F1xx_HAL_Driver/Inc/stm32f1xx_ll_gpio.h **** #define LL_GPIO_PIN_4                    ((GPIO_BSRR_BS4  << GPIO_PIN_MASK_POS) | 0x00000010U)  /*!
 119:Drivers/STM32F1xx_HAL_Driver/Inc/stm32f1xx_ll_gpio.h **** #define LL_GPIO_PIN_5                    ((GPIO_BSRR_BS5  << GPIO_PIN_MASK_POS) | 0x00000020U)  /*!
 120:Drivers/STM32F1xx_HAL_Driver/Inc/stm32f1xx_ll_gpio.h **** #define LL_GPIO_PIN_6                    ((GPIO_BSRR_BS6  << GPIO_PIN_MASK_POS) | 0x00000040U)  /*!
 121:Drivers/STM32F1xx_HAL_Driver/Inc/stm32f1xx_ll_gpio.h **** #define LL_GPIO_PIN_7                    ((GPIO_BSRR_BS7  << GPIO_PIN_MASK_POS) | 0x00000080U)  /*!
 122:Drivers/STM32F1xx_HAL_Driver/Inc/stm32f1xx_ll_gpio.h **** #define LL_GPIO_PIN_8                    ((GPIO_BSRR_BS8  << GPIO_PIN_MASK_POS) | 0x04000001U)  /*!
 123:Drivers/STM32F1xx_HAL_Driver/Inc/stm32f1xx_ll_gpio.h **** #define LL_GPIO_PIN_9                    ((GPIO_BSRR_BS9  << GPIO_PIN_MASK_POS) | 0x04000002U)  /*!
 124:Drivers/STM32F1xx_HAL_Driver/Inc/stm32f1xx_ll_gpio.h **** #define LL_GPIO_PIN_10                   ((GPIO_BSRR_BS10 << GPIO_PIN_MASK_POS) | 0x04000004U)  /*!
 125:Drivers/STM32F1xx_HAL_Driver/Inc/stm32f1xx_ll_gpio.h **** #define LL_GPIO_PIN_11                   ((GPIO_BSRR_BS11 << GPIO_PIN_MASK_POS) | 0x04000008U)  /*!
 126:Drivers/STM32F1xx_HAL_Driver/Inc/stm32f1xx_ll_gpio.h **** #define LL_GPIO_PIN_12                   ((GPIO_BSRR_BS12 << GPIO_PIN_MASK_POS) | 0x04000010U)  /*!
 127:Drivers/STM32F1xx_HAL_Driver/Inc/stm32f1xx_ll_gpio.h **** #define LL_GPIO_PIN_13                   ((GPIO_BSRR_BS13 << GPIO_PIN_MASK_POS) | 0x04000020U)  /*!
 128:Drivers/STM32F1xx_HAL_Driver/Inc/stm32f1xx_ll_gpio.h **** #define LL_GPIO_PIN_14                   ((GPIO_BSRR_BS14 << GPIO_PIN_MASK_POS) | 0x04000040U)  /*!
 129:Drivers/STM32F1xx_HAL_Driver/Inc/stm32f1xx_ll_gpio.h **** #define LL_GPIO_PIN_15                   ((GPIO_BSRR_BS15 << GPIO_PIN_MASK_POS) | 0x04000080U)  /*!
 130:Drivers/STM32F1xx_HAL_Driver/Inc/stm32f1xx_ll_gpio.h **** #define LL_GPIO_PIN_ALL                  (LL_GPIO_PIN_0  | LL_GPIO_PIN_1  | LL_GPIO_PIN_2  | \
 131:Drivers/STM32F1xx_HAL_Driver/Inc/stm32f1xx_ll_gpio.h ****                                           LL_GPIO_PIN_3  | LL_GPIO_PIN_4  | LL_GPIO_PIN_5  | \
 132:Drivers/STM32F1xx_HAL_Driver/Inc/stm32f1xx_ll_gpio.h ****                                           LL_GPIO_PIN_6  | LL_GPIO_PIN_7  | LL_GPIO_PIN_8  | \
 133:Drivers/STM32F1xx_HAL_Driver/Inc/stm32f1xx_ll_gpio.h ****                                           LL_GPIO_PIN_9  | LL_GPIO_PIN_10 | LL_GPIO_PIN_11 | \
 134:Drivers/STM32F1xx_HAL_Driver/Inc/stm32f1xx_ll_gpio.h ****                                           LL_GPIO_PIN_12 | LL_GPIO_PIN_13 | LL_GPIO_PIN_14 | \
 135:Drivers/STM32F1xx_HAL_Driver/Inc/stm32f1xx_ll_gpio.h ****                                           LL_GPIO_PIN_15)                                      /*!<
 136:Drivers/STM32F1xx_HAL_Driver/Inc/stm32f1xx_ll_gpio.h **** /**
ARM GAS  C:\Users\VIDCOM~1\AppData\Local\Temp\cc4j4Ttx.s 			page 19


 137:Drivers/STM32F1xx_HAL_Driver/Inc/stm32f1xx_ll_gpio.h ****   * @}
 138:Drivers/STM32F1xx_HAL_Driver/Inc/stm32f1xx_ll_gpio.h ****   */
 139:Drivers/STM32F1xx_HAL_Driver/Inc/stm32f1xx_ll_gpio.h **** 
 140:Drivers/STM32F1xx_HAL_Driver/Inc/stm32f1xx_ll_gpio.h **** /** @defgroup GPIO_LL_EC_MODE Mode
 141:Drivers/STM32F1xx_HAL_Driver/Inc/stm32f1xx_ll_gpio.h ****   * @{
 142:Drivers/STM32F1xx_HAL_Driver/Inc/stm32f1xx_ll_gpio.h ****   */
 143:Drivers/STM32F1xx_HAL_Driver/Inc/stm32f1xx_ll_gpio.h **** #define LL_GPIO_MODE_ANALOG              0x00000000U       /*!< Select analog mode */
 144:Drivers/STM32F1xx_HAL_Driver/Inc/stm32f1xx_ll_gpio.h **** #define LL_GPIO_MODE_FLOATING            GPIO_CRL_CNF0_0   /*!< Select floating mode */
 145:Drivers/STM32F1xx_HAL_Driver/Inc/stm32f1xx_ll_gpio.h **** #define LL_GPIO_MODE_INPUT               GPIO_CRL_CNF0_1   /*!< Select input mode */
 146:Drivers/STM32F1xx_HAL_Driver/Inc/stm32f1xx_ll_gpio.h **** #define LL_GPIO_MODE_OUTPUT              GPIO_CRL_MODE0_0  /*!< Select general purpose output mode 
 147:Drivers/STM32F1xx_HAL_Driver/Inc/stm32f1xx_ll_gpio.h **** #define LL_GPIO_MODE_ALTERNATE           (GPIO_CRL_CNF0_1 | GPIO_CRL_MODE0_0) /*!< Select alternate
 148:Drivers/STM32F1xx_HAL_Driver/Inc/stm32f1xx_ll_gpio.h **** /**
 149:Drivers/STM32F1xx_HAL_Driver/Inc/stm32f1xx_ll_gpio.h ****   * @}
 150:Drivers/STM32F1xx_HAL_Driver/Inc/stm32f1xx_ll_gpio.h ****   */
 151:Drivers/STM32F1xx_HAL_Driver/Inc/stm32f1xx_ll_gpio.h **** 
 152:Drivers/STM32F1xx_HAL_Driver/Inc/stm32f1xx_ll_gpio.h **** /** @defgroup GPIO_LL_EC_OUTPUT Output Type
 153:Drivers/STM32F1xx_HAL_Driver/Inc/stm32f1xx_ll_gpio.h ****   * @{
 154:Drivers/STM32F1xx_HAL_Driver/Inc/stm32f1xx_ll_gpio.h ****   */
 155:Drivers/STM32F1xx_HAL_Driver/Inc/stm32f1xx_ll_gpio.h **** #define LL_GPIO_OUTPUT_PUSHPULL          0x00000000U                /*!< Select push-pull as output
 156:Drivers/STM32F1xx_HAL_Driver/Inc/stm32f1xx_ll_gpio.h **** #define LL_GPIO_OUTPUT_OPENDRAIN         GPIO_CRL_CNF0_0            /*!< Select open-drain as outpu
 157:Drivers/STM32F1xx_HAL_Driver/Inc/stm32f1xx_ll_gpio.h **** /**
 158:Drivers/STM32F1xx_HAL_Driver/Inc/stm32f1xx_ll_gpio.h ****   * @}
 159:Drivers/STM32F1xx_HAL_Driver/Inc/stm32f1xx_ll_gpio.h ****   */
 160:Drivers/STM32F1xx_HAL_Driver/Inc/stm32f1xx_ll_gpio.h **** 
 161:Drivers/STM32F1xx_HAL_Driver/Inc/stm32f1xx_ll_gpio.h **** /** @defgroup GPIO_LL_EC_SPEED Output Speed
 162:Drivers/STM32F1xx_HAL_Driver/Inc/stm32f1xx_ll_gpio.h ****   * @{
 163:Drivers/STM32F1xx_HAL_Driver/Inc/stm32f1xx_ll_gpio.h ****   */
 164:Drivers/STM32F1xx_HAL_Driver/Inc/stm32f1xx_ll_gpio.h **** #define LL_GPIO_MODE_OUTPUT_10MHz        GPIO_CRL_MODE0_0            /*!< Select Output mode, max s
 165:Drivers/STM32F1xx_HAL_Driver/Inc/stm32f1xx_ll_gpio.h **** #define LL_GPIO_MODE_OUTPUT_2MHz         GPIO_CRL_MODE0_1            /*!< Select Output mode, max s
 166:Drivers/STM32F1xx_HAL_Driver/Inc/stm32f1xx_ll_gpio.h **** #define LL_GPIO_MODE_OUTPUT_50MHz        GPIO_CRL_MODE0              /*!< Select Output mode, max s
 167:Drivers/STM32F1xx_HAL_Driver/Inc/stm32f1xx_ll_gpio.h **** /**
 168:Drivers/STM32F1xx_HAL_Driver/Inc/stm32f1xx_ll_gpio.h ****   * @}
 169:Drivers/STM32F1xx_HAL_Driver/Inc/stm32f1xx_ll_gpio.h ****   */
 170:Drivers/STM32F1xx_HAL_Driver/Inc/stm32f1xx_ll_gpio.h **** 
 171:Drivers/STM32F1xx_HAL_Driver/Inc/stm32f1xx_ll_gpio.h **** #define LL_GPIO_SPEED_FREQ_LOW           LL_GPIO_MODE_OUTPUT_2MHz    /*!< Select I/O low output spe
 172:Drivers/STM32F1xx_HAL_Driver/Inc/stm32f1xx_ll_gpio.h **** #define LL_GPIO_SPEED_FREQ_MEDIUM        LL_GPIO_MODE_OUTPUT_10MHz   /*!< Select I/O medium output 
 173:Drivers/STM32F1xx_HAL_Driver/Inc/stm32f1xx_ll_gpio.h **** #define LL_GPIO_SPEED_FREQ_HIGH          LL_GPIO_MODE_OUTPUT_50MHz   /*!< Select I/O high output sp
 174:Drivers/STM32F1xx_HAL_Driver/Inc/stm32f1xx_ll_gpio.h **** 
 175:Drivers/STM32F1xx_HAL_Driver/Inc/stm32f1xx_ll_gpio.h **** /** @defgroup GPIO_LL_EC_PULL Pull Up Pull Down
 176:Drivers/STM32F1xx_HAL_Driver/Inc/stm32f1xx_ll_gpio.h ****   * @{
 177:Drivers/STM32F1xx_HAL_Driver/Inc/stm32f1xx_ll_gpio.h ****   */
 178:Drivers/STM32F1xx_HAL_Driver/Inc/stm32f1xx_ll_gpio.h **** #define LL_GPIO_PULL_DOWN                0x00000000U    /*!< Select I/O pull down */
 179:Drivers/STM32F1xx_HAL_Driver/Inc/stm32f1xx_ll_gpio.h **** #define LL_GPIO_PULL_UP                  GPIO_ODR_ODR0  /*!< Select I/O pull up */
 180:Drivers/STM32F1xx_HAL_Driver/Inc/stm32f1xx_ll_gpio.h **** 
 181:Drivers/STM32F1xx_HAL_Driver/Inc/stm32f1xx_ll_gpio.h **** /**
 182:Drivers/STM32F1xx_HAL_Driver/Inc/stm32f1xx_ll_gpio.h ****   * @}
 183:Drivers/STM32F1xx_HAL_Driver/Inc/stm32f1xx_ll_gpio.h ****   */
 184:Drivers/STM32F1xx_HAL_Driver/Inc/stm32f1xx_ll_gpio.h **** 
 185:Drivers/STM32F1xx_HAL_Driver/Inc/stm32f1xx_ll_gpio.h **** /** @defgroup GPIO_LL_EVENTOUT_PIN EVENTOUT Pin
 186:Drivers/STM32F1xx_HAL_Driver/Inc/stm32f1xx_ll_gpio.h ****   * @{
 187:Drivers/STM32F1xx_HAL_Driver/Inc/stm32f1xx_ll_gpio.h ****   */
 188:Drivers/STM32F1xx_HAL_Driver/Inc/stm32f1xx_ll_gpio.h **** 
 189:Drivers/STM32F1xx_HAL_Driver/Inc/stm32f1xx_ll_gpio.h **** #define LL_GPIO_AF_EVENTOUT_PIN_0        AFIO_EVCR_PIN_PX0   /*!< EVENTOUT on pin 0 */
 190:Drivers/STM32F1xx_HAL_Driver/Inc/stm32f1xx_ll_gpio.h **** #define LL_GPIO_AF_EVENTOUT_PIN_1        AFIO_EVCR_PIN_PX1   /*!< EVENTOUT on pin 1 */
 191:Drivers/STM32F1xx_HAL_Driver/Inc/stm32f1xx_ll_gpio.h **** #define LL_GPIO_AF_EVENTOUT_PIN_2        AFIO_EVCR_PIN_PX2   /*!< EVENTOUT on pin 2 */
 192:Drivers/STM32F1xx_HAL_Driver/Inc/stm32f1xx_ll_gpio.h **** #define LL_GPIO_AF_EVENTOUT_PIN_3        AFIO_EVCR_PIN_PX3   /*!< EVENTOUT on pin 3 */
 193:Drivers/STM32F1xx_HAL_Driver/Inc/stm32f1xx_ll_gpio.h **** #define LL_GPIO_AF_EVENTOUT_PIN_4        AFIO_EVCR_PIN_PX4   /*!< EVENTOUT on pin 4 */
ARM GAS  C:\Users\VIDCOM~1\AppData\Local\Temp\cc4j4Ttx.s 			page 20


 194:Drivers/STM32F1xx_HAL_Driver/Inc/stm32f1xx_ll_gpio.h **** #define LL_GPIO_AF_EVENTOUT_PIN_5        AFIO_EVCR_PIN_PX5   /*!< EVENTOUT on pin 5 */
 195:Drivers/STM32F1xx_HAL_Driver/Inc/stm32f1xx_ll_gpio.h **** #define LL_GPIO_AF_EVENTOUT_PIN_6        AFIO_EVCR_PIN_PX6   /*!< EVENTOUT on pin 6 */
 196:Drivers/STM32F1xx_HAL_Driver/Inc/stm32f1xx_ll_gpio.h **** #define LL_GPIO_AF_EVENTOUT_PIN_7        AFIO_EVCR_PIN_PX7   /*!< EVENTOUT on pin 7 */
 197:Drivers/STM32F1xx_HAL_Driver/Inc/stm32f1xx_ll_gpio.h **** #define LL_GPIO_AF_EVENTOUT_PIN_8        AFIO_EVCR_PIN_PX8   /*!< EVENTOUT on pin 8 */
 198:Drivers/STM32F1xx_HAL_Driver/Inc/stm32f1xx_ll_gpio.h **** #define LL_GPIO_AF_EVENTOUT_PIN_9        AFIO_EVCR_PIN_PX9   /*!< EVENTOUT on pin 9 */
 199:Drivers/STM32F1xx_HAL_Driver/Inc/stm32f1xx_ll_gpio.h **** #define LL_GPIO_AF_EVENTOUT_PIN_10       AFIO_EVCR_PIN_PX10  /*!< EVENTOUT on pin 10 */
 200:Drivers/STM32F1xx_HAL_Driver/Inc/stm32f1xx_ll_gpio.h **** #define LL_GPIO_AF_EVENTOUT_PIN_11       AFIO_EVCR_PIN_PX11  /*!< EVENTOUT on pin 11 */
 201:Drivers/STM32F1xx_HAL_Driver/Inc/stm32f1xx_ll_gpio.h **** #define LL_GPIO_AF_EVENTOUT_PIN_12       AFIO_EVCR_PIN_PX12  /*!< EVENTOUT on pin 12 */
 202:Drivers/STM32F1xx_HAL_Driver/Inc/stm32f1xx_ll_gpio.h **** #define LL_GPIO_AF_EVENTOUT_PIN_13       AFIO_EVCR_PIN_PX13  /*!< EVENTOUT on pin 13 */
 203:Drivers/STM32F1xx_HAL_Driver/Inc/stm32f1xx_ll_gpio.h **** #define LL_GPIO_AF_EVENTOUT_PIN_14       AFIO_EVCR_PIN_PX14  /*!< EVENTOUT on pin 14 */
 204:Drivers/STM32F1xx_HAL_Driver/Inc/stm32f1xx_ll_gpio.h **** #define LL_GPIO_AF_EVENTOUT_PIN_15       AFIO_EVCR_PIN_PX15  /*!< EVENTOUT on pin 15 */
 205:Drivers/STM32F1xx_HAL_Driver/Inc/stm32f1xx_ll_gpio.h **** 
 206:Drivers/STM32F1xx_HAL_Driver/Inc/stm32f1xx_ll_gpio.h **** /**
 207:Drivers/STM32F1xx_HAL_Driver/Inc/stm32f1xx_ll_gpio.h ****   * @}
 208:Drivers/STM32F1xx_HAL_Driver/Inc/stm32f1xx_ll_gpio.h ****   */
 209:Drivers/STM32F1xx_HAL_Driver/Inc/stm32f1xx_ll_gpio.h **** 
 210:Drivers/STM32F1xx_HAL_Driver/Inc/stm32f1xx_ll_gpio.h **** /** @defgroup GPIO_LL_EVENTOUT_PORT EVENTOUT Port
 211:Drivers/STM32F1xx_HAL_Driver/Inc/stm32f1xx_ll_gpio.h ****   * @{
 212:Drivers/STM32F1xx_HAL_Driver/Inc/stm32f1xx_ll_gpio.h ****   */
 213:Drivers/STM32F1xx_HAL_Driver/Inc/stm32f1xx_ll_gpio.h **** 
 214:Drivers/STM32F1xx_HAL_Driver/Inc/stm32f1xx_ll_gpio.h **** #define LL_GPIO_AF_EVENTOUT_PORT_A       AFIO_EVCR_PORT_PA  /*!< EVENTOUT on port A */
 215:Drivers/STM32F1xx_HAL_Driver/Inc/stm32f1xx_ll_gpio.h **** #define LL_GPIO_AF_EVENTOUT_PORT_B       AFIO_EVCR_PORT_PB  /*!< EVENTOUT on port B */
 216:Drivers/STM32F1xx_HAL_Driver/Inc/stm32f1xx_ll_gpio.h **** #define LL_GPIO_AF_EVENTOUT_PORT_C       AFIO_EVCR_PORT_PC  /*!< EVENTOUT on port C */
 217:Drivers/STM32F1xx_HAL_Driver/Inc/stm32f1xx_ll_gpio.h **** #define LL_GPIO_AF_EVENTOUT_PORT_D       AFIO_EVCR_PORT_PD  /*!< EVENTOUT on port D */
 218:Drivers/STM32F1xx_HAL_Driver/Inc/stm32f1xx_ll_gpio.h **** #define LL_GPIO_AF_EVENTOUT_PORT_E       AFIO_EVCR_PORT_PE  /*!< EVENTOUT on port E */
 219:Drivers/STM32F1xx_HAL_Driver/Inc/stm32f1xx_ll_gpio.h **** 
 220:Drivers/STM32F1xx_HAL_Driver/Inc/stm32f1xx_ll_gpio.h **** /**
 221:Drivers/STM32F1xx_HAL_Driver/Inc/stm32f1xx_ll_gpio.h ****   * @}
 222:Drivers/STM32F1xx_HAL_Driver/Inc/stm32f1xx_ll_gpio.h ****   */
 223:Drivers/STM32F1xx_HAL_Driver/Inc/stm32f1xx_ll_gpio.h **** 
 224:Drivers/STM32F1xx_HAL_Driver/Inc/stm32f1xx_ll_gpio.h **** /** @defgroup GPIO_LL_EC_EXTI_PORT GPIO EXTI PORT
 225:Drivers/STM32F1xx_HAL_Driver/Inc/stm32f1xx_ll_gpio.h ****   * @{
 226:Drivers/STM32F1xx_HAL_Driver/Inc/stm32f1xx_ll_gpio.h ****   */
 227:Drivers/STM32F1xx_HAL_Driver/Inc/stm32f1xx_ll_gpio.h **** #define LL_GPIO_AF_EXTI_PORTA            0U   /*!< EXTI PORT A */
 228:Drivers/STM32F1xx_HAL_Driver/Inc/stm32f1xx_ll_gpio.h **** #define LL_GPIO_AF_EXTI_PORTB            1U   /*!< EXTI PORT B */
 229:Drivers/STM32F1xx_HAL_Driver/Inc/stm32f1xx_ll_gpio.h **** #define LL_GPIO_AF_EXTI_PORTC            2U   /*!< EXTI PORT C */
 230:Drivers/STM32F1xx_HAL_Driver/Inc/stm32f1xx_ll_gpio.h **** #define LL_GPIO_AF_EXTI_PORTD            3U   /*!< EXTI PORT D */
 231:Drivers/STM32F1xx_HAL_Driver/Inc/stm32f1xx_ll_gpio.h **** #define LL_GPIO_AF_EXTI_PORTE            4U   /*!< EXTI PORT E */
 232:Drivers/STM32F1xx_HAL_Driver/Inc/stm32f1xx_ll_gpio.h **** #define LL_GPIO_AF_EXTI_PORTF            5U   /*!< EXTI PORT F */
 233:Drivers/STM32F1xx_HAL_Driver/Inc/stm32f1xx_ll_gpio.h **** #define LL_GPIO_AF_EXTI_PORTG            6U   /*!< EXTI PORT G */
 234:Drivers/STM32F1xx_HAL_Driver/Inc/stm32f1xx_ll_gpio.h **** /**
 235:Drivers/STM32F1xx_HAL_Driver/Inc/stm32f1xx_ll_gpio.h ****   * @}
 236:Drivers/STM32F1xx_HAL_Driver/Inc/stm32f1xx_ll_gpio.h ****   */
 237:Drivers/STM32F1xx_HAL_Driver/Inc/stm32f1xx_ll_gpio.h **** 
 238:Drivers/STM32F1xx_HAL_Driver/Inc/stm32f1xx_ll_gpio.h **** /** @defgroup GPIO_LL_EC_EXTI_LINE GPIO EXTI LINE
 239:Drivers/STM32F1xx_HAL_Driver/Inc/stm32f1xx_ll_gpio.h ****   * @{
 240:Drivers/STM32F1xx_HAL_Driver/Inc/stm32f1xx_ll_gpio.h ****   */
 241:Drivers/STM32F1xx_HAL_Driver/Inc/stm32f1xx_ll_gpio.h **** #define LL_GPIO_AF_EXTI_LINE0            (0x000FU << 16U | 0U)  /*!< EXTI_POSITION_0  | EXTICR[0] *
 242:Drivers/STM32F1xx_HAL_Driver/Inc/stm32f1xx_ll_gpio.h **** #define LL_GPIO_AF_EXTI_LINE1            (0x00F0U << 16U | 0U)  /*!< EXTI_POSITION_4  | EXTICR[0] *
 243:Drivers/STM32F1xx_HAL_Driver/Inc/stm32f1xx_ll_gpio.h **** #define LL_GPIO_AF_EXTI_LINE2            (0x0F00U << 16U | 0U)  /*!< EXTI_POSITION_8  | EXTICR[0] *
 244:Drivers/STM32F1xx_HAL_Driver/Inc/stm32f1xx_ll_gpio.h **** #define LL_GPIO_AF_EXTI_LINE3            (0xF000U << 16U | 0U)  /*!< EXTI_POSITION_12 | EXTICR[0] *
 245:Drivers/STM32F1xx_HAL_Driver/Inc/stm32f1xx_ll_gpio.h **** #define LL_GPIO_AF_EXTI_LINE4            (0x000FU << 16U | 1U)  /*!< EXTI_POSITION_0  | EXTICR[1] *
 246:Drivers/STM32F1xx_HAL_Driver/Inc/stm32f1xx_ll_gpio.h **** #define LL_GPIO_AF_EXTI_LINE5            (0x00F0U << 16U | 1U)  /*!< EXTI_POSITION_4  | EXTICR[1] *
 247:Drivers/STM32F1xx_HAL_Driver/Inc/stm32f1xx_ll_gpio.h **** #define LL_GPIO_AF_EXTI_LINE6            (0x0F00U << 16U | 1U)  /*!< EXTI_POSITION_8  | EXTICR[1] *
 248:Drivers/STM32F1xx_HAL_Driver/Inc/stm32f1xx_ll_gpio.h **** #define LL_GPIO_AF_EXTI_LINE7            (0xF000U << 16U | 1U)  /*!< EXTI_POSITION_12 | EXTICR[1] *
 249:Drivers/STM32F1xx_HAL_Driver/Inc/stm32f1xx_ll_gpio.h **** #define LL_GPIO_AF_EXTI_LINE8            (0x000FU << 16U | 2U)  /*!< EXTI_POSITION_0  | EXTICR[2] *
 250:Drivers/STM32F1xx_HAL_Driver/Inc/stm32f1xx_ll_gpio.h **** #define LL_GPIO_AF_EXTI_LINE9            (0x00F0U << 16U | 2U)  /*!< EXTI_POSITION_4  | EXTICR[2] *
ARM GAS  C:\Users\VIDCOM~1\AppData\Local\Temp\cc4j4Ttx.s 			page 21


 251:Drivers/STM32F1xx_HAL_Driver/Inc/stm32f1xx_ll_gpio.h **** #define LL_GPIO_AF_EXTI_LINE10           (0x0F00U << 16U | 2U)  /*!< EXTI_POSITION_8  | EXTICR[2] *
 252:Drivers/STM32F1xx_HAL_Driver/Inc/stm32f1xx_ll_gpio.h **** #define LL_GPIO_AF_EXTI_LINE11           (0xF000U << 16U | 2U)  /*!< EXTI_POSITION_12 | EXTICR[2] *
 253:Drivers/STM32F1xx_HAL_Driver/Inc/stm32f1xx_ll_gpio.h **** #define LL_GPIO_AF_EXTI_LINE12           (0x000FU << 16U | 3U)  /*!< EXTI_POSITION_0  | EXTICR[3] *
 254:Drivers/STM32F1xx_HAL_Driver/Inc/stm32f1xx_ll_gpio.h **** #define LL_GPIO_AF_EXTI_LINE13           (0x00F0U << 16U | 3U)  /*!< EXTI_POSITION_4  | EXTICR[3] *
 255:Drivers/STM32F1xx_HAL_Driver/Inc/stm32f1xx_ll_gpio.h **** #define LL_GPIO_AF_EXTI_LINE14           (0x0F00U << 16U | 3U)  /*!< EXTI_POSITION_8  | EXTICR[3] *
 256:Drivers/STM32F1xx_HAL_Driver/Inc/stm32f1xx_ll_gpio.h **** #define LL_GPIO_AF_EXTI_LINE15           (0xF000U << 16U | 3U)  /*!< EXTI_POSITION_12 | EXTICR[3] *
 257:Drivers/STM32F1xx_HAL_Driver/Inc/stm32f1xx_ll_gpio.h **** /**
 258:Drivers/STM32F1xx_HAL_Driver/Inc/stm32f1xx_ll_gpio.h ****   * @}
 259:Drivers/STM32F1xx_HAL_Driver/Inc/stm32f1xx_ll_gpio.h ****   */
 260:Drivers/STM32F1xx_HAL_Driver/Inc/stm32f1xx_ll_gpio.h **** 
 261:Drivers/STM32F1xx_HAL_Driver/Inc/stm32f1xx_ll_gpio.h **** /**
 262:Drivers/STM32F1xx_HAL_Driver/Inc/stm32f1xx_ll_gpio.h ****   * @}
 263:Drivers/STM32F1xx_HAL_Driver/Inc/stm32f1xx_ll_gpio.h ****   */
 264:Drivers/STM32F1xx_HAL_Driver/Inc/stm32f1xx_ll_gpio.h **** 
 265:Drivers/STM32F1xx_HAL_Driver/Inc/stm32f1xx_ll_gpio.h **** /* Exported macro ------------------------------------------------------------*/
 266:Drivers/STM32F1xx_HAL_Driver/Inc/stm32f1xx_ll_gpio.h **** /** @defgroup GPIO_LL_Exported_Macros GPIO Exported Macros
 267:Drivers/STM32F1xx_HAL_Driver/Inc/stm32f1xx_ll_gpio.h ****   * @{
 268:Drivers/STM32F1xx_HAL_Driver/Inc/stm32f1xx_ll_gpio.h ****   */
 269:Drivers/STM32F1xx_HAL_Driver/Inc/stm32f1xx_ll_gpio.h **** 
 270:Drivers/STM32F1xx_HAL_Driver/Inc/stm32f1xx_ll_gpio.h **** /** @defgroup GPIO_LL_EM_WRITE_READ Common Write and read registers Macros
 271:Drivers/STM32F1xx_HAL_Driver/Inc/stm32f1xx_ll_gpio.h ****   * @{
 272:Drivers/STM32F1xx_HAL_Driver/Inc/stm32f1xx_ll_gpio.h ****   */
 273:Drivers/STM32F1xx_HAL_Driver/Inc/stm32f1xx_ll_gpio.h **** 
 274:Drivers/STM32F1xx_HAL_Driver/Inc/stm32f1xx_ll_gpio.h **** /**
 275:Drivers/STM32F1xx_HAL_Driver/Inc/stm32f1xx_ll_gpio.h ****   * @brief  Write a value in GPIO register
 276:Drivers/STM32F1xx_HAL_Driver/Inc/stm32f1xx_ll_gpio.h ****   * @param  __INSTANCE__ GPIO Instance
 277:Drivers/STM32F1xx_HAL_Driver/Inc/stm32f1xx_ll_gpio.h ****   * @param  __REG__ Register to be written
 278:Drivers/STM32F1xx_HAL_Driver/Inc/stm32f1xx_ll_gpio.h ****   * @param  __VALUE__ Value to be written in the register
 279:Drivers/STM32F1xx_HAL_Driver/Inc/stm32f1xx_ll_gpio.h ****   * @retval None
 280:Drivers/STM32F1xx_HAL_Driver/Inc/stm32f1xx_ll_gpio.h ****   */
 281:Drivers/STM32F1xx_HAL_Driver/Inc/stm32f1xx_ll_gpio.h **** #define LL_GPIO_WriteReg(__INSTANCE__, __REG__, __VALUE__) WRITE_REG(__INSTANCE__->__REG__, (__VALU
 282:Drivers/STM32F1xx_HAL_Driver/Inc/stm32f1xx_ll_gpio.h **** 
 283:Drivers/STM32F1xx_HAL_Driver/Inc/stm32f1xx_ll_gpio.h **** /**
 284:Drivers/STM32F1xx_HAL_Driver/Inc/stm32f1xx_ll_gpio.h ****   * @brief  Read a value in GPIO register
 285:Drivers/STM32F1xx_HAL_Driver/Inc/stm32f1xx_ll_gpio.h ****   * @param  __INSTANCE__ GPIO Instance
 286:Drivers/STM32F1xx_HAL_Driver/Inc/stm32f1xx_ll_gpio.h ****   * @param  __REG__ Register to be read
 287:Drivers/STM32F1xx_HAL_Driver/Inc/stm32f1xx_ll_gpio.h ****   * @retval Register value
 288:Drivers/STM32F1xx_HAL_Driver/Inc/stm32f1xx_ll_gpio.h ****   */
 289:Drivers/STM32F1xx_HAL_Driver/Inc/stm32f1xx_ll_gpio.h **** #define LL_GPIO_ReadReg(__INSTANCE__, __REG__) READ_REG(__INSTANCE__->__REG__)
 290:Drivers/STM32F1xx_HAL_Driver/Inc/stm32f1xx_ll_gpio.h **** /**
 291:Drivers/STM32F1xx_HAL_Driver/Inc/stm32f1xx_ll_gpio.h ****   * @}
 292:Drivers/STM32F1xx_HAL_Driver/Inc/stm32f1xx_ll_gpio.h ****   */
 293:Drivers/STM32F1xx_HAL_Driver/Inc/stm32f1xx_ll_gpio.h **** 
 294:Drivers/STM32F1xx_HAL_Driver/Inc/stm32f1xx_ll_gpio.h **** /**
 295:Drivers/STM32F1xx_HAL_Driver/Inc/stm32f1xx_ll_gpio.h ****   * @}
 296:Drivers/STM32F1xx_HAL_Driver/Inc/stm32f1xx_ll_gpio.h ****   */
 297:Drivers/STM32F1xx_HAL_Driver/Inc/stm32f1xx_ll_gpio.h **** 
 298:Drivers/STM32F1xx_HAL_Driver/Inc/stm32f1xx_ll_gpio.h **** /* Exported functions --------------------------------------------------------*/
 299:Drivers/STM32F1xx_HAL_Driver/Inc/stm32f1xx_ll_gpio.h **** /** @defgroup GPIO_LL_Exported_Functions GPIO Exported Functions
 300:Drivers/STM32F1xx_HAL_Driver/Inc/stm32f1xx_ll_gpio.h ****   * @{
 301:Drivers/STM32F1xx_HAL_Driver/Inc/stm32f1xx_ll_gpio.h ****   */
 302:Drivers/STM32F1xx_HAL_Driver/Inc/stm32f1xx_ll_gpio.h **** 
 303:Drivers/STM32F1xx_HAL_Driver/Inc/stm32f1xx_ll_gpio.h **** /** @defgroup GPIO_LL_EF_Port_Configuration Port Configuration
 304:Drivers/STM32F1xx_HAL_Driver/Inc/stm32f1xx_ll_gpio.h ****   * @{
 305:Drivers/STM32F1xx_HAL_Driver/Inc/stm32f1xx_ll_gpio.h ****   */
 306:Drivers/STM32F1xx_HAL_Driver/Inc/stm32f1xx_ll_gpio.h **** 
 307:Drivers/STM32F1xx_HAL_Driver/Inc/stm32f1xx_ll_gpio.h **** /**
ARM GAS  C:\Users\VIDCOM~1\AppData\Local\Temp\cc4j4Ttx.s 			page 22


 308:Drivers/STM32F1xx_HAL_Driver/Inc/stm32f1xx_ll_gpio.h ****   * @brief  Configure gpio mode for a dedicated pin on dedicated port.
 309:Drivers/STM32F1xx_HAL_Driver/Inc/stm32f1xx_ll_gpio.h ****   * @note   I/O mode can be Analog, Floating input, Input with pull-up/pull-down, General purpose O
 310:Drivers/STM32F1xx_HAL_Driver/Inc/stm32f1xx_ll_gpio.h ****   *         Alternate function Output.
 311:Drivers/STM32F1xx_HAL_Driver/Inc/stm32f1xx_ll_gpio.h ****   * @note   Warning: only one pin can be passed as parameter.
 312:Drivers/STM32F1xx_HAL_Driver/Inc/stm32f1xx_ll_gpio.h ****   * @rmtoll CRL        CNFy         LL_GPIO_SetPinMode
 313:Drivers/STM32F1xx_HAL_Driver/Inc/stm32f1xx_ll_gpio.h ****   * @rmtoll CRL        MODEy        LL_GPIO_SetPinMode
 314:Drivers/STM32F1xx_HAL_Driver/Inc/stm32f1xx_ll_gpio.h ****   * @rmtoll CRH        CNFy         LL_GPIO_SetPinMode
 315:Drivers/STM32F1xx_HAL_Driver/Inc/stm32f1xx_ll_gpio.h ****   * @rmtoll CRH        MODEy        LL_GPIO_SetPinMode
 316:Drivers/STM32F1xx_HAL_Driver/Inc/stm32f1xx_ll_gpio.h ****   * @param  GPIOx GPIO Port
 317:Drivers/STM32F1xx_HAL_Driver/Inc/stm32f1xx_ll_gpio.h ****   * @param  Pin This parameter can be one of the following values:
 318:Drivers/STM32F1xx_HAL_Driver/Inc/stm32f1xx_ll_gpio.h ****   *         @arg @ref LL_GPIO_PIN_0
 319:Drivers/STM32F1xx_HAL_Driver/Inc/stm32f1xx_ll_gpio.h ****   *         @arg @ref LL_GPIO_PIN_1
 320:Drivers/STM32F1xx_HAL_Driver/Inc/stm32f1xx_ll_gpio.h ****   *         @arg @ref LL_GPIO_PIN_2
 321:Drivers/STM32F1xx_HAL_Driver/Inc/stm32f1xx_ll_gpio.h ****   *         @arg @ref LL_GPIO_PIN_3
 322:Drivers/STM32F1xx_HAL_Driver/Inc/stm32f1xx_ll_gpio.h ****   *         @arg @ref LL_GPIO_PIN_4
 323:Drivers/STM32F1xx_HAL_Driver/Inc/stm32f1xx_ll_gpio.h ****   *         @arg @ref LL_GPIO_PIN_5
 324:Drivers/STM32F1xx_HAL_Driver/Inc/stm32f1xx_ll_gpio.h ****   *         @arg @ref LL_GPIO_PIN_6
 325:Drivers/STM32F1xx_HAL_Driver/Inc/stm32f1xx_ll_gpio.h ****   *         @arg @ref LL_GPIO_PIN_7
 326:Drivers/STM32F1xx_HAL_Driver/Inc/stm32f1xx_ll_gpio.h ****   *         @arg @ref LL_GPIO_PIN_8
 327:Drivers/STM32F1xx_HAL_Driver/Inc/stm32f1xx_ll_gpio.h ****   *         @arg @ref LL_GPIO_PIN_9
 328:Drivers/STM32F1xx_HAL_Driver/Inc/stm32f1xx_ll_gpio.h ****   *         @arg @ref LL_GPIO_PIN_10
 329:Drivers/STM32F1xx_HAL_Driver/Inc/stm32f1xx_ll_gpio.h ****   *         @arg @ref LL_GPIO_PIN_11
 330:Drivers/STM32F1xx_HAL_Driver/Inc/stm32f1xx_ll_gpio.h ****   *         @arg @ref LL_GPIO_PIN_12
 331:Drivers/STM32F1xx_HAL_Driver/Inc/stm32f1xx_ll_gpio.h ****   *         @arg @ref LL_GPIO_PIN_13
 332:Drivers/STM32F1xx_HAL_Driver/Inc/stm32f1xx_ll_gpio.h ****   *         @arg @ref LL_GPIO_PIN_14
 333:Drivers/STM32F1xx_HAL_Driver/Inc/stm32f1xx_ll_gpio.h ****   *         @arg @ref LL_GPIO_PIN_15
 334:Drivers/STM32F1xx_HAL_Driver/Inc/stm32f1xx_ll_gpio.h ****   * @param  Mode This parameter can be one of the following values:
 335:Drivers/STM32F1xx_HAL_Driver/Inc/stm32f1xx_ll_gpio.h ****   *         @arg @ref LL_GPIO_MODE_ANALOG
 336:Drivers/STM32F1xx_HAL_Driver/Inc/stm32f1xx_ll_gpio.h ****   *         @arg @ref LL_GPIO_MODE_FLOATING
 337:Drivers/STM32F1xx_HAL_Driver/Inc/stm32f1xx_ll_gpio.h ****   *         @arg @ref LL_GPIO_MODE_INPUT
 338:Drivers/STM32F1xx_HAL_Driver/Inc/stm32f1xx_ll_gpio.h ****   *         @arg @ref LL_GPIO_MODE_OUTPUT
 339:Drivers/STM32F1xx_HAL_Driver/Inc/stm32f1xx_ll_gpio.h ****   *         @arg @ref LL_GPIO_MODE_ALTERNATE
 340:Drivers/STM32F1xx_HAL_Driver/Inc/stm32f1xx_ll_gpio.h ****   * @retval None
 341:Drivers/STM32F1xx_HAL_Driver/Inc/stm32f1xx_ll_gpio.h ****   */
 342:Drivers/STM32F1xx_HAL_Driver/Inc/stm32f1xx_ll_gpio.h **** __STATIC_INLINE void LL_GPIO_SetPinMode(GPIO_TypeDef *GPIOx, uint32_t Pin, uint32_t Mode)
 343:Drivers/STM32F1xx_HAL_Driver/Inc/stm32f1xx_ll_gpio.h **** {
 344:Drivers/STM32F1xx_HAL_Driver/Inc/stm32f1xx_ll_gpio.h ****   register uint32_t *pReg = (uint32_t *)((uint32_t)((uint32_t)(&GPIOx->CRL) + (Pin >> 24)));
 345:Drivers/STM32F1xx_HAL_Driver/Inc/stm32f1xx_ll_gpio.h ****   MODIFY_REG(*pReg, ((GPIO_CRL_CNF0 | GPIO_CRL_MODE0) << (POSITION_VAL(Pin) * 4U)), (Mode << (POSIT
 346:Drivers/STM32F1xx_HAL_Driver/Inc/stm32f1xx_ll_gpio.h **** }
 347:Drivers/STM32F1xx_HAL_Driver/Inc/stm32f1xx_ll_gpio.h **** 
 348:Drivers/STM32F1xx_HAL_Driver/Inc/stm32f1xx_ll_gpio.h **** /**
 349:Drivers/STM32F1xx_HAL_Driver/Inc/stm32f1xx_ll_gpio.h ****   * @brief  Return gpio mode for a dedicated pin on dedicated port.
 350:Drivers/STM32F1xx_HAL_Driver/Inc/stm32f1xx_ll_gpio.h ****   * @note   I/O mode can be Analog, Floating input, Input with pull-up/pull-down, General purpose O
 351:Drivers/STM32F1xx_HAL_Driver/Inc/stm32f1xx_ll_gpio.h ****   *         Alternate function Output.
 352:Drivers/STM32F1xx_HAL_Driver/Inc/stm32f1xx_ll_gpio.h ****   * @note   Warning: only one pin can be passed as parameter.
 353:Drivers/STM32F1xx_HAL_Driver/Inc/stm32f1xx_ll_gpio.h ****   * @rmtoll CRL        CNFy         LL_GPIO_GetPinMode
 354:Drivers/STM32F1xx_HAL_Driver/Inc/stm32f1xx_ll_gpio.h ****   * @rmtoll CRL        MODEy        LL_GPIO_GetPinMode
 355:Drivers/STM32F1xx_HAL_Driver/Inc/stm32f1xx_ll_gpio.h ****   * @rmtoll CRH        CNFy         LL_GPIO_GetPinMode
 356:Drivers/STM32F1xx_HAL_Driver/Inc/stm32f1xx_ll_gpio.h ****   * @rmtoll CRH        MODEy        LL_GPIO_GetPinMode
 357:Drivers/STM32F1xx_HAL_Driver/Inc/stm32f1xx_ll_gpio.h ****   * @param  GPIOx GPIO Port
 358:Drivers/STM32F1xx_HAL_Driver/Inc/stm32f1xx_ll_gpio.h ****   * @param  Pin This parameter can be one of the following values:
 359:Drivers/STM32F1xx_HAL_Driver/Inc/stm32f1xx_ll_gpio.h ****   *         @arg @ref LL_GPIO_PIN_0
 360:Drivers/STM32F1xx_HAL_Driver/Inc/stm32f1xx_ll_gpio.h ****   *         @arg @ref LL_GPIO_PIN_1
 361:Drivers/STM32F1xx_HAL_Driver/Inc/stm32f1xx_ll_gpio.h ****   *         @arg @ref LL_GPIO_PIN_2
 362:Drivers/STM32F1xx_HAL_Driver/Inc/stm32f1xx_ll_gpio.h ****   *         @arg @ref LL_GPIO_PIN_3
 363:Drivers/STM32F1xx_HAL_Driver/Inc/stm32f1xx_ll_gpio.h ****   *         @arg @ref LL_GPIO_PIN_4
 364:Drivers/STM32F1xx_HAL_Driver/Inc/stm32f1xx_ll_gpio.h ****   *         @arg @ref LL_GPIO_PIN_5
ARM GAS  C:\Users\VIDCOM~1\AppData\Local\Temp\cc4j4Ttx.s 			page 23


 365:Drivers/STM32F1xx_HAL_Driver/Inc/stm32f1xx_ll_gpio.h ****   *         @arg @ref LL_GPIO_PIN_6
 366:Drivers/STM32F1xx_HAL_Driver/Inc/stm32f1xx_ll_gpio.h ****   *         @arg @ref LL_GPIO_PIN_7
 367:Drivers/STM32F1xx_HAL_Driver/Inc/stm32f1xx_ll_gpio.h ****   *         @arg @ref LL_GPIO_PIN_8
 368:Drivers/STM32F1xx_HAL_Driver/Inc/stm32f1xx_ll_gpio.h ****   *         @arg @ref LL_GPIO_PIN_9
 369:Drivers/STM32F1xx_HAL_Driver/Inc/stm32f1xx_ll_gpio.h ****   *         @arg @ref LL_GPIO_PIN_10
 370:Drivers/STM32F1xx_HAL_Driver/Inc/stm32f1xx_ll_gpio.h ****   *         @arg @ref LL_GPIO_PIN_11
 371:Drivers/STM32F1xx_HAL_Driver/Inc/stm32f1xx_ll_gpio.h ****   *         @arg @ref LL_GPIO_PIN_12
 372:Drivers/STM32F1xx_HAL_Driver/Inc/stm32f1xx_ll_gpio.h ****   *         @arg @ref LL_GPIO_PIN_13
 373:Drivers/STM32F1xx_HAL_Driver/Inc/stm32f1xx_ll_gpio.h ****   *         @arg @ref LL_GPIO_PIN_14
 374:Drivers/STM32F1xx_HAL_Driver/Inc/stm32f1xx_ll_gpio.h ****   *         @arg @ref LL_GPIO_PIN_15
 375:Drivers/STM32F1xx_HAL_Driver/Inc/stm32f1xx_ll_gpio.h ****   * @retval Returned value can be one of the following values:
 376:Drivers/STM32F1xx_HAL_Driver/Inc/stm32f1xx_ll_gpio.h ****   *         @arg @ref LL_GPIO_MODE_ANALOG
 377:Drivers/STM32F1xx_HAL_Driver/Inc/stm32f1xx_ll_gpio.h ****   *         @arg @ref LL_GPIO_MODE_FLOATING
 378:Drivers/STM32F1xx_HAL_Driver/Inc/stm32f1xx_ll_gpio.h ****   *         @arg @ref LL_GPIO_MODE_INPUT
 379:Drivers/STM32F1xx_HAL_Driver/Inc/stm32f1xx_ll_gpio.h ****   *         @arg @ref LL_GPIO_MODE_OUTPUT
 380:Drivers/STM32F1xx_HAL_Driver/Inc/stm32f1xx_ll_gpio.h ****   *         @arg @ref LL_GPIO_MODE_ALTERNATE
 381:Drivers/STM32F1xx_HAL_Driver/Inc/stm32f1xx_ll_gpio.h ****   */
 382:Drivers/STM32F1xx_HAL_Driver/Inc/stm32f1xx_ll_gpio.h **** __STATIC_INLINE uint32_t LL_GPIO_GetPinMode(GPIO_TypeDef *GPIOx, uint32_t Pin)
 383:Drivers/STM32F1xx_HAL_Driver/Inc/stm32f1xx_ll_gpio.h **** {
 384:Drivers/STM32F1xx_HAL_Driver/Inc/stm32f1xx_ll_gpio.h ****   register uint32_t *pReg = (uint32_t *)((uint32_t)((uint32_t)(&GPIOx->CRL) + (Pin >> 24)));
 385:Drivers/STM32F1xx_HAL_Driver/Inc/stm32f1xx_ll_gpio.h ****   return (READ_BIT(*pReg, ((GPIO_CRL_CNF0 | GPIO_CRL_MODE0) << (POSITION_VAL(Pin) * 4U))) >> (POSIT
 386:Drivers/STM32F1xx_HAL_Driver/Inc/stm32f1xx_ll_gpio.h **** }
 387:Drivers/STM32F1xx_HAL_Driver/Inc/stm32f1xx_ll_gpio.h **** 
 388:Drivers/STM32F1xx_HAL_Driver/Inc/stm32f1xx_ll_gpio.h **** /**
 389:Drivers/STM32F1xx_HAL_Driver/Inc/stm32f1xx_ll_gpio.h ****   * @brief  Configure gpio speed for a dedicated pin on dedicated port.
 390:Drivers/STM32F1xx_HAL_Driver/Inc/stm32f1xx_ll_gpio.h ****   * @note   I/O speed can be Low, Medium or Fast speed.
 391:Drivers/STM32F1xx_HAL_Driver/Inc/stm32f1xx_ll_gpio.h ****   * @note   Warning: only one pin can be passed as parameter.
 392:Drivers/STM32F1xx_HAL_Driver/Inc/stm32f1xx_ll_gpio.h ****   * @note   Refer to datasheet for frequency specifications and the power
 393:Drivers/STM32F1xx_HAL_Driver/Inc/stm32f1xx_ll_gpio.h ****   *         supply and load conditions for each speed.
 394:Drivers/STM32F1xx_HAL_Driver/Inc/stm32f1xx_ll_gpio.h ****   * @rmtoll CRL      MODEy       LL_GPIO_SetPinSpeed
 395:Drivers/STM32F1xx_HAL_Driver/Inc/stm32f1xx_ll_gpio.h ****   * @rmtoll CRH      MODEy       LL_GPIO_SetPinSpeed
 396:Drivers/STM32F1xx_HAL_Driver/Inc/stm32f1xx_ll_gpio.h ****   * @param  GPIOx GPIO Port
 397:Drivers/STM32F1xx_HAL_Driver/Inc/stm32f1xx_ll_gpio.h ****   * @param  Pin This parameter can be one of the following values:
 398:Drivers/STM32F1xx_HAL_Driver/Inc/stm32f1xx_ll_gpio.h ****   *         @arg @ref LL_GPIO_PIN_0
 399:Drivers/STM32F1xx_HAL_Driver/Inc/stm32f1xx_ll_gpio.h ****   *         @arg @ref LL_GPIO_PIN_1
 400:Drivers/STM32F1xx_HAL_Driver/Inc/stm32f1xx_ll_gpio.h ****   *         @arg @ref LL_GPIO_PIN_2
 401:Drivers/STM32F1xx_HAL_Driver/Inc/stm32f1xx_ll_gpio.h ****   *         @arg @ref LL_GPIO_PIN_3
 402:Drivers/STM32F1xx_HAL_Driver/Inc/stm32f1xx_ll_gpio.h ****   *         @arg @ref LL_GPIO_PIN_4
 403:Drivers/STM32F1xx_HAL_Driver/Inc/stm32f1xx_ll_gpio.h ****   *         @arg @ref LL_GPIO_PIN_5
 404:Drivers/STM32F1xx_HAL_Driver/Inc/stm32f1xx_ll_gpio.h ****   *         @arg @ref LL_GPIO_PIN_6
 405:Drivers/STM32F1xx_HAL_Driver/Inc/stm32f1xx_ll_gpio.h ****   *         @arg @ref LL_GPIO_PIN_7
 406:Drivers/STM32F1xx_HAL_Driver/Inc/stm32f1xx_ll_gpio.h ****   *         @arg @ref LL_GPIO_PIN_8
 407:Drivers/STM32F1xx_HAL_Driver/Inc/stm32f1xx_ll_gpio.h ****   *         @arg @ref LL_GPIO_PIN_9
 408:Drivers/STM32F1xx_HAL_Driver/Inc/stm32f1xx_ll_gpio.h ****   *         @arg @ref LL_GPIO_PIN_10
 409:Drivers/STM32F1xx_HAL_Driver/Inc/stm32f1xx_ll_gpio.h ****   *         @arg @ref LL_GPIO_PIN_11
 410:Drivers/STM32F1xx_HAL_Driver/Inc/stm32f1xx_ll_gpio.h ****   *         @arg @ref LL_GPIO_PIN_12
 411:Drivers/STM32F1xx_HAL_Driver/Inc/stm32f1xx_ll_gpio.h ****   *         @arg @ref LL_GPIO_PIN_13
 412:Drivers/STM32F1xx_HAL_Driver/Inc/stm32f1xx_ll_gpio.h ****   *         @arg @ref LL_GPIO_PIN_14
 413:Drivers/STM32F1xx_HAL_Driver/Inc/stm32f1xx_ll_gpio.h ****   *         @arg @ref LL_GPIO_PIN_15
 414:Drivers/STM32F1xx_HAL_Driver/Inc/stm32f1xx_ll_gpio.h ****   * @param  Speed This parameter can be one of the following values:
 415:Drivers/STM32F1xx_HAL_Driver/Inc/stm32f1xx_ll_gpio.h ****   *         @arg @ref LL_GPIO_SPEED_FREQ_LOW
 416:Drivers/STM32F1xx_HAL_Driver/Inc/stm32f1xx_ll_gpio.h ****   *         @arg @ref LL_GPIO_SPEED_FREQ_MEDIUM
 417:Drivers/STM32F1xx_HAL_Driver/Inc/stm32f1xx_ll_gpio.h ****   *         @arg @ref LL_GPIO_SPEED_FREQ_HIGH
 418:Drivers/STM32F1xx_HAL_Driver/Inc/stm32f1xx_ll_gpio.h ****   * @retval None
 419:Drivers/STM32F1xx_HAL_Driver/Inc/stm32f1xx_ll_gpio.h ****   */
 420:Drivers/STM32F1xx_HAL_Driver/Inc/stm32f1xx_ll_gpio.h **** __STATIC_INLINE void LL_GPIO_SetPinSpeed(GPIO_TypeDef *GPIOx, uint32_t Pin, uint32_t  Speed)
 421:Drivers/STM32F1xx_HAL_Driver/Inc/stm32f1xx_ll_gpio.h **** {
ARM GAS  C:\Users\VIDCOM~1\AppData\Local\Temp\cc4j4Ttx.s 			page 24


 422:Drivers/STM32F1xx_HAL_Driver/Inc/stm32f1xx_ll_gpio.h ****   register uint32_t *pReg = (uint32_t *)((uint32_t)((uint32_t)(&GPIOx->CRL) + (Pin >> 24)));
 423:Drivers/STM32F1xx_HAL_Driver/Inc/stm32f1xx_ll_gpio.h ****   MODIFY_REG(*pReg, (GPIO_CRL_MODE0 << (POSITION_VAL(Pin) * 4U)),
 424:Drivers/STM32F1xx_HAL_Driver/Inc/stm32f1xx_ll_gpio.h ****              (Speed << (POSITION_VAL(Pin) * 4U)));
 425:Drivers/STM32F1xx_HAL_Driver/Inc/stm32f1xx_ll_gpio.h **** }
 426:Drivers/STM32F1xx_HAL_Driver/Inc/stm32f1xx_ll_gpio.h **** 
 427:Drivers/STM32F1xx_HAL_Driver/Inc/stm32f1xx_ll_gpio.h **** /**
 428:Drivers/STM32F1xx_HAL_Driver/Inc/stm32f1xx_ll_gpio.h ****   * @brief  Return gpio speed for a dedicated pin on dedicated port.
 429:Drivers/STM32F1xx_HAL_Driver/Inc/stm32f1xx_ll_gpio.h ****   * @note   I/O speed can be Low, Medium, Fast or High speed.
 430:Drivers/STM32F1xx_HAL_Driver/Inc/stm32f1xx_ll_gpio.h ****   * @note   Warning: only one pin can be passed as parameter.
 431:Drivers/STM32F1xx_HAL_Driver/Inc/stm32f1xx_ll_gpio.h ****   * @note   Refer to datasheet for frequency specifications and the power
 432:Drivers/STM32F1xx_HAL_Driver/Inc/stm32f1xx_ll_gpio.h ****   *         supply and load conditions for each speed.
 433:Drivers/STM32F1xx_HAL_Driver/Inc/stm32f1xx_ll_gpio.h ****   * @rmtoll CRL      MODEy       LL_GPIO_GetPinSpeed
 434:Drivers/STM32F1xx_HAL_Driver/Inc/stm32f1xx_ll_gpio.h ****   * @rmtoll CRH      MODEy       LL_GPIO_GetPinSpeed
 435:Drivers/STM32F1xx_HAL_Driver/Inc/stm32f1xx_ll_gpio.h ****   * @param  GPIOx GPIO Port
 436:Drivers/STM32F1xx_HAL_Driver/Inc/stm32f1xx_ll_gpio.h ****   * @param  Pin This parameter can be one of the following values:
 437:Drivers/STM32F1xx_HAL_Driver/Inc/stm32f1xx_ll_gpio.h ****   *         @arg @ref LL_GPIO_PIN_0
 438:Drivers/STM32F1xx_HAL_Driver/Inc/stm32f1xx_ll_gpio.h ****   *         @arg @ref LL_GPIO_PIN_1
 439:Drivers/STM32F1xx_HAL_Driver/Inc/stm32f1xx_ll_gpio.h ****   *         @arg @ref LL_GPIO_PIN_2
 440:Drivers/STM32F1xx_HAL_Driver/Inc/stm32f1xx_ll_gpio.h ****   *         @arg @ref LL_GPIO_PIN_3
 441:Drivers/STM32F1xx_HAL_Driver/Inc/stm32f1xx_ll_gpio.h ****   *         @arg @ref LL_GPIO_PIN_4
 442:Drivers/STM32F1xx_HAL_Driver/Inc/stm32f1xx_ll_gpio.h ****   *         @arg @ref LL_GPIO_PIN_5
 443:Drivers/STM32F1xx_HAL_Driver/Inc/stm32f1xx_ll_gpio.h ****   *         @arg @ref LL_GPIO_PIN_6
 444:Drivers/STM32F1xx_HAL_Driver/Inc/stm32f1xx_ll_gpio.h ****   *         @arg @ref LL_GPIO_PIN_7
 445:Drivers/STM32F1xx_HAL_Driver/Inc/stm32f1xx_ll_gpio.h ****   *         @arg @ref LL_GPIO_PIN_8
 446:Drivers/STM32F1xx_HAL_Driver/Inc/stm32f1xx_ll_gpio.h ****   *         @arg @ref LL_GPIO_PIN_9
 447:Drivers/STM32F1xx_HAL_Driver/Inc/stm32f1xx_ll_gpio.h ****   *         @arg @ref LL_GPIO_PIN_10
 448:Drivers/STM32F1xx_HAL_Driver/Inc/stm32f1xx_ll_gpio.h ****   *         @arg @ref LL_GPIO_PIN_11
 449:Drivers/STM32F1xx_HAL_Driver/Inc/stm32f1xx_ll_gpio.h ****   *         @arg @ref LL_GPIO_PIN_12
 450:Drivers/STM32F1xx_HAL_Driver/Inc/stm32f1xx_ll_gpio.h ****   *         @arg @ref LL_GPIO_PIN_13
 451:Drivers/STM32F1xx_HAL_Driver/Inc/stm32f1xx_ll_gpio.h ****   *         @arg @ref LL_GPIO_PIN_14
 452:Drivers/STM32F1xx_HAL_Driver/Inc/stm32f1xx_ll_gpio.h ****   *         @arg @ref LL_GPIO_PIN_15
 453:Drivers/STM32F1xx_HAL_Driver/Inc/stm32f1xx_ll_gpio.h ****   * @retval Returned value can be one of the following values:
 454:Drivers/STM32F1xx_HAL_Driver/Inc/stm32f1xx_ll_gpio.h ****   *         @arg @ref LL_GPIO_SPEED_FREQ_LOW
 455:Drivers/STM32F1xx_HAL_Driver/Inc/stm32f1xx_ll_gpio.h ****   *         @arg @ref LL_GPIO_SPEED_FREQ_MEDIUM
 456:Drivers/STM32F1xx_HAL_Driver/Inc/stm32f1xx_ll_gpio.h ****   *         @arg @ref LL_GPIO_SPEED_FREQ_HIGH
 457:Drivers/STM32F1xx_HAL_Driver/Inc/stm32f1xx_ll_gpio.h ****   */
 458:Drivers/STM32F1xx_HAL_Driver/Inc/stm32f1xx_ll_gpio.h **** __STATIC_INLINE uint32_t LL_GPIO_GetPinSpeed(GPIO_TypeDef *GPIOx, uint32_t Pin)
 459:Drivers/STM32F1xx_HAL_Driver/Inc/stm32f1xx_ll_gpio.h **** {
 460:Drivers/STM32F1xx_HAL_Driver/Inc/stm32f1xx_ll_gpio.h ****   register uint32_t *pReg = (uint32_t *)((uint32_t)((uint32_t)(&GPIOx->CRL) + (Pin >> 24)));
 461:Drivers/STM32F1xx_HAL_Driver/Inc/stm32f1xx_ll_gpio.h ****   return (READ_BIT(*pReg, (GPIO_CRL_MODE0 << (POSITION_VAL(Pin) * 4U))) >> (POSITION_VAL(Pin) * 4U)
 462:Drivers/STM32F1xx_HAL_Driver/Inc/stm32f1xx_ll_gpio.h **** }
 463:Drivers/STM32F1xx_HAL_Driver/Inc/stm32f1xx_ll_gpio.h **** 
 464:Drivers/STM32F1xx_HAL_Driver/Inc/stm32f1xx_ll_gpio.h **** /**
 465:Drivers/STM32F1xx_HAL_Driver/Inc/stm32f1xx_ll_gpio.h ****   * @brief  Configure gpio output type for several pins on dedicated port.
 466:Drivers/STM32F1xx_HAL_Driver/Inc/stm32f1xx_ll_gpio.h ****   * @note   Output type as to be set when gpio pin is in output or
 467:Drivers/STM32F1xx_HAL_Driver/Inc/stm32f1xx_ll_gpio.h ****   *         alternate modes. Possible type are Push-pull or Open-drain.
 468:Drivers/STM32F1xx_HAL_Driver/Inc/stm32f1xx_ll_gpio.h ****   * @rmtoll CRL       MODEy           LL_GPIO_SetPinOutputType
 469:Drivers/STM32F1xx_HAL_Driver/Inc/stm32f1xx_ll_gpio.h ****   * @rmtoll CRH       MODEy           LL_GPIO_SetPinOutputType
 470:Drivers/STM32F1xx_HAL_Driver/Inc/stm32f1xx_ll_gpio.h ****   * @param  GPIOx GPIO Port
 471:Drivers/STM32F1xx_HAL_Driver/Inc/stm32f1xx_ll_gpio.h ****   * @param  Pin This parameter can be a combination of the following values:
 472:Drivers/STM32F1xx_HAL_Driver/Inc/stm32f1xx_ll_gpio.h ****   *         @arg @ref LL_GPIO_PIN_0
 473:Drivers/STM32F1xx_HAL_Driver/Inc/stm32f1xx_ll_gpio.h ****   *         @arg @ref LL_GPIO_PIN_1
 474:Drivers/STM32F1xx_HAL_Driver/Inc/stm32f1xx_ll_gpio.h ****   *         @arg @ref LL_GPIO_PIN_2
 475:Drivers/STM32F1xx_HAL_Driver/Inc/stm32f1xx_ll_gpio.h ****   *         @arg @ref LL_GPIO_PIN_3
 476:Drivers/STM32F1xx_HAL_Driver/Inc/stm32f1xx_ll_gpio.h ****   *         @arg @ref LL_GPIO_PIN_4
 477:Drivers/STM32F1xx_HAL_Driver/Inc/stm32f1xx_ll_gpio.h ****   *         @arg @ref LL_GPIO_PIN_5
 478:Drivers/STM32F1xx_HAL_Driver/Inc/stm32f1xx_ll_gpio.h ****   *         @arg @ref LL_GPIO_PIN_6
ARM GAS  C:\Users\VIDCOM~1\AppData\Local\Temp\cc4j4Ttx.s 			page 25


 479:Drivers/STM32F1xx_HAL_Driver/Inc/stm32f1xx_ll_gpio.h ****   *         @arg @ref LL_GPIO_PIN_7
 480:Drivers/STM32F1xx_HAL_Driver/Inc/stm32f1xx_ll_gpio.h ****   *         @arg @ref LL_GPIO_PIN_8
 481:Drivers/STM32F1xx_HAL_Driver/Inc/stm32f1xx_ll_gpio.h ****   *         @arg @ref LL_GPIO_PIN_9
 482:Drivers/STM32F1xx_HAL_Driver/Inc/stm32f1xx_ll_gpio.h ****   *         @arg @ref LL_GPIO_PIN_10
 483:Drivers/STM32F1xx_HAL_Driver/Inc/stm32f1xx_ll_gpio.h ****   *         @arg @ref LL_GPIO_PIN_11
 484:Drivers/STM32F1xx_HAL_Driver/Inc/stm32f1xx_ll_gpio.h ****   *         @arg @ref LL_GPIO_PIN_12
 485:Drivers/STM32F1xx_HAL_Driver/Inc/stm32f1xx_ll_gpio.h ****   *         @arg @ref LL_GPIO_PIN_13
 486:Drivers/STM32F1xx_HAL_Driver/Inc/stm32f1xx_ll_gpio.h ****   *         @arg @ref LL_GPIO_PIN_14
 487:Drivers/STM32F1xx_HAL_Driver/Inc/stm32f1xx_ll_gpio.h ****   *         @arg @ref LL_GPIO_PIN_15
 488:Drivers/STM32F1xx_HAL_Driver/Inc/stm32f1xx_ll_gpio.h ****   *         @arg @ref LL_GPIO_PIN_ALL
 489:Drivers/STM32F1xx_HAL_Driver/Inc/stm32f1xx_ll_gpio.h ****   * @param  OutputType This parameter can be one of the following values:
 490:Drivers/STM32F1xx_HAL_Driver/Inc/stm32f1xx_ll_gpio.h ****   *         @arg @ref LL_GPIO_OUTPUT_PUSHPULL
 491:Drivers/STM32F1xx_HAL_Driver/Inc/stm32f1xx_ll_gpio.h ****   *         @arg @ref LL_GPIO_OUTPUT_OPENDRAIN
 492:Drivers/STM32F1xx_HAL_Driver/Inc/stm32f1xx_ll_gpio.h ****   * @retval None
 493:Drivers/STM32F1xx_HAL_Driver/Inc/stm32f1xx_ll_gpio.h ****   */
 494:Drivers/STM32F1xx_HAL_Driver/Inc/stm32f1xx_ll_gpio.h **** __STATIC_INLINE void LL_GPIO_SetPinOutputType(GPIO_TypeDef *GPIOx, uint32_t Pin, uint32_t OutputTyp
 495:Drivers/STM32F1xx_HAL_Driver/Inc/stm32f1xx_ll_gpio.h **** {
 496:Drivers/STM32F1xx_HAL_Driver/Inc/stm32f1xx_ll_gpio.h ****   register uint32_t *pReg = (uint32_t *)((uint32_t)((uint32_t)(&GPIOx->CRL) + (Pin >> 24)));
 497:Drivers/STM32F1xx_HAL_Driver/Inc/stm32f1xx_ll_gpio.h ****   MODIFY_REG(*pReg, (GPIO_CRL_CNF0_0 << (POSITION_VAL(Pin) * 4U)),
 498:Drivers/STM32F1xx_HAL_Driver/Inc/stm32f1xx_ll_gpio.h ****              (OutputType << (POSITION_VAL(Pin) * 4U)));
 499:Drivers/STM32F1xx_HAL_Driver/Inc/stm32f1xx_ll_gpio.h **** }
 500:Drivers/STM32F1xx_HAL_Driver/Inc/stm32f1xx_ll_gpio.h **** 
 501:Drivers/STM32F1xx_HAL_Driver/Inc/stm32f1xx_ll_gpio.h **** /**
 502:Drivers/STM32F1xx_HAL_Driver/Inc/stm32f1xx_ll_gpio.h ****   * @brief  Return gpio output type for several pins on dedicated port.
 503:Drivers/STM32F1xx_HAL_Driver/Inc/stm32f1xx_ll_gpio.h ****   * @note   Output type as to be set when gpio pin is in output or
 504:Drivers/STM32F1xx_HAL_Driver/Inc/stm32f1xx_ll_gpio.h ****   *         alternate modes. Possible type are Push-pull or Open-drain.
 505:Drivers/STM32F1xx_HAL_Driver/Inc/stm32f1xx_ll_gpio.h ****   * @note   Warning: only one pin can be passed as parameter.
 506:Drivers/STM32F1xx_HAL_Driver/Inc/stm32f1xx_ll_gpio.h ****   * @rmtoll CRL       MODEy       LL_GPIO_GetPinOutputType
 507:Drivers/STM32F1xx_HAL_Driver/Inc/stm32f1xx_ll_gpio.h ****   * @rmtoll CRH       MODEy       LL_GPIO_GetPinOutputType
 508:Drivers/STM32F1xx_HAL_Driver/Inc/stm32f1xx_ll_gpio.h ****   * @param  GPIOx GPIO Port
 509:Drivers/STM32F1xx_HAL_Driver/Inc/stm32f1xx_ll_gpio.h ****   * @param  Pin This parameter can be one of the following values:
 510:Drivers/STM32F1xx_HAL_Driver/Inc/stm32f1xx_ll_gpio.h ****   *         @arg @ref LL_GPIO_PIN_0
 511:Drivers/STM32F1xx_HAL_Driver/Inc/stm32f1xx_ll_gpio.h ****   *         @arg @ref LL_GPIO_PIN_1
 512:Drivers/STM32F1xx_HAL_Driver/Inc/stm32f1xx_ll_gpio.h ****   *         @arg @ref LL_GPIO_PIN_2
 513:Drivers/STM32F1xx_HAL_Driver/Inc/stm32f1xx_ll_gpio.h ****   *         @arg @ref LL_GPIO_PIN_3
 514:Drivers/STM32F1xx_HAL_Driver/Inc/stm32f1xx_ll_gpio.h ****   *         @arg @ref LL_GPIO_PIN_4
 515:Drivers/STM32F1xx_HAL_Driver/Inc/stm32f1xx_ll_gpio.h ****   *         @arg @ref LL_GPIO_PIN_5
 516:Drivers/STM32F1xx_HAL_Driver/Inc/stm32f1xx_ll_gpio.h ****   *         @arg @ref LL_GPIO_PIN_6
 517:Drivers/STM32F1xx_HAL_Driver/Inc/stm32f1xx_ll_gpio.h ****   *         @arg @ref LL_GPIO_PIN_7
 518:Drivers/STM32F1xx_HAL_Driver/Inc/stm32f1xx_ll_gpio.h ****   *         @arg @ref LL_GPIO_PIN_8
 519:Drivers/STM32F1xx_HAL_Driver/Inc/stm32f1xx_ll_gpio.h ****   *         @arg @ref LL_GPIO_PIN_9
 520:Drivers/STM32F1xx_HAL_Driver/Inc/stm32f1xx_ll_gpio.h ****   *         @arg @ref LL_GPIO_PIN_10
 521:Drivers/STM32F1xx_HAL_Driver/Inc/stm32f1xx_ll_gpio.h ****   *         @arg @ref LL_GPIO_PIN_11
 522:Drivers/STM32F1xx_HAL_Driver/Inc/stm32f1xx_ll_gpio.h ****   *         @arg @ref LL_GPIO_PIN_12
 523:Drivers/STM32F1xx_HAL_Driver/Inc/stm32f1xx_ll_gpio.h ****   *         @arg @ref LL_GPIO_PIN_13
 524:Drivers/STM32F1xx_HAL_Driver/Inc/stm32f1xx_ll_gpio.h ****   *         @arg @ref LL_GPIO_PIN_14
 525:Drivers/STM32F1xx_HAL_Driver/Inc/stm32f1xx_ll_gpio.h ****   *         @arg @ref LL_GPIO_PIN_15
 526:Drivers/STM32F1xx_HAL_Driver/Inc/stm32f1xx_ll_gpio.h ****   *         @arg @ref LL_GPIO_PIN_ALL
 527:Drivers/STM32F1xx_HAL_Driver/Inc/stm32f1xx_ll_gpio.h ****   * @retval Returned value can be one of the following values:
 528:Drivers/STM32F1xx_HAL_Driver/Inc/stm32f1xx_ll_gpio.h ****   *         @arg @ref LL_GPIO_OUTPUT_PUSHPULL
 529:Drivers/STM32F1xx_HAL_Driver/Inc/stm32f1xx_ll_gpio.h ****   *         @arg @ref LL_GPIO_OUTPUT_OPENDRAIN
 530:Drivers/STM32F1xx_HAL_Driver/Inc/stm32f1xx_ll_gpio.h ****   */
 531:Drivers/STM32F1xx_HAL_Driver/Inc/stm32f1xx_ll_gpio.h **** __STATIC_INLINE uint32_t LL_GPIO_GetPinOutputType(GPIO_TypeDef *GPIOx, uint32_t Pin)
 532:Drivers/STM32F1xx_HAL_Driver/Inc/stm32f1xx_ll_gpio.h **** {
 533:Drivers/STM32F1xx_HAL_Driver/Inc/stm32f1xx_ll_gpio.h ****   register uint32_t *pReg = (uint32_t *)((uint32_t)((uint32_t)(&GPIOx->CRL) + (Pin >> 24)));
 534:Drivers/STM32F1xx_HAL_Driver/Inc/stm32f1xx_ll_gpio.h ****   return (READ_BIT(*pReg, (GPIO_CRL_CNF0_0 << (POSITION_VAL(Pin) * 4U))) >> (POSITION_VAL(Pin) * 4U
 535:Drivers/STM32F1xx_HAL_Driver/Inc/stm32f1xx_ll_gpio.h **** 
ARM GAS  C:\Users\VIDCOM~1\AppData\Local\Temp\cc4j4Ttx.s 			page 26


 536:Drivers/STM32F1xx_HAL_Driver/Inc/stm32f1xx_ll_gpio.h **** }
 537:Drivers/STM32F1xx_HAL_Driver/Inc/stm32f1xx_ll_gpio.h **** 
 538:Drivers/STM32F1xx_HAL_Driver/Inc/stm32f1xx_ll_gpio.h **** /**
 539:Drivers/STM32F1xx_HAL_Driver/Inc/stm32f1xx_ll_gpio.h ****   * @brief  Configure gpio pull-up or pull-down for a dedicated pin on a dedicated port.
 540:Drivers/STM32F1xx_HAL_Driver/Inc/stm32f1xx_ll_gpio.h ****   * @note   Warning: only one pin can be passed as parameter.
 541:Drivers/STM32F1xx_HAL_Driver/Inc/stm32f1xx_ll_gpio.h ****   * @rmtoll ODR        ODR         LL_GPIO_SetPinPull
 542:Drivers/STM32F1xx_HAL_Driver/Inc/stm32f1xx_ll_gpio.h ****   * @param  GPIOx GPIO Port
 543:Drivers/STM32F1xx_HAL_Driver/Inc/stm32f1xx_ll_gpio.h ****   * @param  Pin This parameter can be one of the following values:
 544:Drivers/STM32F1xx_HAL_Driver/Inc/stm32f1xx_ll_gpio.h ****   *         @arg @ref LL_GPIO_PIN_0
 545:Drivers/STM32F1xx_HAL_Driver/Inc/stm32f1xx_ll_gpio.h ****   *         @arg @ref LL_GPIO_PIN_1
 546:Drivers/STM32F1xx_HAL_Driver/Inc/stm32f1xx_ll_gpio.h ****   *         @arg @ref LL_GPIO_PIN_2
 547:Drivers/STM32F1xx_HAL_Driver/Inc/stm32f1xx_ll_gpio.h ****   *         @arg @ref LL_GPIO_PIN_3
 548:Drivers/STM32F1xx_HAL_Driver/Inc/stm32f1xx_ll_gpio.h ****   *         @arg @ref LL_GPIO_PIN_4
 549:Drivers/STM32F1xx_HAL_Driver/Inc/stm32f1xx_ll_gpio.h ****   *         @arg @ref LL_GPIO_PIN_5
 550:Drivers/STM32F1xx_HAL_Driver/Inc/stm32f1xx_ll_gpio.h ****   *         @arg @ref LL_GPIO_PIN_6
 551:Drivers/STM32F1xx_HAL_Driver/Inc/stm32f1xx_ll_gpio.h ****   *         @arg @ref LL_GPIO_PIN_7
 552:Drivers/STM32F1xx_HAL_Driver/Inc/stm32f1xx_ll_gpio.h ****   *         @arg @ref LL_GPIO_PIN_8
 553:Drivers/STM32F1xx_HAL_Driver/Inc/stm32f1xx_ll_gpio.h ****   *         @arg @ref LL_GPIO_PIN_9
 554:Drivers/STM32F1xx_HAL_Driver/Inc/stm32f1xx_ll_gpio.h ****   *         @arg @ref LL_GPIO_PIN_10
 555:Drivers/STM32F1xx_HAL_Driver/Inc/stm32f1xx_ll_gpio.h ****   *         @arg @ref LL_GPIO_PIN_11
 556:Drivers/STM32F1xx_HAL_Driver/Inc/stm32f1xx_ll_gpio.h ****   *         @arg @ref LL_GPIO_PIN_12
 557:Drivers/STM32F1xx_HAL_Driver/Inc/stm32f1xx_ll_gpio.h ****   *         @arg @ref LL_GPIO_PIN_13
 558:Drivers/STM32F1xx_HAL_Driver/Inc/stm32f1xx_ll_gpio.h ****   *         @arg @ref LL_GPIO_PIN_14
 559:Drivers/STM32F1xx_HAL_Driver/Inc/stm32f1xx_ll_gpio.h ****   *         @arg @ref LL_GPIO_PIN_15
 560:Drivers/STM32F1xx_HAL_Driver/Inc/stm32f1xx_ll_gpio.h ****   * @param  Pull This parameter can be one of the following values:
 561:Drivers/STM32F1xx_HAL_Driver/Inc/stm32f1xx_ll_gpio.h ****   *         @arg @ref LL_GPIO_PULL_DOWN
 562:Drivers/STM32F1xx_HAL_Driver/Inc/stm32f1xx_ll_gpio.h ****   *         @arg @ref LL_GPIO_PULL_UP
 563:Drivers/STM32F1xx_HAL_Driver/Inc/stm32f1xx_ll_gpio.h ****   * @retval None
 564:Drivers/STM32F1xx_HAL_Driver/Inc/stm32f1xx_ll_gpio.h ****   */
 565:Drivers/STM32F1xx_HAL_Driver/Inc/stm32f1xx_ll_gpio.h **** __STATIC_INLINE void LL_GPIO_SetPinPull(GPIO_TypeDef *GPIOx, uint32_t Pin, uint32_t Pull)
 566:Drivers/STM32F1xx_HAL_Driver/Inc/stm32f1xx_ll_gpio.h **** {
 567:Drivers/STM32F1xx_HAL_Driver/Inc/stm32f1xx_ll_gpio.h ****   MODIFY_REG(GPIOx->ODR, (Pin >> GPIO_PIN_MASK_POS), Pull << (POSITION_VAL(Pin >> GPIO_PIN_MASK_POS
 568:Drivers/STM32F1xx_HAL_Driver/Inc/stm32f1xx_ll_gpio.h **** }
 569:Drivers/STM32F1xx_HAL_Driver/Inc/stm32f1xx_ll_gpio.h **** 
 570:Drivers/STM32F1xx_HAL_Driver/Inc/stm32f1xx_ll_gpio.h **** /**
 571:Drivers/STM32F1xx_HAL_Driver/Inc/stm32f1xx_ll_gpio.h ****   * @brief  Return gpio pull-up or pull-down for a dedicated pin on a dedicated port
 572:Drivers/STM32F1xx_HAL_Driver/Inc/stm32f1xx_ll_gpio.h ****   * @note   Warning: only one pin can be passed as parameter.
 573:Drivers/STM32F1xx_HAL_Driver/Inc/stm32f1xx_ll_gpio.h ****   * @rmtoll ODR        ODR         LL_GPIO_GetPinPull
 574:Drivers/STM32F1xx_HAL_Driver/Inc/stm32f1xx_ll_gpio.h ****   * @param  GPIOx GPIO Port
 575:Drivers/STM32F1xx_HAL_Driver/Inc/stm32f1xx_ll_gpio.h ****   * @param  Pin This parameter can be one of the following values:
 576:Drivers/STM32F1xx_HAL_Driver/Inc/stm32f1xx_ll_gpio.h ****   *         @arg @ref LL_GPIO_PIN_0
 577:Drivers/STM32F1xx_HAL_Driver/Inc/stm32f1xx_ll_gpio.h ****   *         @arg @ref LL_GPIO_PIN_1
 578:Drivers/STM32F1xx_HAL_Driver/Inc/stm32f1xx_ll_gpio.h ****   *         @arg @ref LL_GPIO_PIN_2
 579:Drivers/STM32F1xx_HAL_Driver/Inc/stm32f1xx_ll_gpio.h ****   *         @arg @ref LL_GPIO_PIN_3
 580:Drivers/STM32F1xx_HAL_Driver/Inc/stm32f1xx_ll_gpio.h ****   *         @arg @ref LL_GPIO_PIN_4
 581:Drivers/STM32F1xx_HAL_Driver/Inc/stm32f1xx_ll_gpio.h ****   *         @arg @ref LL_GPIO_PIN_5
 582:Drivers/STM32F1xx_HAL_Driver/Inc/stm32f1xx_ll_gpio.h ****   *         @arg @ref LL_GPIO_PIN_6
 583:Drivers/STM32F1xx_HAL_Driver/Inc/stm32f1xx_ll_gpio.h ****   *         @arg @ref LL_GPIO_PIN_7
 584:Drivers/STM32F1xx_HAL_Driver/Inc/stm32f1xx_ll_gpio.h ****   *         @arg @ref LL_GPIO_PIN_8
 585:Drivers/STM32F1xx_HAL_Driver/Inc/stm32f1xx_ll_gpio.h ****   *         @arg @ref LL_GPIO_PIN_9
 586:Drivers/STM32F1xx_HAL_Driver/Inc/stm32f1xx_ll_gpio.h ****   *         @arg @ref LL_GPIO_PIN_10
 587:Drivers/STM32F1xx_HAL_Driver/Inc/stm32f1xx_ll_gpio.h ****   *         @arg @ref LL_GPIO_PIN_11
 588:Drivers/STM32F1xx_HAL_Driver/Inc/stm32f1xx_ll_gpio.h ****   *         @arg @ref LL_GPIO_PIN_12
 589:Drivers/STM32F1xx_HAL_Driver/Inc/stm32f1xx_ll_gpio.h ****   *         @arg @ref LL_GPIO_PIN_13
 590:Drivers/STM32F1xx_HAL_Driver/Inc/stm32f1xx_ll_gpio.h ****   *         @arg @ref LL_GPIO_PIN_14
 591:Drivers/STM32F1xx_HAL_Driver/Inc/stm32f1xx_ll_gpio.h ****   *         @arg @ref LL_GPIO_PIN_15
 592:Drivers/STM32F1xx_HAL_Driver/Inc/stm32f1xx_ll_gpio.h ****   * @retval Returned value can be one of the following values:
ARM GAS  C:\Users\VIDCOM~1\AppData\Local\Temp\cc4j4Ttx.s 			page 27


 593:Drivers/STM32F1xx_HAL_Driver/Inc/stm32f1xx_ll_gpio.h ****   *         @arg @ref LL_GPIO_PULL_DOWN
 594:Drivers/STM32F1xx_HAL_Driver/Inc/stm32f1xx_ll_gpio.h ****   *         @arg @ref LL_GPIO_PULL_UP
 595:Drivers/STM32F1xx_HAL_Driver/Inc/stm32f1xx_ll_gpio.h ****   */
 596:Drivers/STM32F1xx_HAL_Driver/Inc/stm32f1xx_ll_gpio.h **** __STATIC_INLINE uint32_t LL_GPIO_GetPinPull(GPIO_TypeDef *GPIOx, uint32_t Pin)
 597:Drivers/STM32F1xx_HAL_Driver/Inc/stm32f1xx_ll_gpio.h **** {
 598:Drivers/STM32F1xx_HAL_Driver/Inc/stm32f1xx_ll_gpio.h ****   return (READ_BIT(GPIOx->ODR, (GPIO_ODR_ODR0 << (POSITION_VAL(Pin >> GPIO_PIN_MASK_POS)))) >> (POS
 599:Drivers/STM32F1xx_HAL_Driver/Inc/stm32f1xx_ll_gpio.h **** }
 600:Drivers/STM32F1xx_HAL_Driver/Inc/stm32f1xx_ll_gpio.h **** 
 601:Drivers/STM32F1xx_HAL_Driver/Inc/stm32f1xx_ll_gpio.h **** /**
 602:Drivers/STM32F1xx_HAL_Driver/Inc/stm32f1xx_ll_gpio.h ****   * @brief  Lock configuration of several pins for a dedicated port.
 603:Drivers/STM32F1xx_HAL_Driver/Inc/stm32f1xx_ll_gpio.h ****   * @note   When the lock sequence has been applied on a port bit, the
 604:Drivers/STM32F1xx_HAL_Driver/Inc/stm32f1xx_ll_gpio.h ****   *         value of this port bit can no longer be modified until the
 605:Drivers/STM32F1xx_HAL_Driver/Inc/stm32f1xx_ll_gpio.h ****   *         next reset.
 606:Drivers/STM32F1xx_HAL_Driver/Inc/stm32f1xx_ll_gpio.h ****   * @note   Each lock bit freezes a specific configuration register
 607:Drivers/STM32F1xx_HAL_Driver/Inc/stm32f1xx_ll_gpio.h ****   *         (control and alternate function registers).
 608:Drivers/STM32F1xx_HAL_Driver/Inc/stm32f1xx_ll_gpio.h ****   * @rmtoll LCKR         LCKK          LL_GPIO_LockPin
 609:Drivers/STM32F1xx_HAL_Driver/Inc/stm32f1xx_ll_gpio.h ****   * @param  GPIOx GPIO Port
 610:Drivers/STM32F1xx_HAL_Driver/Inc/stm32f1xx_ll_gpio.h ****   * @param  PinMask This parameter can be a combination of the following values:
 611:Drivers/STM32F1xx_HAL_Driver/Inc/stm32f1xx_ll_gpio.h ****   *         @arg @ref LL_GPIO_PIN_0
 612:Drivers/STM32F1xx_HAL_Driver/Inc/stm32f1xx_ll_gpio.h ****   *         @arg @ref LL_GPIO_PIN_1
 613:Drivers/STM32F1xx_HAL_Driver/Inc/stm32f1xx_ll_gpio.h ****   *         @arg @ref LL_GPIO_PIN_2
 614:Drivers/STM32F1xx_HAL_Driver/Inc/stm32f1xx_ll_gpio.h ****   *         @arg @ref LL_GPIO_PIN_3
 615:Drivers/STM32F1xx_HAL_Driver/Inc/stm32f1xx_ll_gpio.h ****   *         @arg @ref LL_GPIO_PIN_4
 616:Drivers/STM32F1xx_HAL_Driver/Inc/stm32f1xx_ll_gpio.h ****   *         @arg @ref LL_GPIO_PIN_5
 617:Drivers/STM32F1xx_HAL_Driver/Inc/stm32f1xx_ll_gpio.h ****   *         @arg @ref LL_GPIO_PIN_6
 618:Drivers/STM32F1xx_HAL_Driver/Inc/stm32f1xx_ll_gpio.h ****   *         @arg @ref LL_GPIO_PIN_7
 619:Drivers/STM32F1xx_HAL_Driver/Inc/stm32f1xx_ll_gpio.h ****   *         @arg @ref LL_GPIO_PIN_8
 620:Drivers/STM32F1xx_HAL_Driver/Inc/stm32f1xx_ll_gpio.h ****   *         @arg @ref LL_GPIO_PIN_9
 621:Drivers/STM32F1xx_HAL_Driver/Inc/stm32f1xx_ll_gpio.h ****   *         @arg @ref LL_GPIO_PIN_10
 622:Drivers/STM32F1xx_HAL_Driver/Inc/stm32f1xx_ll_gpio.h ****   *         @arg @ref LL_GPIO_PIN_11
 623:Drivers/STM32F1xx_HAL_Driver/Inc/stm32f1xx_ll_gpio.h ****   *         @arg @ref LL_GPIO_PIN_12
 624:Drivers/STM32F1xx_HAL_Driver/Inc/stm32f1xx_ll_gpio.h ****   *         @arg @ref LL_GPIO_PIN_13
 625:Drivers/STM32F1xx_HAL_Driver/Inc/stm32f1xx_ll_gpio.h ****   *         @arg @ref LL_GPIO_PIN_14
 626:Drivers/STM32F1xx_HAL_Driver/Inc/stm32f1xx_ll_gpio.h ****   *         @arg @ref LL_GPIO_PIN_15
 627:Drivers/STM32F1xx_HAL_Driver/Inc/stm32f1xx_ll_gpio.h ****   *         @arg @ref LL_GPIO_PIN_ALL
 628:Drivers/STM32F1xx_HAL_Driver/Inc/stm32f1xx_ll_gpio.h ****   * @retval None
 629:Drivers/STM32F1xx_HAL_Driver/Inc/stm32f1xx_ll_gpio.h ****   */
 630:Drivers/STM32F1xx_HAL_Driver/Inc/stm32f1xx_ll_gpio.h **** __STATIC_INLINE void LL_GPIO_LockPin(GPIO_TypeDef *GPIOx, uint32_t PinMask)
 631:Drivers/STM32F1xx_HAL_Driver/Inc/stm32f1xx_ll_gpio.h **** {
 632:Drivers/STM32F1xx_HAL_Driver/Inc/stm32f1xx_ll_gpio.h ****   __IO uint32_t temp;
 633:Drivers/STM32F1xx_HAL_Driver/Inc/stm32f1xx_ll_gpio.h ****   WRITE_REG(GPIOx->LCKR, GPIO_LCKR_LCKK | ((PinMask >> GPIO_PIN_MASK_POS) & 0x0000FFFFU));
 634:Drivers/STM32F1xx_HAL_Driver/Inc/stm32f1xx_ll_gpio.h ****   WRITE_REG(GPIOx->LCKR, ((PinMask >> GPIO_PIN_MASK_POS) & 0x0000FFFFU));
 635:Drivers/STM32F1xx_HAL_Driver/Inc/stm32f1xx_ll_gpio.h ****   WRITE_REG(GPIOx->LCKR, GPIO_LCKR_LCKK | ((PinMask >> GPIO_PIN_MASK_POS) & 0x0000FFFFU));
 636:Drivers/STM32F1xx_HAL_Driver/Inc/stm32f1xx_ll_gpio.h ****   temp = READ_REG(GPIOx->LCKR);
 637:Drivers/STM32F1xx_HAL_Driver/Inc/stm32f1xx_ll_gpio.h ****   (void) temp;
 638:Drivers/STM32F1xx_HAL_Driver/Inc/stm32f1xx_ll_gpio.h **** }
 639:Drivers/STM32F1xx_HAL_Driver/Inc/stm32f1xx_ll_gpio.h **** 
 640:Drivers/STM32F1xx_HAL_Driver/Inc/stm32f1xx_ll_gpio.h **** /**
 641:Drivers/STM32F1xx_HAL_Driver/Inc/stm32f1xx_ll_gpio.h ****   * @brief  Return 1 if all pins passed as parameter, of a dedicated port, are locked. else Return 
 642:Drivers/STM32F1xx_HAL_Driver/Inc/stm32f1xx_ll_gpio.h ****   * @rmtoll LCKR         LCKy          LL_GPIO_IsPinLocked
 643:Drivers/STM32F1xx_HAL_Driver/Inc/stm32f1xx_ll_gpio.h ****   * @param  GPIOx GPIO Port
 644:Drivers/STM32F1xx_HAL_Driver/Inc/stm32f1xx_ll_gpio.h ****   * @param  PinMask This parameter can be a combination of the following values:
 645:Drivers/STM32F1xx_HAL_Driver/Inc/stm32f1xx_ll_gpio.h ****   *         @arg @ref LL_GPIO_PIN_0
 646:Drivers/STM32F1xx_HAL_Driver/Inc/stm32f1xx_ll_gpio.h ****   *         @arg @ref LL_GPIO_PIN_1
 647:Drivers/STM32F1xx_HAL_Driver/Inc/stm32f1xx_ll_gpio.h ****   *         @arg @ref LL_GPIO_PIN_2
 648:Drivers/STM32F1xx_HAL_Driver/Inc/stm32f1xx_ll_gpio.h ****   *         @arg @ref LL_GPIO_PIN_3
 649:Drivers/STM32F1xx_HAL_Driver/Inc/stm32f1xx_ll_gpio.h ****   *         @arg @ref LL_GPIO_PIN_4
ARM GAS  C:\Users\VIDCOM~1\AppData\Local\Temp\cc4j4Ttx.s 			page 28


 650:Drivers/STM32F1xx_HAL_Driver/Inc/stm32f1xx_ll_gpio.h ****   *         @arg @ref LL_GPIO_PIN_5
 651:Drivers/STM32F1xx_HAL_Driver/Inc/stm32f1xx_ll_gpio.h ****   *         @arg @ref LL_GPIO_PIN_6
 652:Drivers/STM32F1xx_HAL_Driver/Inc/stm32f1xx_ll_gpio.h ****   *         @arg @ref LL_GPIO_PIN_7
 653:Drivers/STM32F1xx_HAL_Driver/Inc/stm32f1xx_ll_gpio.h ****   *         @arg @ref LL_GPIO_PIN_8
 654:Drivers/STM32F1xx_HAL_Driver/Inc/stm32f1xx_ll_gpio.h ****   *         @arg @ref LL_GPIO_PIN_9
 655:Drivers/STM32F1xx_HAL_Driver/Inc/stm32f1xx_ll_gpio.h ****   *         @arg @ref LL_GPIO_PIN_10
 656:Drivers/STM32F1xx_HAL_Driver/Inc/stm32f1xx_ll_gpio.h ****   *         @arg @ref LL_GPIO_PIN_11
 657:Drivers/STM32F1xx_HAL_Driver/Inc/stm32f1xx_ll_gpio.h ****   *         @arg @ref LL_GPIO_PIN_12
 658:Drivers/STM32F1xx_HAL_Driver/Inc/stm32f1xx_ll_gpio.h ****   *         @arg @ref LL_GPIO_PIN_13
 659:Drivers/STM32F1xx_HAL_Driver/Inc/stm32f1xx_ll_gpio.h ****   *         @arg @ref LL_GPIO_PIN_14
 660:Drivers/STM32F1xx_HAL_Driver/Inc/stm32f1xx_ll_gpio.h ****   *         @arg @ref LL_GPIO_PIN_15
 661:Drivers/STM32F1xx_HAL_Driver/Inc/stm32f1xx_ll_gpio.h ****   *         @arg @ref LL_GPIO_PIN_ALL
 662:Drivers/STM32F1xx_HAL_Driver/Inc/stm32f1xx_ll_gpio.h ****   * @retval State of bit (1 or 0).
 663:Drivers/STM32F1xx_HAL_Driver/Inc/stm32f1xx_ll_gpio.h ****   */
 664:Drivers/STM32F1xx_HAL_Driver/Inc/stm32f1xx_ll_gpio.h **** __STATIC_INLINE uint32_t LL_GPIO_IsPinLocked(GPIO_TypeDef *GPIOx, uint32_t PinMask)
 665:Drivers/STM32F1xx_HAL_Driver/Inc/stm32f1xx_ll_gpio.h **** {
 666:Drivers/STM32F1xx_HAL_Driver/Inc/stm32f1xx_ll_gpio.h ****   return (READ_BIT(GPIOx->LCKR, ((PinMask >> GPIO_PIN_MASK_POS) & 0x0000FFFFU)) == ((PinMask >> GPI
 667:Drivers/STM32F1xx_HAL_Driver/Inc/stm32f1xx_ll_gpio.h **** }
 668:Drivers/STM32F1xx_HAL_Driver/Inc/stm32f1xx_ll_gpio.h **** 
 669:Drivers/STM32F1xx_HAL_Driver/Inc/stm32f1xx_ll_gpio.h **** /**
 670:Drivers/STM32F1xx_HAL_Driver/Inc/stm32f1xx_ll_gpio.h ****   * @brief  Return 1 if one of the pin of a dedicated port is locked. else return 0.
 671:Drivers/STM32F1xx_HAL_Driver/Inc/stm32f1xx_ll_gpio.h ****   * @rmtoll LCKR         LCKK          LL_GPIO_IsAnyPinLocked
 672:Drivers/STM32F1xx_HAL_Driver/Inc/stm32f1xx_ll_gpio.h ****   * @param  GPIOx GPIO Port
 673:Drivers/STM32F1xx_HAL_Driver/Inc/stm32f1xx_ll_gpio.h ****   * @retval State of bit (1 or 0).
 674:Drivers/STM32F1xx_HAL_Driver/Inc/stm32f1xx_ll_gpio.h ****   */
 675:Drivers/STM32F1xx_HAL_Driver/Inc/stm32f1xx_ll_gpio.h **** __STATIC_INLINE uint32_t LL_GPIO_IsAnyPinLocked(GPIO_TypeDef *GPIOx)
 676:Drivers/STM32F1xx_HAL_Driver/Inc/stm32f1xx_ll_gpio.h **** {
 677:Drivers/STM32F1xx_HAL_Driver/Inc/stm32f1xx_ll_gpio.h ****   return (READ_BIT(GPIOx->LCKR, GPIO_LCKR_LCKK) == (GPIO_LCKR_LCKK));
 678:Drivers/STM32F1xx_HAL_Driver/Inc/stm32f1xx_ll_gpio.h **** }
 679:Drivers/STM32F1xx_HAL_Driver/Inc/stm32f1xx_ll_gpio.h **** 
 680:Drivers/STM32F1xx_HAL_Driver/Inc/stm32f1xx_ll_gpio.h **** /**
 681:Drivers/STM32F1xx_HAL_Driver/Inc/stm32f1xx_ll_gpio.h ****   * @}
 682:Drivers/STM32F1xx_HAL_Driver/Inc/stm32f1xx_ll_gpio.h ****   */
 683:Drivers/STM32F1xx_HAL_Driver/Inc/stm32f1xx_ll_gpio.h **** 
 684:Drivers/STM32F1xx_HAL_Driver/Inc/stm32f1xx_ll_gpio.h **** /** @defgroup GPIO_LL_EF_Data_Access Data Access
 685:Drivers/STM32F1xx_HAL_Driver/Inc/stm32f1xx_ll_gpio.h ****   * @{
 686:Drivers/STM32F1xx_HAL_Driver/Inc/stm32f1xx_ll_gpio.h ****   */
 687:Drivers/STM32F1xx_HAL_Driver/Inc/stm32f1xx_ll_gpio.h **** 
 688:Drivers/STM32F1xx_HAL_Driver/Inc/stm32f1xx_ll_gpio.h **** /**
 689:Drivers/STM32F1xx_HAL_Driver/Inc/stm32f1xx_ll_gpio.h ****   * @brief  Return full input data register value for a dedicated port.
 690:Drivers/STM32F1xx_HAL_Driver/Inc/stm32f1xx_ll_gpio.h ****   * @rmtoll IDR          IDy           LL_GPIO_ReadInputPort
 691:Drivers/STM32F1xx_HAL_Driver/Inc/stm32f1xx_ll_gpio.h ****   * @param  GPIOx GPIO Port
 692:Drivers/STM32F1xx_HAL_Driver/Inc/stm32f1xx_ll_gpio.h ****   * @retval Input data register value of port
 693:Drivers/STM32F1xx_HAL_Driver/Inc/stm32f1xx_ll_gpio.h ****   */
 694:Drivers/STM32F1xx_HAL_Driver/Inc/stm32f1xx_ll_gpio.h **** __STATIC_INLINE uint32_t LL_GPIO_ReadInputPort(GPIO_TypeDef *GPIOx)
 695:Drivers/STM32F1xx_HAL_Driver/Inc/stm32f1xx_ll_gpio.h **** {
 696:Drivers/STM32F1xx_HAL_Driver/Inc/stm32f1xx_ll_gpio.h ****   return (READ_REG(GPIOx->IDR));
 697:Drivers/STM32F1xx_HAL_Driver/Inc/stm32f1xx_ll_gpio.h **** }
 698:Drivers/STM32F1xx_HAL_Driver/Inc/stm32f1xx_ll_gpio.h **** 
 699:Drivers/STM32F1xx_HAL_Driver/Inc/stm32f1xx_ll_gpio.h **** /**
 700:Drivers/STM32F1xx_HAL_Driver/Inc/stm32f1xx_ll_gpio.h ****   * @brief  Return if input data level for several pins of dedicated port is high or low.
 701:Drivers/STM32F1xx_HAL_Driver/Inc/stm32f1xx_ll_gpio.h ****   * @rmtoll IDR          IDy           LL_GPIO_IsInputPinSet
 702:Drivers/STM32F1xx_HAL_Driver/Inc/stm32f1xx_ll_gpio.h ****   * @param  GPIOx GPIO Port
 703:Drivers/STM32F1xx_HAL_Driver/Inc/stm32f1xx_ll_gpio.h ****   * @param  PinMask This parameter can be a combination of the following values:
 704:Drivers/STM32F1xx_HAL_Driver/Inc/stm32f1xx_ll_gpio.h ****   *         @arg @ref LL_GPIO_PIN_0
 705:Drivers/STM32F1xx_HAL_Driver/Inc/stm32f1xx_ll_gpio.h ****   *         @arg @ref LL_GPIO_PIN_1
 706:Drivers/STM32F1xx_HAL_Driver/Inc/stm32f1xx_ll_gpio.h ****   *         @arg @ref LL_GPIO_PIN_2
ARM GAS  C:\Users\VIDCOM~1\AppData\Local\Temp\cc4j4Ttx.s 			page 29


 707:Drivers/STM32F1xx_HAL_Driver/Inc/stm32f1xx_ll_gpio.h ****   *         @arg @ref LL_GPIO_PIN_3
 708:Drivers/STM32F1xx_HAL_Driver/Inc/stm32f1xx_ll_gpio.h ****   *         @arg @ref LL_GPIO_PIN_4
 709:Drivers/STM32F1xx_HAL_Driver/Inc/stm32f1xx_ll_gpio.h ****   *         @arg @ref LL_GPIO_PIN_5
 710:Drivers/STM32F1xx_HAL_Driver/Inc/stm32f1xx_ll_gpio.h ****   *         @arg @ref LL_GPIO_PIN_6
 711:Drivers/STM32F1xx_HAL_Driver/Inc/stm32f1xx_ll_gpio.h ****   *         @arg @ref LL_GPIO_PIN_7
 712:Drivers/STM32F1xx_HAL_Driver/Inc/stm32f1xx_ll_gpio.h ****   *         @arg @ref LL_GPIO_PIN_8
 713:Drivers/STM32F1xx_HAL_Driver/Inc/stm32f1xx_ll_gpio.h ****   *         @arg @ref LL_GPIO_PIN_9
 714:Drivers/STM32F1xx_HAL_Driver/Inc/stm32f1xx_ll_gpio.h ****   *         @arg @ref LL_GPIO_PIN_10
 715:Drivers/STM32F1xx_HAL_Driver/Inc/stm32f1xx_ll_gpio.h ****   *         @arg @ref LL_GPIO_PIN_11
 716:Drivers/STM32F1xx_HAL_Driver/Inc/stm32f1xx_ll_gpio.h ****   *         @arg @ref LL_GPIO_PIN_12
 717:Drivers/STM32F1xx_HAL_Driver/Inc/stm32f1xx_ll_gpio.h ****   *         @arg @ref LL_GPIO_PIN_13
 718:Drivers/STM32F1xx_HAL_Driver/Inc/stm32f1xx_ll_gpio.h ****   *         @arg @ref LL_GPIO_PIN_14
 719:Drivers/STM32F1xx_HAL_Driver/Inc/stm32f1xx_ll_gpio.h ****   *         @arg @ref LL_GPIO_PIN_15
 720:Drivers/STM32F1xx_HAL_Driver/Inc/stm32f1xx_ll_gpio.h ****   *         @arg @ref LL_GPIO_PIN_ALL
 721:Drivers/STM32F1xx_HAL_Driver/Inc/stm32f1xx_ll_gpio.h ****   * @retval State of bit (1 or 0).
 722:Drivers/STM32F1xx_HAL_Driver/Inc/stm32f1xx_ll_gpio.h ****   */
 723:Drivers/STM32F1xx_HAL_Driver/Inc/stm32f1xx_ll_gpio.h **** __STATIC_INLINE uint32_t LL_GPIO_IsInputPinSet(GPIO_TypeDef *GPIOx, uint32_t PinMask)
 724:Drivers/STM32F1xx_HAL_Driver/Inc/stm32f1xx_ll_gpio.h **** {
 725:Drivers/STM32F1xx_HAL_Driver/Inc/stm32f1xx_ll_gpio.h ****   return (READ_BIT(GPIOx->IDR, (PinMask >> GPIO_PIN_MASK_POS) & 0x0000FFFFU) == ((PinMask >> GPIO_P
 726:Drivers/STM32F1xx_HAL_Driver/Inc/stm32f1xx_ll_gpio.h **** }
 727:Drivers/STM32F1xx_HAL_Driver/Inc/stm32f1xx_ll_gpio.h **** 
 728:Drivers/STM32F1xx_HAL_Driver/Inc/stm32f1xx_ll_gpio.h **** /**
 729:Drivers/STM32F1xx_HAL_Driver/Inc/stm32f1xx_ll_gpio.h ****   * @brief  Write output data register for the port.
 730:Drivers/STM32F1xx_HAL_Driver/Inc/stm32f1xx_ll_gpio.h ****   * @rmtoll ODR          ODy           LL_GPIO_WriteOutputPort
 731:Drivers/STM32F1xx_HAL_Driver/Inc/stm32f1xx_ll_gpio.h ****   * @param  GPIOx GPIO Port
 732:Drivers/STM32F1xx_HAL_Driver/Inc/stm32f1xx_ll_gpio.h ****   * @param  PortValue Level value for each pin of the port
 733:Drivers/STM32F1xx_HAL_Driver/Inc/stm32f1xx_ll_gpio.h ****   * @retval None
 734:Drivers/STM32F1xx_HAL_Driver/Inc/stm32f1xx_ll_gpio.h ****   */
 735:Drivers/STM32F1xx_HAL_Driver/Inc/stm32f1xx_ll_gpio.h **** __STATIC_INLINE void LL_GPIO_WriteOutputPort(GPIO_TypeDef *GPIOx, uint32_t PortValue)
 736:Drivers/STM32F1xx_HAL_Driver/Inc/stm32f1xx_ll_gpio.h **** {
 737:Drivers/STM32F1xx_HAL_Driver/Inc/stm32f1xx_ll_gpio.h ****   WRITE_REG(GPIOx->ODR, PortValue);
 738:Drivers/STM32F1xx_HAL_Driver/Inc/stm32f1xx_ll_gpio.h **** }
 739:Drivers/STM32F1xx_HAL_Driver/Inc/stm32f1xx_ll_gpio.h **** 
 740:Drivers/STM32F1xx_HAL_Driver/Inc/stm32f1xx_ll_gpio.h **** /**
 741:Drivers/STM32F1xx_HAL_Driver/Inc/stm32f1xx_ll_gpio.h ****   * @brief  Return full output data register value for a dedicated port.
 742:Drivers/STM32F1xx_HAL_Driver/Inc/stm32f1xx_ll_gpio.h ****   * @rmtoll ODR          ODy           LL_GPIO_ReadOutputPort
 743:Drivers/STM32F1xx_HAL_Driver/Inc/stm32f1xx_ll_gpio.h ****   * @param  GPIOx GPIO Port
 744:Drivers/STM32F1xx_HAL_Driver/Inc/stm32f1xx_ll_gpio.h ****   * @retval Output data register value of port
 745:Drivers/STM32F1xx_HAL_Driver/Inc/stm32f1xx_ll_gpio.h ****   */
 746:Drivers/STM32F1xx_HAL_Driver/Inc/stm32f1xx_ll_gpio.h **** __STATIC_INLINE uint32_t LL_GPIO_ReadOutputPort(GPIO_TypeDef *GPIOx)
 747:Drivers/STM32F1xx_HAL_Driver/Inc/stm32f1xx_ll_gpio.h **** {
 748:Drivers/STM32F1xx_HAL_Driver/Inc/stm32f1xx_ll_gpio.h ****   return (uint32_t)(READ_REG(GPIOx->ODR));
 749:Drivers/STM32F1xx_HAL_Driver/Inc/stm32f1xx_ll_gpio.h **** }
 750:Drivers/STM32F1xx_HAL_Driver/Inc/stm32f1xx_ll_gpio.h **** 
 751:Drivers/STM32F1xx_HAL_Driver/Inc/stm32f1xx_ll_gpio.h **** /**
 752:Drivers/STM32F1xx_HAL_Driver/Inc/stm32f1xx_ll_gpio.h ****   * @brief  Return if input data level for several pins of dedicated port is high or low.
 753:Drivers/STM32F1xx_HAL_Driver/Inc/stm32f1xx_ll_gpio.h ****   * @rmtoll ODR          ODy           LL_GPIO_IsOutputPinSet
 754:Drivers/STM32F1xx_HAL_Driver/Inc/stm32f1xx_ll_gpio.h ****   * @param  GPIOx GPIO Port
 755:Drivers/STM32F1xx_HAL_Driver/Inc/stm32f1xx_ll_gpio.h ****   * @param  PinMask This parameter can be a combination of the following values:
 756:Drivers/STM32F1xx_HAL_Driver/Inc/stm32f1xx_ll_gpio.h ****   *         @arg @ref LL_GPIO_PIN_0
 757:Drivers/STM32F1xx_HAL_Driver/Inc/stm32f1xx_ll_gpio.h ****   *         @arg @ref LL_GPIO_PIN_1
 758:Drivers/STM32F1xx_HAL_Driver/Inc/stm32f1xx_ll_gpio.h ****   *         @arg @ref LL_GPIO_PIN_2
 759:Drivers/STM32F1xx_HAL_Driver/Inc/stm32f1xx_ll_gpio.h ****   *         @arg @ref LL_GPIO_PIN_3
 760:Drivers/STM32F1xx_HAL_Driver/Inc/stm32f1xx_ll_gpio.h ****   *         @arg @ref LL_GPIO_PIN_4
 761:Drivers/STM32F1xx_HAL_Driver/Inc/stm32f1xx_ll_gpio.h ****   *         @arg @ref LL_GPIO_PIN_5
 762:Drivers/STM32F1xx_HAL_Driver/Inc/stm32f1xx_ll_gpio.h ****   *         @arg @ref LL_GPIO_PIN_6
 763:Drivers/STM32F1xx_HAL_Driver/Inc/stm32f1xx_ll_gpio.h ****   *         @arg @ref LL_GPIO_PIN_7
ARM GAS  C:\Users\VIDCOM~1\AppData\Local\Temp\cc4j4Ttx.s 			page 30


 764:Drivers/STM32F1xx_HAL_Driver/Inc/stm32f1xx_ll_gpio.h ****   *         @arg @ref LL_GPIO_PIN_8
 765:Drivers/STM32F1xx_HAL_Driver/Inc/stm32f1xx_ll_gpio.h ****   *         @arg @ref LL_GPIO_PIN_9
 766:Drivers/STM32F1xx_HAL_Driver/Inc/stm32f1xx_ll_gpio.h ****   *         @arg @ref LL_GPIO_PIN_10
 767:Drivers/STM32F1xx_HAL_Driver/Inc/stm32f1xx_ll_gpio.h ****   *         @arg @ref LL_GPIO_PIN_11
 768:Drivers/STM32F1xx_HAL_Driver/Inc/stm32f1xx_ll_gpio.h ****   *         @arg @ref LL_GPIO_PIN_12
 769:Drivers/STM32F1xx_HAL_Driver/Inc/stm32f1xx_ll_gpio.h ****   *         @arg @ref LL_GPIO_PIN_13
 770:Drivers/STM32F1xx_HAL_Driver/Inc/stm32f1xx_ll_gpio.h ****   *         @arg @ref LL_GPIO_PIN_14
 771:Drivers/STM32F1xx_HAL_Driver/Inc/stm32f1xx_ll_gpio.h ****   *         @arg @ref LL_GPIO_PIN_15
 772:Drivers/STM32F1xx_HAL_Driver/Inc/stm32f1xx_ll_gpio.h ****   *         @arg @ref LL_GPIO_PIN_ALL
 773:Drivers/STM32F1xx_HAL_Driver/Inc/stm32f1xx_ll_gpio.h ****   * @retval State of bit (1 or 0).
 774:Drivers/STM32F1xx_HAL_Driver/Inc/stm32f1xx_ll_gpio.h ****   */
 775:Drivers/STM32F1xx_HAL_Driver/Inc/stm32f1xx_ll_gpio.h **** __STATIC_INLINE uint32_t LL_GPIO_IsOutputPinSet(GPIO_TypeDef *GPIOx, uint32_t PinMask)
 776:Drivers/STM32F1xx_HAL_Driver/Inc/stm32f1xx_ll_gpio.h **** {
 777:Drivers/STM32F1xx_HAL_Driver/Inc/stm32f1xx_ll_gpio.h ****   return (READ_BIT(GPIOx->ODR, (PinMask >> GPIO_PIN_MASK_POS) & 0x0000FFFFU) == ((PinMask >> GPIO_P
 778:Drivers/STM32F1xx_HAL_Driver/Inc/stm32f1xx_ll_gpio.h **** }
 779:Drivers/STM32F1xx_HAL_Driver/Inc/stm32f1xx_ll_gpio.h **** 
 780:Drivers/STM32F1xx_HAL_Driver/Inc/stm32f1xx_ll_gpio.h **** /**
 781:Drivers/STM32F1xx_HAL_Driver/Inc/stm32f1xx_ll_gpio.h ****   * @brief  Set several pins to high level on dedicated gpio port.
 782:Drivers/STM32F1xx_HAL_Driver/Inc/stm32f1xx_ll_gpio.h ****   * @rmtoll BSRR         BSy           LL_GPIO_SetOutputPin
 783:Drivers/STM32F1xx_HAL_Driver/Inc/stm32f1xx_ll_gpio.h ****   * @param  GPIOx GPIO Port
 784:Drivers/STM32F1xx_HAL_Driver/Inc/stm32f1xx_ll_gpio.h ****   * @param  PinMask This parameter can be a combination of the following values:
 785:Drivers/STM32F1xx_HAL_Driver/Inc/stm32f1xx_ll_gpio.h ****   *         @arg @ref LL_GPIO_PIN_0
 786:Drivers/STM32F1xx_HAL_Driver/Inc/stm32f1xx_ll_gpio.h ****   *         @arg @ref LL_GPIO_PIN_1
 787:Drivers/STM32F1xx_HAL_Driver/Inc/stm32f1xx_ll_gpio.h ****   *         @arg @ref LL_GPIO_PIN_2
 788:Drivers/STM32F1xx_HAL_Driver/Inc/stm32f1xx_ll_gpio.h ****   *         @arg @ref LL_GPIO_PIN_3
 789:Drivers/STM32F1xx_HAL_Driver/Inc/stm32f1xx_ll_gpio.h ****   *         @arg @ref LL_GPIO_PIN_4
 790:Drivers/STM32F1xx_HAL_Driver/Inc/stm32f1xx_ll_gpio.h ****   *         @arg @ref LL_GPIO_PIN_5
 791:Drivers/STM32F1xx_HAL_Driver/Inc/stm32f1xx_ll_gpio.h ****   *         @arg @ref LL_GPIO_PIN_6
 792:Drivers/STM32F1xx_HAL_Driver/Inc/stm32f1xx_ll_gpio.h ****   *         @arg @ref LL_GPIO_PIN_7
 793:Drivers/STM32F1xx_HAL_Driver/Inc/stm32f1xx_ll_gpio.h ****   *         @arg @ref LL_GPIO_PIN_8
 794:Drivers/STM32F1xx_HAL_Driver/Inc/stm32f1xx_ll_gpio.h ****   *         @arg @ref LL_GPIO_PIN_9
 795:Drivers/STM32F1xx_HAL_Driver/Inc/stm32f1xx_ll_gpio.h ****   *         @arg @ref LL_GPIO_PIN_10
 796:Drivers/STM32F1xx_HAL_Driver/Inc/stm32f1xx_ll_gpio.h ****   *         @arg @ref LL_GPIO_PIN_11
 797:Drivers/STM32F1xx_HAL_Driver/Inc/stm32f1xx_ll_gpio.h ****   *         @arg @ref LL_GPIO_PIN_12
 798:Drivers/STM32F1xx_HAL_Driver/Inc/stm32f1xx_ll_gpio.h ****   *         @arg @ref LL_GPIO_PIN_13
 799:Drivers/STM32F1xx_HAL_Driver/Inc/stm32f1xx_ll_gpio.h ****   *         @arg @ref LL_GPIO_PIN_14
 800:Drivers/STM32F1xx_HAL_Driver/Inc/stm32f1xx_ll_gpio.h ****   *         @arg @ref LL_GPIO_PIN_15
 801:Drivers/STM32F1xx_HAL_Driver/Inc/stm32f1xx_ll_gpio.h ****   *         @arg @ref LL_GPIO_PIN_ALL
 802:Drivers/STM32F1xx_HAL_Driver/Inc/stm32f1xx_ll_gpio.h ****   * @retval None
 803:Drivers/STM32F1xx_HAL_Driver/Inc/stm32f1xx_ll_gpio.h ****   */
 804:Drivers/STM32F1xx_HAL_Driver/Inc/stm32f1xx_ll_gpio.h **** __STATIC_INLINE void LL_GPIO_SetOutputPin(GPIO_TypeDef *GPIOx, uint32_t PinMask)
 805:Drivers/STM32F1xx_HAL_Driver/Inc/stm32f1xx_ll_gpio.h **** {
 806:Drivers/STM32F1xx_HAL_Driver/Inc/stm32f1xx_ll_gpio.h ****   WRITE_REG(GPIOx->BSRR, (PinMask >> GPIO_PIN_MASK_POS) & 0x0000FFFFU);
 807:Drivers/STM32F1xx_HAL_Driver/Inc/stm32f1xx_ll_gpio.h **** }
 808:Drivers/STM32F1xx_HAL_Driver/Inc/stm32f1xx_ll_gpio.h **** 
 809:Drivers/STM32F1xx_HAL_Driver/Inc/stm32f1xx_ll_gpio.h **** /**
 810:Drivers/STM32F1xx_HAL_Driver/Inc/stm32f1xx_ll_gpio.h ****   * @brief  Set several pins to low level on dedicated gpio port.
 811:Drivers/STM32F1xx_HAL_Driver/Inc/stm32f1xx_ll_gpio.h ****   * @rmtoll BRR          BRy           LL_GPIO_ResetOutputPin
 812:Drivers/STM32F1xx_HAL_Driver/Inc/stm32f1xx_ll_gpio.h ****   * @param  GPIOx GPIO Port
 813:Drivers/STM32F1xx_HAL_Driver/Inc/stm32f1xx_ll_gpio.h ****   * @param  PinMask This parameter can be a combination of the following values:
 814:Drivers/STM32F1xx_HAL_Driver/Inc/stm32f1xx_ll_gpio.h ****   *         @arg @ref LL_GPIO_PIN_0
 815:Drivers/STM32F1xx_HAL_Driver/Inc/stm32f1xx_ll_gpio.h ****   *         @arg @ref LL_GPIO_PIN_1
 816:Drivers/STM32F1xx_HAL_Driver/Inc/stm32f1xx_ll_gpio.h ****   *         @arg @ref LL_GPIO_PIN_2
 817:Drivers/STM32F1xx_HAL_Driver/Inc/stm32f1xx_ll_gpio.h ****   *         @arg @ref LL_GPIO_PIN_3
 818:Drivers/STM32F1xx_HAL_Driver/Inc/stm32f1xx_ll_gpio.h ****   *         @arg @ref LL_GPIO_PIN_4
 819:Drivers/STM32F1xx_HAL_Driver/Inc/stm32f1xx_ll_gpio.h ****   *         @arg @ref LL_GPIO_PIN_5
 820:Drivers/STM32F1xx_HAL_Driver/Inc/stm32f1xx_ll_gpio.h ****   *         @arg @ref LL_GPIO_PIN_6
ARM GAS  C:\Users\VIDCOM~1\AppData\Local\Temp\cc4j4Ttx.s 			page 31


 821:Drivers/STM32F1xx_HAL_Driver/Inc/stm32f1xx_ll_gpio.h ****   *         @arg @ref LL_GPIO_PIN_7
 822:Drivers/STM32F1xx_HAL_Driver/Inc/stm32f1xx_ll_gpio.h ****   *         @arg @ref LL_GPIO_PIN_8
 823:Drivers/STM32F1xx_HAL_Driver/Inc/stm32f1xx_ll_gpio.h ****   *         @arg @ref LL_GPIO_PIN_9
 824:Drivers/STM32F1xx_HAL_Driver/Inc/stm32f1xx_ll_gpio.h ****   *         @arg @ref LL_GPIO_PIN_10
 825:Drivers/STM32F1xx_HAL_Driver/Inc/stm32f1xx_ll_gpio.h ****   *         @arg @ref LL_GPIO_PIN_11
 826:Drivers/STM32F1xx_HAL_Driver/Inc/stm32f1xx_ll_gpio.h ****   *         @arg @ref LL_GPIO_PIN_12
 827:Drivers/STM32F1xx_HAL_Driver/Inc/stm32f1xx_ll_gpio.h ****   *         @arg @ref LL_GPIO_PIN_13
 828:Drivers/STM32F1xx_HAL_Driver/Inc/stm32f1xx_ll_gpio.h ****   *         @arg @ref LL_GPIO_PIN_14
 829:Drivers/STM32F1xx_HAL_Driver/Inc/stm32f1xx_ll_gpio.h ****   *         @arg @ref LL_GPIO_PIN_15
 830:Drivers/STM32F1xx_HAL_Driver/Inc/stm32f1xx_ll_gpio.h ****   *         @arg @ref LL_GPIO_PIN_ALL
 831:Drivers/STM32F1xx_HAL_Driver/Inc/stm32f1xx_ll_gpio.h ****   * @retval None
 832:Drivers/STM32F1xx_HAL_Driver/Inc/stm32f1xx_ll_gpio.h ****   */
 833:Drivers/STM32F1xx_HAL_Driver/Inc/stm32f1xx_ll_gpio.h **** __STATIC_INLINE void LL_GPIO_ResetOutputPin(GPIO_TypeDef *GPIOx, uint32_t PinMask)
 834:Drivers/STM32F1xx_HAL_Driver/Inc/stm32f1xx_ll_gpio.h **** {
 835:Drivers/STM32F1xx_HAL_Driver/Inc/stm32f1xx_ll_gpio.h ****   WRITE_REG(GPIOx->BRR, (PinMask >> GPIO_PIN_MASK_POS) & 0x0000FFFFU);
 836:Drivers/STM32F1xx_HAL_Driver/Inc/stm32f1xx_ll_gpio.h **** }
 837:Drivers/STM32F1xx_HAL_Driver/Inc/stm32f1xx_ll_gpio.h **** 
 838:Drivers/STM32F1xx_HAL_Driver/Inc/stm32f1xx_ll_gpio.h **** /**
 839:Drivers/STM32F1xx_HAL_Driver/Inc/stm32f1xx_ll_gpio.h ****   * @brief  Toggle data value for several pin of dedicated port.
 840:Drivers/STM32F1xx_HAL_Driver/Inc/stm32f1xx_ll_gpio.h ****   * @rmtoll ODR          ODy           LL_GPIO_TogglePin
 841:Drivers/STM32F1xx_HAL_Driver/Inc/stm32f1xx_ll_gpio.h ****   * @param  GPIOx GPIO Port
 842:Drivers/STM32F1xx_HAL_Driver/Inc/stm32f1xx_ll_gpio.h ****   * @param  PinMask This parameter can be a combination of the following values:
 843:Drivers/STM32F1xx_HAL_Driver/Inc/stm32f1xx_ll_gpio.h ****   *         @arg @ref LL_GPIO_PIN_0
 844:Drivers/STM32F1xx_HAL_Driver/Inc/stm32f1xx_ll_gpio.h ****   *         @arg @ref LL_GPIO_PIN_1
 845:Drivers/STM32F1xx_HAL_Driver/Inc/stm32f1xx_ll_gpio.h ****   *         @arg @ref LL_GPIO_PIN_2
 846:Drivers/STM32F1xx_HAL_Driver/Inc/stm32f1xx_ll_gpio.h ****   *         @arg @ref LL_GPIO_PIN_3
 847:Drivers/STM32F1xx_HAL_Driver/Inc/stm32f1xx_ll_gpio.h ****   *         @arg @ref LL_GPIO_PIN_4
 848:Drivers/STM32F1xx_HAL_Driver/Inc/stm32f1xx_ll_gpio.h ****   *         @arg @ref LL_GPIO_PIN_5
 849:Drivers/STM32F1xx_HAL_Driver/Inc/stm32f1xx_ll_gpio.h ****   *         @arg @ref LL_GPIO_PIN_6
 850:Drivers/STM32F1xx_HAL_Driver/Inc/stm32f1xx_ll_gpio.h ****   *         @arg @ref LL_GPIO_PIN_7
 851:Drivers/STM32F1xx_HAL_Driver/Inc/stm32f1xx_ll_gpio.h ****   *         @arg @ref LL_GPIO_PIN_8
 852:Drivers/STM32F1xx_HAL_Driver/Inc/stm32f1xx_ll_gpio.h ****   *         @arg @ref LL_GPIO_PIN_9
 853:Drivers/STM32F1xx_HAL_Driver/Inc/stm32f1xx_ll_gpio.h ****   *         @arg @ref LL_GPIO_PIN_10
 854:Drivers/STM32F1xx_HAL_Driver/Inc/stm32f1xx_ll_gpio.h ****   *         @arg @ref LL_GPIO_PIN_11
 855:Drivers/STM32F1xx_HAL_Driver/Inc/stm32f1xx_ll_gpio.h ****   *         @arg @ref LL_GPIO_PIN_12
 856:Drivers/STM32F1xx_HAL_Driver/Inc/stm32f1xx_ll_gpio.h ****   *         @arg @ref LL_GPIO_PIN_13
 857:Drivers/STM32F1xx_HAL_Driver/Inc/stm32f1xx_ll_gpio.h ****   *         @arg @ref LL_GPIO_PIN_14
 858:Drivers/STM32F1xx_HAL_Driver/Inc/stm32f1xx_ll_gpio.h ****   *         @arg @ref LL_GPIO_PIN_15
 859:Drivers/STM32F1xx_HAL_Driver/Inc/stm32f1xx_ll_gpio.h ****   *         @arg @ref LL_GPIO_PIN_ALL
 860:Drivers/STM32F1xx_HAL_Driver/Inc/stm32f1xx_ll_gpio.h ****   * @retval None
 861:Drivers/STM32F1xx_HAL_Driver/Inc/stm32f1xx_ll_gpio.h ****   */
 862:Drivers/STM32F1xx_HAL_Driver/Inc/stm32f1xx_ll_gpio.h **** __STATIC_INLINE void LL_GPIO_TogglePin(GPIO_TypeDef *GPIOx, uint32_t PinMask)
 357              		.loc 2 862 22 view .LVU89
 358              	.LBB13:
 863:Drivers/STM32F1xx_HAL_Driver/Inc/stm32f1xx_ll_gpio.h **** {
 864:Drivers/STM32F1xx_HAL_Driver/Inc/stm32f1xx_ll_gpio.h ****   uint32_t odr = READ_REG(GPIOx->ODR);
 359              		.loc 2 864 3 view .LVU90
 360              		.loc 2 864 12 is_stmt 0 view .LVU91
 361 0006 3149     		ldr	r1, .L46
 362              	.LVL34:
 363              		.loc 2 864 12 view .LVU92
 364 0008 CB68     		ldr	r3, [r1, #12]
 365              	.LVL35:
 865:Drivers/STM32F1xx_HAL_Driver/Inc/stm32f1xx_ll_gpio.h ****   uint32_t pinmask = ((PinMask >> GPIO_PIN_MASK_POS) & 0x0000FFFFU);
 366              		.loc 2 865 3 is_stmt 1 view .LVU93
 866:Drivers/STM32F1xx_HAL_Driver/Inc/stm32f1xx_ll_gpio.h ****   WRITE_REG(GPIOx->BSRR, ((odr & pinmask) << 16u) | (~odr & pinmask));
 367              		.loc 2 866 3 view .LVU94
ARM GAS  C:\Users\VIDCOM~1\AppData\Local\Temp\cc4j4Ttx.s 			page 32


 368 000a 1A04     		lsls	r2, r3, #16
 369              	.LVL36:
 370              		.loc 2 866 3 is_stmt 0 view .LVU95
 371 000c 02F48012 		and	r2, r2, #1048576
 372 0010 DB43     		mvns	r3, r3
 373              	.LVL37:
 374              		.loc 2 866 3 view .LVU96
 375 0012 03F01003 		and	r3, r3, #16
 376              	.LVL38:
 377              		.loc 2 866 3 view .LVU97
 378 0016 1343     		orrs	r3, r3, r2
 379 0018 0B61     		str	r3, [r1, #16]
 380              	.LVL39:
 381              		.loc 2 866 3 view .LVU98
 382              	.LBE13:
 383              	.LBE12:
 273:Core/Src/freertos.c ****   {
 384              		.loc 1 273 3 is_stmt 1 view .LVU99
 273:Core/Src/freertos.c ****   {
 385              		.loc 1 273 6 is_stmt 0 view .LVU100
 386 001a 2D4B     		ldr	r3, .L46+4
 387 001c 9842     		cmp	r0, r3
 388 001e 00D0     		beq	.L45
 389              	.LVL40:
 390              	.L30:
 313:Core/Src/freertos.c **** //---------------------------------- NETWORK END
 391              		.loc 1 313 1 view .LVU101
 392 0020 F8BD     		pop	{r3, r4, r5, r6, r7, pc}
 393              	.LVL41:
 394              	.L45:
 313:Core/Src/freertos.c **** //---------------------------------- NETWORK END
 395              		.loc 1 313 1 view .LVU102
 396 0022 0546     		mov	r5, r0
 275:Core/Src/freertos.c ****     {
 397              		.loc 1 275 5 is_stmt 1 view .LVU103
 398              	.LBB14:
 275:Core/Src/freertos.c ****     {
 399              		.loc 1 275 10 view .LVU104
 400              	.LVL42:
 275:Core/Src/freertos.c ****     {
 401              		.loc 1 275 14 is_stmt 0 view .LVU105
 402 0024 3446     		mov	r4, r6
 275:Core/Src/freertos.c ****     {
 403              		.loc 1 275 5 view .LVU106
 404 0026 07E0     		b	.L32
 405              	.LVL43:
 406              	.L41:
 281:Core/Src/freertos.c ****         asm("NOP");
 407              		.loc 1 281 9 is_stmt 1 view .LVU107
 408 0028 2A4B     		ldr	r3, .L46+8
 409 002a 1A88     		ldrh	r2, [r3]
 410 002c A1B2     		uxth	r1, r4
 411 002e 2846     		mov	r0, r5
 412 0030 FFF7FEFF 		bl	ModbusSS_SetWord
 413              	.LVL44:
 282:Core/Src/freertos.c ****         break;
 414              		.loc 1 282 9 view .LVU108
ARM GAS  C:\Users\VIDCOM~1\AppData\Local\Temp\cc4j4Ttx.s 			page 33


 415              		.syntax unified
 416              	@ 282 "Core/Src/freertos.c" 1
 417 0034 00BF     		NOP
 418              	@ 0 "" 2
 283:Core/Src/freertos.c ****       case MBP_reg_2:
 419              		.loc 1 283 9 view .LVU109
 420              		.thumb
 421              		.syntax unified
 422              	.L33:
 275:Core/Src/freertos.c ****     {
 423              		.loc 1 275 44 discriminator 2 view .LVU110
 424 0036 0134     		adds	r4, r4, #1
 425              	.LVL45:
 426              	.L32:
 275:Core/Src/freertos.c ****     {
 427              		.loc 1 275 25 discriminator 1 view .LVU111
 275:Core/Src/freertos.c ****     {
 428              		.loc 1 275 31 is_stmt 0 discriminator 1 view .LVU112
 429 0038 BB19     		adds	r3, r7, r6
 275:Core/Src/freertos.c ****     {
 430              		.loc 1 275 25 discriminator 1 view .LVU113
 431 003a A342     		cmp	r3, r4
 432 003c F0DD     		ble	.L30
 277:Core/Src/freertos.c ****       switch (r)
 433              		.loc 1 277 7 is_stmt 1 view .LVU114
 434              		.syntax unified
 435              	@ 277 "Core/Src/freertos.c" 1
 436 003e 00BF     		NOP
 437              	@ 0 "" 2
 278:Core/Src/freertos.c ****       {
 438              		.loc 1 278 7 view .LVU115
 439              		.thumb
 440              		.syntax unified
 441 0040 A4F58073 		sub	r3, r4, #256
 442 0044 062B     		cmp	r3, #6
 443 0046 F6D8     		bhi	.L33
 444 0048 01A2     		adr	r2, .L35
 445 004a 52F823F0 		ldr	pc, [r2, r3, lsl #2]
 446 004e 00BF     		.p2align 2
 447              	.L35:
 448 0050 29000000 		.word	.L41+1
 449 0054 6D000000 		.word	.L40+1
 450 0058 7D000000 		.word	.L39+1
 451 005c 8D000000 		.word	.L38+1
 452 0060 9D000000 		.word	.L37+1
 453 0064 AD000000 		.word	.L36+1
 454 0068 BD000000 		.word	.L34+1
 455              		.p2align 1
 456              	.L40:
 285:Core/Src/freertos.c ****         asm("NOP");
 457              		.loc 1 285 9 view .LVU116
 458 006c 194B     		ldr	r3, .L46+8
 459 006e 5A88     		ldrh	r2, [r3, #2]
 460 0070 A1B2     		uxth	r1, r4
 461 0072 2846     		mov	r0, r5
 462 0074 FFF7FEFF 		bl	ModbusSS_SetWord
 463              	.LVL46:
ARM GAS  C:\Users\VIDCOM~1\AppData\Local\Temp\cc4j4Ttx.s 			page 34


 286:Core/Src/freertos.c ****         break;
 464              		.loc 1 286 9 view .LVU117
 465              		.syntax unified
 466              	@ 286 "Core/Src/freertos.c" 1
 467 0078 00BF     		NOP
 468              	@ 0 "" 2
 287:Core/Src/freertos.c ****       case MBP_reg_3:
 469              		.loc 1 287 9 view .LVU118
 470              		.thumb
 471              		.syntax unified
 472 007a DCE7     		b	.L33
 473              	.L39:
 289:Core/Src/freertos.c ****         asm("NOP");
 474              		.loc 1 289 9 view .LVU119
 475 007c 154B     		ldr	r3, .L46+8
 476 007e 9A88     		ldrh	r2, [r3, #4]
 477 0080 A1B2     		uxth	r1, r4
 478 0082 2846     		mov	r0, r5
 479 0084 FFF7FEFF 		bl	ModbusSS_SetWord
 480              	.LVL47:
 290:Core/Src/freertos.c ****         break;
 481              		.loc 1 290 9 view .LVU120
 482              		.syntax unified
 483              	@ 290 "Core/Src/freertos.c" 1
 484 0088 00BF     		NOP
 485              	@ 0 "" 2
 291:Core/Src/freertos.c ****       case MBP_reg_4:
 486              		.loc 1 291 9 view .LVU121
 487              		.thumb
 488              		.syntax unified
 489 008a D4E7     		b	.L33
 490              	.L38:
 293:Core/Src/freertos.c ****         asm("NOP");
 491              		.loc 1 293 9 view .LVU122
 492 008c 114B     		ldr	r3, .L46+8
 493 008e DA88     		ldrh	r2, [r3, #6]
 494 0090 A1B2     		uxth	r1, r4
 495 0092 2846     		mov	r0, r5
 496 0094 FFF7FEFF 		bl	ModbusSS_SetWord
 497              	.LVL48:
 294:Core/Src/freertos.c ****         break;
 498              		.loc 1 294 9 view .LVU123
 499              		.syntax unified
 500              	@ 294 "Core/Src/freertos.c" 1
 501 0098 00BF     		NOP
 502              	@ 0 "" 2
 295:Core/Src/freertos.c ****       case MBP_reg_5:
 503              		.loc 1 295 9 view .LVU124
 504              		.thumb
 505              		.syntax unified
 506 009a CCE7     		b	.L33
 507              	.L37:
 297:Core/Src/freertos.c ****         asm("NOP");
 508              		.loc 1 297 9 view .LVU125
 509 009c 0D4B     		ldr	r3, .L46+8
 510 009e 1A89     		ldrh	r2, [r3, #8]
 511 00a0 A1B2     		uxth	r1, r4
ARM GAS  C:\Users\VIDCOM~1\AppData\Local\Temp\cc4j4Ttx.s 			page 35


 512 00a2 2846     		mov	r0, r5
 513 00a4 FFF7FEFF 		bl	ModbusSS_SetWord
 514              	.LVL49:
 298:Core/Src/freertos.c ****         break;
 515              		.loc 1 298 9 view .LVU126
 516              		.syntax unified
 517              	@ 298 "Core/Src/freertos.c" 1
 518 00a8 00BF     		NOP
 519              	@ 0 "" 2
 299:Core/Src/freertos.c ****       case MBP_reg_6:
 520              		.loc 1 299 9 view .LVU127
 521              		.thumb
 522              		.syntax unified
 523 00aa C4E7     		b	.L33
 524              	.L36:
 301:Core/Src/freertos.c ****         asm("NOP");
 525              		.loc 1 301 9 view .LVU128
 526 00ac 0A4B     		ldr	r3, .L46+12
 527 00ae 1A88     		ldrh	r2, [r3]
 528 00b0 A1B2     		uxth	r1, r4
 529 00b2 2846     		mov	r0, r5
 530 00b4 FFF7FEFF 		bl	ModbusSS_SetWord
 531              	.LVL50:
 302:Core/Src/freertos.c ****         break;
 532              		.loc 1 302 9 view .LVU129
 533              		.syntax unified
 534              	@ 302 "Core/Src/freertos.c" 1
 535 00b8 00BF     		NOP
 536              	@ 0 "" 2
 303:Core/Src/freertos.c ****       case MBP_reg_7:
 537              		.loc 1 303 9 view .LVU130
 538              		.thumb
 539              		.syntax unified
 540 00ba BCE7     		b	.L33
 541              	.L34:
 305:Core/Src/freertos.c ****         asm("NOP");
 542              		.loc 1 305 9 view .LVU131
 543 00bc 074B     		ldr	r3, .L46+16
 544 00be 1A78     		ldrb	r2, [r3]	@ zero_extendqisi2
 545 00c0 A1B2     		uxth	r1, r4
 546 00c2 2846     		mov	r0, r5
 547 00c4 FFF7FEFF 		bl	ModbusSS_SetWord
 548              	.LVL51:
 306:Core/Src/freertos.c ****         break;
 549              		.loc 1 306 9 view .LVU132
 550              		.syntax unified
 551              	@ 306 "Core/Src/freertos.c" 1
 552 00c8 00BF     		NOP
 553              	@ 0 "" 2
 307:Core/Src/freertos.c ****       default:
 554              		.loc 1 307 9 view .LVU133
 555              		.thumb
 556              		.syntax unified
 557 00ca B4E7     		b	.L33
 558              	.L47:
 559              		.align	2
 560              	.L46:
ARM GAS  C:\Users\VIDCOM~1\AppData\Local\Temp\cc4j4Ttx.s 			page 36


 561 00cc 000C0140 		.word	1073810432
 562 00d0 00000000 		.word	modbusTableHolding1
 563 00d4 00000000 		.word	mdb_reg_buf
 564 00d8 00000000 		.word	mdb_err_cnt
 565 00dc 00000000 		.word	mdb_err_code
 566              	.LBE14:
 567              		.cfi_endproc
 568              	.LFE582:
 570              		.section	.text.taskMdbEntry,"ax",%progbits
 571              		.align	1
 572              		.global	taskMdbEntry
 573              		.syntax unified
 574              		.thumb
 575              		.thumb_func
 577              	taskMdbEntry:
 578              	.LFB583:
 348:Core/Src/freertos.c ****   /* USER CODE BEGIN taskMdbEntry */
 579              		.loc 1 348 1 view -0
 580              		.cfi_startproc
 581              		@ Volatile: function does not return.
 582              		@ args = 0, pretend = 0, frame = 0
 583              		@ frame_needed = 0, uses_anonymous_args = 0
 584              	.LVL52:
 348:Core/Src/freertos.c ****   /* USER CODE BEGIN taskMdbEntry */
 585              		.loc 1 348 1 is_stmt 0 view .LVU135
 586 0000 08B5     		push	{r3, lr}
 587              	.LCFI4:
 588              		.cfi_def_cfa_offset 8
 589              		.cfi_offset 3, -8
 590              		.cfi_offset 14, -4
 591 0002 19E0     		b	.L49
 592              	.LVL53:
 593              	.L54:
 594              	.LBB15:
 362:Core/Src/freertos.c ****       {
 595              		.loc 1 362 7 is_stmt 1 view .LVU136
 362:Core/Src/freertos.c ****       {
 596              		.loc 1 362 30 is_stmt 0 view .LVU137
 597 0004 264A     		ldr	r2, .L55
 598 0006 1388     		ldrh	r3, [r2]
 599 0008 591C     		adds	r1, r3, #1
 600 000a 1180     		strh	r1, [r2]	@ movhi
 362:Core/Src/freertos.c ****       {
 601              		.loc 1 362 10 view .LVU138
 602 000c B3F5FA6F 		cmp	r3, #2000
 603 0010 12D9     		bls	.L49
 364:Core/Src/freertos.c ****         mdb_wait_rx_flag = flagReset;
 604              		.loc 1 364 9 is_stmt 1 view .LVU139
 605 0012 2448     		ldr	r0, .L55+4
 606 0014 FFF7FEFF 		bl	HAL_UART_AbortReceive_IT
 607              	.LVL54:
 365:Core/Src/freertos.c ****         mdb_respons_timeout = 0;
 608              		.loc 1 365 9 view .LVU140
 365:Core/Src/freertos.c ****         mdb_respons_timeout = 0;
 609              		.loc 1 365 26 is_stmt 0 view .LVU141
 610 0018 0023     		movs	r3, #0
 611 001a 234A     		ldr	r2, .L55+8
ARM GAS  C:\Users\VIDCOM~1\AppData\Local\Temp\cc4j4Ttx.s 			page 37


 612 001c 1370     		strb	r3, [r2]
 366:Core/Src/freertos.c ****         mdb_err_cnt++;
 613              		.loc 1 366 9 is_stmt 1 view .LVU142
 366:Core/Src/freertos.c ****         mdb_err_cnt++;
 614              		.loc 1 366 29 is_stmt 0 view .LVU143
 615 001e 204A     		ldr	r2, .L55
 616 0020 1380     		strh	r3, [r2]	@ movhi
 367:Core/Src/freertos.c ****         mdb_err_code = timeout;
 617              		.loc 1 367 9 is_stmt 1 view .LVU144
 367:Core/Src/freertos.c ****         mdb_err_code = timeout;
 618              		.loc 1 367 20 is_stmt 0 view .LVU145
 619 0022 224A     		ldr	r2, .L55+12
 620 0024 1388     		ldrh	r3, [r2]
 621 0026 0133     		adds	r3, r3, #1
 622 0028 1380     		strh	r3, [r2]	@ movhi
 368:Core/Src/freertos.c ****       }
 623              		.loc 1 368 9 is_stmt 1 view .LVU146
 368:Core/Src/freertos.c ****       }
 624              		.loc 1 368 22 is_stmt 0 view .LVU147
 625 002a 214B     		ldr	r3, .L55+16
 626 002c 0B22     		movs	r2, #11
 627 002e 1A70     		strb	r2, [r3]
 628 0030 02E0     		b	.L49
 629              	.L52:
 390:Core/Src/freertos.c ****     }
 630              		.loc 1 390 7 is_stmt 1 view .LVU148
 390:Core/Src/freertos.c ****     }
 631              		.loc 1 390 20 is_stmt 0 view .LVU149
 632 0032 204B     		ldr	r3, .L55+20
 633 0034 0022     		movs	r2, #0
 634 0036 1A80     		strh	r2, [r3]	@ movhi
 635              	.L49:
 636              	.LBE15:
 353:Core/Src/freertos.c ****   {
 637              		.loc 1 353 3 is_stmt 1 view .LVU150
 638              	.LBB16:
 355:Core/Src/freertos.c ****     static uint16_t mdb_respons_timeout = 0;
 639              		.loc 1 355 5 view .LVU151
 356:Core/Src/freertos.c ****     static uint16_t crc = 0;
 640              		.loc 1 356 5 view .LVU152
 357:Core/Src/freertos.c ****     osDelay(1);
 641              		.loc 1 357 5 view .LVU153
 358:Core/Src/freertos.c **** 
 642              		.loc 1 358 5 view .LVU154
 643 0038 0120     		movs	r0, #1
 644 003a FFF7FEFF 		bl	osDelay
 645              	.LVL55:
 360:Core/Src/freertos.c ****     {
 646              		.loc 1 360 5 view .LVU155
 360:Core/Src/freertos.c ****     {
 647              		.loc 1 360 26 is_stmt 0 view .LVU156
 648 003e 1A4B     		ldr	r3, .L55+8
 649 0040 1B78     		ldrb	r3, [r3]	@ zero_extendqisi2
 360:Core/Src/freertos.c ****     {
 650              		.loc 1 360 8 view .LVU157
 651 0042 012B     		cmp	r3, #1
 652 0044 DED0     		beq	.L54
ARM GAS  C:\Users\VIDCOM~1\AppData\Local\Temp\cc4j4Ttx.s 			page 38


 371:Core/Src/freertos.c ****     {
 653              		.loc 1 371 10 is_stmt 1 view .LVU158
 371:Core/Src/freertos.c ****     {
 654              		.loc 1 371 26 is_stmt 0 view .LVU159
 655 0046 1B4A     		ldr	r2, .L55+20
 656 0048 1388     		ldrh	r3, [r2]
 657 004a 591C     		adds	r1, r3, #1
 658 004c 1180     		strh	r1, [r2]	@ movhi
 371:Core/Src/freertos.c ****     {
 659              		.loc 1 371 13 view .LVU160
 660 004e FA2B     		cmp	r3, #250
 661 0050 F2D9     		bls	.L49
 374:Core/Src/freertos.c ****       modbusBufTxRtu485[function_TX] = MDB_RTU_TX_FUNCTION;
 662              		.loc 1 374 7 is_stmt 1 view .LVU161
 374:Core/Src/freertos.c ****       modbusBufTxRtu485[function_TX] = MDB_RTU_TX_FUNCTION;
 663              		.loc 1 374 36 is_stmt 0 view .LVU162
 664 0052 194C     		ldr	r4, .L55+24
 665 0054 0126     		movs	r6, #1
 666 0056 2670     		strb	r6, [r4]
 375:Core/Src/freertos.c ****       modbusBufTxRtu485[adress_first_reg_HB_TX] = 0x00;
 667              		.loc 1 375 7 is_stmt 1 view .LVU163
 375:Core/Src/freertos.c ****       modbusBufTxRtu485[adress_first_reg_HB_TX] = 0x00;
 668              		.loc 1 375 38 is_stmt 0 view .LVU164
 669 0058 0423     		movs	r3, #4
 670 005a 6370     		strb	r3, [r4, #1]
 376:Core/Src/freertos.c ****       modbusBufTxRtu485[adress_first_reg_LB_TX] = MDB_RTU_TX_REG_ADRES;
 671              		.loc 1 376 7 is_stmt 1 view .LVU165
 376:Core/Src/freertos.c ****       modbusBufTxRtu485[adress_first_reg_LB_TX] = MDB_RTU_TX_REG_ADRES;
 672              		.loc 1 376 49 is_stmt 0 view .LVU166
 673 005c 0025     		movs	r5, #0
 674 005e A570     		strb	r5, [r4, #2]
 377:Core/Src/freertos.c ****       modbusBufTxRtu485[count_reg_HB_TX] = 0x00;
 675              		.loc 1 377 7 is_stmt 1 view .LVU167
 377:Core/Src/freertos.c ****       modbusBufTxRtu485[count_reg_HB_TX] = 0x00;
 676              		.loc 1 377 49 is_stmt 0 view .LVU168
 677 0060 E670     		strb	r6, [r4, #3]
 378:Core/Src/freertos.c ****       modbusBufTxRtu485[count_reg_LB_TX] = MDB_RTU_TX_REG_QANT;
 678              		.loc 1 378 7 is_stmt 1 view .LVU169
 378:Core/Src/freertos.c ****       modbusBufTxRtu485[count_reg_LB_TX] = MDB_RTU_TX_REG_QANT;
 679              		.loc 1 378 42 is_stmt 0 view .LVU170
 680 0062 2571     		strb	r5, [r4, #4]
 379:Core/Src/freertos.c ****       crc = _Crc16_mdb(modbusBufTxRtu485, 6);
 681              		.loc 1 379 7 is_stmt 1 view .LVU171
 379:Core/Src/freertos.c ****       crc = _Crc16_mdb(modbusBufTxRtu485, 6);
 682              		.loc 1 379 42 is_stmt 0 view .LVU172
 683 0064 0523     		movs	r3, #5
 684 0066 6371     		strb	r3, [r4, #5]
 380:Core/Src/freertos.c ****       modbusBufTxRtu485[CRC_LB_TX] = (uint8_t)crc;
 685              		.loc 1 380 7 is_stmt 1 view .LVU173
 380:Core/Src/freertos.c ****       modbusBufTxRtu485[CRC_LB_TX] = (uint8_t)crc;
 686              		.loc 1 380 13 is_stmt 0 view .LVU174
 687 0068 0621     		movs	r1, #6
 688 006a 2046     		mov	r0, r4
 689 006c FFF7FEFF 		bl	_Crc16_mdb
 690              	.LVL56:
 380:Core/Src/freertos.c ****       modbusBufTxRtu485[CRC_LB_TX] = (uint8_t)crc;
 691              		.loc 1 380 11 view .LVU175
ARM GAS  C:\Users\VIDCOM~1\AppData\Local\Temp\cc4j4Ttx.s 			page 39


 692 0070 124B     		ldr	r3, .L55+28
 693 0072 1880     		strh	r0, [r3]	@ movhi
 381:Core/Src/freertos.c ****       modbusBufTxRtu485[CRC_HB_TX] = (uint8_t)(crc >> 8);
 694              		.loc 1 381 7 is_stmt 1 view .LVU176
 381:Core/Src/freertos.c ****       modbusBufTxRtu485[CRC_HB_TX] = (uint8_t)(crc >> 8);
 695              		.loc 1 381 36 is_stmt 0 view .LVU177
 696 0074 A071     		strb	r0, [r4, #6]
 382:Core/Src/freertos.c **** 
 697              		.loc 1 382 7 is_stmt 1 view .LVU178
 382:Core/Src/freertos.c **** 
 698              		.loc 1 382 38 is_stmt 0 view .LVU179
 699 0076 000A     		lsrs	r0, r0, #8
 382:Core/Src/freertos.c **** 
 700              		.loc 1 382 36 view .LVU180
 701 0078 E071     		strb	r0, [r4, #7]
 384:Core/Src/freertos.c ****       mdb_respons_timeout = 0;
 702              		.loc 1 384 7 is_stmt 1 view .LVU181
 384:Core/Src/freertos.c ****       mdb_respons_timeout = 0;
 703              		.loc 1 384 24 is_stmt 0 view .LVU182
 704 007a 0B4B     		ldr	r3, .L55+8
 705 007c 1E70     		strb	r6, [r3]
 385:Core/Src/freertos.c ****       if (HAL_UART_Transmit(&huart1, modbusBufTxRtu485, MDB_RTU_TX_COUNT_BYTE, 2) == HAL_OK)
 706              		.loc 1 385 7 is_stmt 1 view .LVU183
 385:Core/Src/freertos.c ****       if (HAL_UART_Transmit(&huart1, modbusBufTxRtu485, MDB_RTU_TX_COUNT_BYTE, 2) == HAL_OK)
 707              		.loc 1 385 27 is_stmt 0 view .LVU184
 708 007e 084B     		ldr	r3, .L55
 709 0080 1D80     		strh	r5, [r3]	@ movhi
 386:Core/Src/freertos.c ****       {
 710              		.loc 1 386 7 is_stmt 1 view .LVU185
 386:Core/Src/freertos.c ****       {
 711              		.loc 1 386 11 is_stmt 0 view .LVU186
 712 0082 0223     		movs	r3, #2
 713 0084 0822     		movs	r2, #8
 714 0086 2146     		mov	r1, r4
 715 0088 0648     		ldr	r0, .L55+4
 716 008a FFF7FEFF 		bl	HAL_UART_Transmit
 717              	.LVL57:
 386:Core/Src/freertos.c ****       {
 718              		.loc 1 386 10 view .LVU187
 719 008e 0028     		cmp	r0, #0
 720 0090 CFD1     		bne	.L52
 388:Core/Src/freertos.c ****       }
 721              		.loc 1 388 9 is_stmt 1 view .LVU188
 722 0092 0F22     		movs	r2, #15
 723 0094 0A49     		ldr	r1, .L55+32
 724 0096 0348     		ldr	r0, .L55+4
 725 0098 FFF7FEFF 		bl	HAL_UART_Receive_IT
 726              	.LVL58:
 727 009c C9E7     		b	.L52
 728              	.L56:
 729 009e 00BF     		.align	2
 730              	.L55:
 731 00a0 00000000 		.word	mdb_respons_timeout.2
 732 00a4 00000000 		.word	huart1
 733 00a8 00000000 		.word	mdb_wait_rx_flag
 734 00ac 00000000 		.word	mdb_err_cnt
 735 00b0 00000000 		.word	mdb_err_code
ARM GAS  C:\Users\VIDCOM~1\AppData\Local\Temp\cc4j4Ttx.s 			page 40


 736 00b4 00000000 		.word	mdb_req_time.1
 737 00b8 00000000 		.word	modbusBufTxRtu485
 738 00bc 00000000 		.word	crc.0
 739 00c0 00000000 		.word	modbusBufRxRtu485
 740              	.LBE16:
 741              		.cfi_endproc
 742              	.LFE583:
 744              		.section	.text.MX_FREERTOS_Init,"ax",%progbits
 745              		.align	1
 746              		.global	MX_FREERTOS_Init
 747              		.syntax unified
 748              		.thumb
 749              		.thumb_func
 751              	MX_FREERTOS_Init:
 752              	.LFB578:
 145:Core/Src/freertos.c ****   /* USER CODE BEGIN Init */
 753              		.loc 1 145 1 view -0
 754              		.cfi_startproc
 755              		@ args = 0, pretend = 0, frame = 0
 756              		@ frame_needed = 0, uses_anonymous_args = 0
 757 0000 08B5     		push	{r3, lr}
 758              	.LCFI5:
 759              		.cfi_def_cfa_offset 8
 760              		.cfi_offset 3, -8
 761              		.cfi_offset 14, -4
 168:Core/Src/freertos.c **** 
 762              		.loc 1 168 3 view .LVU190
 168:Core/Src/freertos.c **** 
 763              		.loc 1 168 23 is_stmt 0 view .LVU191
 764 0002 0B4A     		ldr	r2, .L59
 765 0004 0021     		movs	r1, #0
 766 0006 0B48     		ldr	r0, .L59+4
 767 0008 FFF7FEFF 		bl	osThreadNew
 768              	.LVL59:
 168:Core/Src/freertos.c **** 
 769              		.loc 1 168 21 view .LVU192
 770 000c 0A4B     		ldr	r3, .L59+8
 771 000e 1860     		str	r0, [r3]
 171:Core/Src/freertos.c ****   taskMdbHandle = osThreadNew(taskMdbEntry, NULL, &taskMdb_attributes);
 772              		.loc 1 171 3 is_stmt 1 view .LVU193
 171:Core/Src/freertos.c ****   taskMdbHandle = osThreadNew(taskMdbEntry, NULL, &taskMdb_attributes);
 773              		.loc 1 171 19 is_stmt 0 view .LVU194
 774 0010 0A4A     		ldr	r2, .L59+12
 775 0012 0021     		movs	r1, #0
 776 0014 0A48     		ldr	r0, .L59+16
 777 0016 FFF7FEFF 		bl	osThreadNew
 778              	.LVL60:
 171:Core/Src/freertos.c ****   taskMdbHandle = osThreadNew(taskMdbEntry, NULL, &taskMdb_attributes);
 779              		.loc 1 171 17 view .LVU195
 780 001a 0A4B     		ldr	r3, .L59+20
 781 001c 1860     		str	r0, [r3]
 172:Core/Src/freertos.c **** 
 782              		.loc 1 172 3 is_stmt 1 view .LVU196
 172:Core/Src/freertos.c **** 
 783              		.loc 1 172 19 is_stmt 0 view .LVU197
 784 001e 0A4A     		ldr	r2, .L59+24
 785 0020 0021     		movs	r1, #0
ARM GAS  C:\Users\VIDCOM~1\AppData\Local\Temp\cc4j4Ttx.s 			page 41


 786 0022 0A48     		ldr	r0, .L59+28
 787 0024 FFF7FEFF 		bl	osThreadNew
 788              	.LVL61:
 172:Core/Src/freertos.c **** 
 789              		.loc 1 172 17 view .LVU198
 790 0028 094B     		ldr	r3, .L59+32
 791 002a 1860     		str	r0, [r3]
 174:Core/Src/freertos.c ****   /* USER CODE END RTOS_THREADS */
 792              		.loc 1 174 3 is_stmt 1 view .LVU199
 793              		.syntax unified
 794              	@ 174 "Core/Src/freertos.c" 1
 795 002c 00BF     		NOP
 796              	@ 0 "" 2
 180:Core/Src/freertos.c **** 
 797              		.loc 1 180 1 is_stmt 0 view .LVU200
 798              		.thumb
 799              		.syntax unified
 800 002e 08BD     		pop	{r3, pc}
 801              	.L60:
 802              		.align	2
 803              	.L59:
 804 0030 00000000 		.word	defaultTask_attributes
 805 0034 00000000 		.word	StartDefaultTask
 806 0038 00000000 		.word	defaultTaskHandle
 807 003c 00000000 		.word	taskNet_attributes
 808 0040 00000000 		.word	taskNetEntry
 809 0044 00000000 		.word	taskNetHandle
 810 0048 00000000 		.word	taskMdb_attributes
 811 004c 00000000 		.word	taskMdbEntry
 812 0050 00000000 		.word	taskMdbHandle
 813              		.cfi_endproc
 814              	.LFE578:
 816              		.section	.text.HAL_UART_RxCpltCallback,"ax",%progbits
 817              		.align	1
 818              		.global	HAL_UART_RxCpltCallback
 819              		.syntax unified
 820              		.thumb
 821              		.thumb_func
 823              	HAL_UART_RxCpltCallback:
 824              	.LVL62:
 825              	.LFB584:
 412:Core/Src/freertos.c ****   uint8_t mdb_err = noErr;
 826              		.loc 1 412 1 is_stmt 1 view -0
 827              		.cfi_startproc
 828              		@ args = 0, pretend = 0, frame = 0
 829              		@ frame_needed = 0, uses_anonymous_args = 0
 412:Core/Src/freertos.c ****   uint8_t mdb_err = noErr;
 830              		.loc 1 412 1 is_stmt 0 view .LVU202
 831 0000 10B5     		push	{r4, lr}
 832              	.LCFI6:
 833              		.cfi_def_cfa_offset 8
 834              		.cfi_offset 4, -8
 835              		.cfi_offset 14, -4
 413:Core/Src/freertos.c ****   uint16_t calculated_CRC = 0;
 836              		.loc 1 413 3 is_stmt 1 view .LVU203
 837              	.LVL63:
 414:Core/Src/freertos.c ****   uint16_t resive_CRC = 0;
ARM GAS  C:\Users\VIDCOM~1\AppData\Local\Temp\cc4j4Ttx.s 			page 42


 838              		.loc 1 414 3 view .LVU204
 415:Core/Src/freertos.c **** 
 839              		.loc 1 415 3 view .LVU205
 417:Core/Src/freertos.c **** 
 840              		.loc 1 417 3 view .LVU206
 417:Core/Src/freertos.c **** 
 841              		.loc 1 417 20 is_stmt 0 view .LVU207
 842 0002 244C     		ldr	r4, .L72
 843 0004 0D21     		movs	r1, #13
 844 0006 2046     		mov	r0, r4
 845              	.LVL64:
 417:Core/Src/freertos.c **** 
 846              		.loc 1 417 20 view .LVU208
 847 0008 FFF7FEFF 		bl	_Crc16_mdb
 848              	.LVL65:
 419:Core/Src/freertos.c ****   resive_CRC |= (uint16_t)(modbusBufRxRtu485[CRC_HB_RX] << 8);
 849              		.loc 1 419 3 is_stmt 1 view .LVU209
 419:Core/Src/freertos.c ****   resive_CRC |= (uint16_t)(modbusBufRxRtu485[CRC_HB_RX] << 8);
 850              		.loc 1 419 45 is_stmt 0 view .LVU210
 851 000c 637B     		ldrb	r3, [r4, #13]	@ zero_extendqisi2
 852              	.LVL66:
 420:Core/Src/freertos.c **** 
 853              		.loc 1 420 3 is_stmt 1 view .LVU211
 420:Core/Src/freertos.c **** 
 854              		.loc 1 420 45 is_stmt 0 view .LVU212
 855 000e A27B     		ldrb	r2, [r4, #14]	@ zero_extendqisi2
 420:Core/Src/freertos.c **** 
 856              		.loc 1 420 14 view .LVU213
 857 0010 43EA0223 		orr	r3, r3, r2, lsl #8
 858              	.LVL67:
 422:Core/Src/freertos.c ****   {
 859              		.loc 1 422 3 is_stmt 1 view .LVU214
 422:Core/Src/freertos.c ****   {
 860              		.loc 1 422 6 is_stmt 0 view .LVU215
 861 0014 9842     		cmp	r0, r3
 862 0016 15D0     		beq	.L71
 424:Core/Src/freertos.c ****   }
 863              		.loc 1 424 13 view .LVU216
 864 0018 4FF0030C 		mov	ip, #3
 865              	.L62:
 866              	.LVL68:
 428:Core/Src/freertos.c ****   {
 867              		.loc 1 428 3 is_stmt 1 view .LVU217
 428:Core/Src/freertos.c ****   {
 868              		.loc 1 428 20 is_stmt 0 view .LVU218
 869 001c 1E4B     		ldr	r3, .L72+4
 870              	.LVL69:
 428:Core/Src/freertos.c ****   {
 871              		.loc 1 428 20 view .LVU219
 872 001e 1B78     		ldrb	r3, [r3]	@ zero_extendqisi2
 428:Core/Src/freertos.c ****   {
 873              		.loc 1 428 6 view .LVU220
 874 0020 EBB1     		cbz	r3, .L69
 875              	.LVL70:
 876              	.L64:
 442:Core/Src/freertos.c ****   BSP_LED3_TOGGLE();
 877              		.loc 1 442 3 is_stmt 1 view .LVU221
ARM GAS  C:\Users\VIDCOM~1\AppData\Local\Temp\cc4j4Ttx.s 			page 43


 442:Core/Src/freertos.c ****   BSP_LED3_TOGGLE();
 878              		.loc 1 442 20 is_stmt 0 view .LVU222
 879 0022 1E4B     		ldr	r3, .L72+8
 880 0024 0022     		movs	r2, #0
 881 0026 1A70     		strb	r2, [r3]
 443:Core/Src/freertos.c ****   mdb_err_code = mdb_err;
 882              		.loc 1 443 3 is_stmt 1 view .LVU223
 883              	.LVL71:
 884              	.LBB17:
 885              	.LBI17:
 862:Drivers/STM32F1xx_HAL_Driver/Inc/stm32f1xx_ll_gpio.h **** {
 886              		.loc 2 862 22 view .LVU224
 887              	.LBB18:
 864:Drivers/STM32F1xx_HAL_Driver/Inc/stm32f1xx_ll_gpio.h ****   uint32_t pinmask = ((PinMask >> GPIO_PIN_MASK_POS) & 0x0000FFFFU);
 888              		.loc 2 864 3 view .LVU225
 864:Drivers/STM32F1xx_HAL_Driver/Inc/stm32f1xx_ll_gpio.h ****   uint32_t pinmask = ((PinMask >> GPIO_PIN_MASK_POS) & 0x0000FFFFU);
 889              		.loc 2 864 12 is_stmt 0 view .LVU226
 890 0028 1D49     		ldr	r1, .L72+12
 891 002a CB68     		ldr	r3, [r1, #12]
 892              	.LVL72:
 865:Drivers/STM32F1xx_HAL_Driver/Inc/stm32f1xx_ll_gpio.h ****   WRITE_REG(GPIOx->BSRR, ((odr & pinmask) << 16u) | (~odr & pinmask));
 893              		.loc 2 865 3 is_stmt 1 view .LVU227
 894              		.loc 2 866 3 view .LVU228
 895 002c 1A04     		lsls	r2, r3, #16
 896 002e 02F00042 		and	r2, r2, #-2147483648
 897 0032 DB43     		mvns	r3, r3
 898              	.LVL73:
 899              		.loc 2 866 3 is_stmt 0 view .LVU229
 900 0034 03F40043 		and	r3, r3, #32768
 901              	.LVL74:
 902              		.loc 2 866 3 view .LVU230
 903 0038 1343     		orrs	r3, r3, r2
 904 003a 0B61     		str	r3, [r1, #16]
 905              	.LVL75:
 906              		.loc 2 866 3 view .LVU231
 907              	.LBE18:
 908              	.LBE17:
 444:Core/Src/freertos.c **** }
 909              		.loc 1 444 3 is_stmt 1 view .LVU232
 444:Core/Src/freertos.c **** }
 910              		.loc 1 444 16 is_stmt 0 view .LVU233
 911 003c 164B     		ldr	r3, .L72+4
 912 003e 83F800C0 		strb	ip, [r3]
 445:Core/Src/freertos.c **** 
 913              		.loc 1 445 1 view .LVU234
 914 0042 10BD     		pop	{r4, pc}
 915              	.LVL76:
 916              	.L71:
 413:Core/Src/freertos.c ****   uint16_t calculated_CRC = 0;
 917              		.loc 1 413 11 view .LVU235
 918 0044 4FF0000C 		mov	ip, #0
 919 0048 E8E7     		b	.L62
 920              	.LVL77:
 921              	.L65:
 922              	.LBB19:
 432:Core/Src/freertos.c ****     }
 923              		.loc 1 432 7 is_stmt 1 discriminator 3 view .LVU236
ARM GAS  C:\Users\VIDCOM~1\AppData\Local\Temp\cc4j4Ttx.s 			page 44


 432:Core/Src/freertos.c ****     }
 924              		.loc 1 432 22 is_stmt 0 discriminator 3 view .LVU237
 925 004a 1649     		ldr	r1, .L72+16
 926 004c 0020     		movs	r0, #0
 927 004e 21F81200 		strh	r0, [r1, r2, lsl #1]	@ movhi
 430:Core/Src/freertos.c ****     {
 928              		.loc 1 430 51 is_stmt 1 discriminator 3 view .LVU238
 929 0052 0132     		adds	r2, r2, #1
 930              	.LVL78:
 430:Core/Src/freertos.c ****     {
 931              		.loc 1 430 51 is_stmt 0 discriminator 3 view .LVU239
 932 0054 D2B2     		uxtb	r2, r2
 933              	.LVL79:
 934              	.L63:
 430:Core/Src/freertos.c ****     {
 935              		.loc 1 430 27 is_stmt 1 discriminator 1 view .LVU240
 936 0056 042A     		cmp	r2, #4
 937 0058 F7D9     		bls	.L65
 938              	.LBE19:
 939              	.LBB20:
 435:Core/Src/freertos.c ****     {
 940              		.loc 1 435 18 is_stmt 0 view .LVU241
 941 005a 0321     		movs	r1, #3
 942 005c 16E0     		b	.L66
 943              	.LVL80:
 944              	.L69:
 435:Core/Src/freertos.c ****     {
 945              		.loc 1 435 18 view .LVU242
 946              	.LBE20:
 947              	.LBB21:
 430:Core/Src/freertos.c ****     {
 948              		.loc 1 430 18 view .LVU243
 949 005e 1A46     		mov	r2, r3
 950              	.LVL81:
 430:Core/Src/freertos.c ****     {
 951              		.loc 1 430 18 view .LVU244
 952 0060 F9E7     		b	.L63
 953              	.LVL82:
 954              	.L67:
 430:Core/Src/freertos.c ****     {
 955              		.loc 1 430 18 view .LVU245
 956              	.LBE21:
 957              	.LBB22:
 437:Core/Src/freertos.c ****       mdb_reg_buf[i] |= (uint16_t)(modbusBufRxRtu485[ind+1]);
 958              		.loc 1 437 7 is_stmt 1 discriminator 3 view .LVU246
 437:Core/Src/freertos.c ****       mdb_reg_buf[i] |= (uint16_t)(modbusBufRxRtu485[ind+1]);
 959              		.loc 1 437 18 is_stmt 0 discriminator 3 view .LVU247
 960 0062 1048     		ldr	r0, .L72+16
 961 0064 30F81320 		ldrh	r2, [r0, r3, lsl #1]
 437:Core/Src/freertos.c ****       mdb_reg_buf[i] |= (uint16_t)(modbusBufRxRtu485[ind+1]);
 962              		.loc 1 437 53 discriminator 3 view .LVU248
 963 0068 0A4C     		ldr	r4, .L72
 964 006a 14F801E0 		ldrb	lr, [r4, r1]	@ zero_extendqisi2
 437:Core/Src/freertos.c ****       mdb_reg_buf[i] |= (uint16_t)(modbusBufRxRtu485[ind+1]);
 965              		.loc 1 437 22 discriminator 3 view .LVU249
 966 006e 42EA0E22 		orr	r2, r2, lr, lsl #8
 967 0072 20F81320 		strh	r2, [r0, r3, lsl #1]	@ movhi
ARM GAS  C:\Users\VIDCOM~1\AppData\Local\Temp\cc4j4Ttx.s 			page 45


 438:Core/Src/freertos.c ****     }
 968              		.loc 1 438 7 is_stmt 1 discriminator 3 view .LVU250
 438:Core/Src/freertos.c ****     }
 969              		.loc 1 438 57 is_stmt 0 discriminator 3 view .LVU251
 970 0076 01F1010E 		add	lr, r1, #1
 438:Core/Src/freertos.c ****     }
 971              		.loc 1 438 53 discriminator 3 view .LVU252
 972 007a 14F80E40 		ldrb	r4, [r4, lr]	@ zero_extendqisi2
 438:Core/Src/freertos.c ****     }
 973              		.loc 1 438 22 discriminator 3 view .LVU253
 974 007e 2243     		orrs	r2, r2, r4
 975 0080 20F81320 		strh	r2, [r0, r3, lsl #1]	@ movhi
 435:Core/Src/freertos.c ****     {
 976              		.loc 1 435 82 is_stmt 1 discriminator 3 view .LVU254
 435:Core/Src/freertos.c ****     {
 977              		.loc 1 435 79 is_stmt 0 discriminator 3 view .LVU255
 978 0084 0231     		adds	r1, r1, #2
 979              	.LVL83:
 435:Core/Src/freertos.c ****     {
 980              		.loc 1 435 79 discriminator 3 view .LVU256
 981 0086 C9B2     		uxtb	r1, r1
 982              	.LVL84:
 435:Core/Src/freertos.c ****     {
 983              		.loc 1 435 85 discriminator 3 view .LVU257
 984 0088 0133     		adds	r3, r3, #1
 985              	.LVL85:
 435:Core/Src/freertos.c ****     {
 986              		.loc 1 435 85 discriminator 3 view .LVU258
 987 008a DBB2     		uxtb	r3, r3
 988              	.LVL86:
 989              	.L66:
 435:Core/Src/freertos.c ****     {
 990              		.loc 1 435 52 is_stmt 1 discriminator 1 view .LVU259
 991 008c 042B     		cmp	r3, #4
 992 008e E8D9     		bls	.L67
 993 0090 C7E7     		b	.L64
 994              	.L73:
 995 0092 00BF     		.align	2
 996              	.L72:
 997 0094 00000000 		.word	modbusBufRxRtu485
 998 0098 00000000 		.word	mdb_err_code
 999 009c 00000000 		.word	mdb_wait_rx_flag
 1000 00a0 00080140 		.word	1073809408
 1001 00a4 00000000 		.word	mdb_reg_buf
 1002              	.LBE22:
 1003              		.cfi_endproc
 1004              	.LFE584:
 1006              		.section	.bss.crc.0,"aw",%nobits
 1007              		.align	1
 1010              	crc.0:
 1011 0000 0000     		.space	2
 1012              		.section	.bss.mdb_req_time.1,"aw",%nobits
 1013              		.align	1
 1016              	mdb_req_time.1:
 1017 0000 0000     		.space	2
 1018              		.section	.bss.mdb_respons_timeout.2,"aw",%nobits
 1019              		.align	1
ARM GAS  C:\Users\VIDCOM~1\AppData\Local\Temp\cc4j4Ttx.s 			page 46


 1022              	mdb_respons_timeout.2:
 1023 0000 0000     		.space	2
 1024              		.global	defaultTask_attributes
 1025              		.section	.rodata.str1.4,"aMS",%progbits,1
 1026              		.align	2
 1027              	.LC0:
 1028 0000 64656661 		.ascii	"defaultTask\000"
 1028      756C7454 
 1028      61736B00 
 1029              		.section	.rodata.defaultTask_attributes,"a"
 1030              		.align	2
 1033              	defaultTask_attributes:
 1034 0000 00000000 		.word	.LC0
 1035 0004 00000000 		.space	16
 1035      00000000 
 1035      00000000 
 1035      00000000 
 1036 0014 00040000 		.word	1024
 1037 0018 18000000 		.word	24
 1038 001c 00000000 		.space	8
 1038      00000000 
 1039              		.global	defaultTaskHandle
 1040              		.section	.bss.defaultTaskHandle,"aw",%nobits
 1041              		.align	2
 1044              	defaultTaskHandle:
 1045 0000 00000000 		.space	4
 1046              		.global	taskMdb_attributes
 1047              		.section	.rodata.str1.4
 1048              		.align	2
 1049              	.LC1:
 1050 000c 7461736B 		.ascii	"taskMdb\000"
 1050      4D646200 
 1051              		.section	.rodata.taskMdb_attributes,"a"
 1052              		.align	2
 1055              	taskMdb_attributes:
 1056 0000 0C000000 		.word	.LC1
 1057 0004 00000000 		.space	16
 1057      00000000 
 1057      00000000 
 1057      00000000 
 1058 0014 00040000 		.word	1024
 1059 0018 18000000 		.word	24
 1060 001c 00000000 		.space	8
 1060      00000000 
 1061              		.global	taskMdbHandle
 1062              		.section	.bss.taskMdbHandle,"aw",%nobits
 1063              		.align	2
 1066              	taskMdbHandle:
 1067 0000 00000000 		.space	4
 1068              		.global	taskNet_attributes
 1069              		.section	.rodata.str1.4
 1070              		.align	2
 1071              	.LC2:
 1072 0014 7461736B 		.ascii	"taskNet\000"
 1072      4E657400 
 1073              		.section	.rodata.taskNet_attributes,"a"
 1074              		.align	2
ARM GAS  C:\Users\VIDCOM~1\AppData\Local\Temp\cc4j4Ttx.s 			page 47


 1077              	taskNet_attributes:
 1078 0000 14000000 		.word	.LC2
 1079 0004 00000000 		.space	16
 1079      00000000 
 1079      00000000 
 1079      00000000 
 1080 0014 00040000 		.word	1024
 1081 0018 18000000 		.word	24
 1082 001c 00000000 		.space	8
 1082      00000000 
 1083              		.global	taskNetHandle
 1084              		.section	.bss.taskNetHandle,"aw",%nobits
 1085              		.align	2
 1088              	taskNetHandle:
 1089 0000 00000000 		.space	4
 1090              		.global	modbusSS_tcp
 1091              		.section	.data.modbusSS_tcp,"aw"
 1092              		.align	2
 1095              	modbusSS_tcp:
 1096 0000 00000000 		.space	12
 1096      00000000 
 1096      00000000 
 1097 000c 00000000 		.word	modbusHoldingReq
 1098 0010 01       		.byte	1
 1099 0011 000000   		.space	3
 1100 0014 00000000 		.word	modbusBufRxTxTCP
 1101 0018 00000000 		.word	modbusTables
 1102 001c 01       		.byte	1
 1103 001d 01       		.byte	1
 1104 001e 0000     		.space	2
 1105              		.global	modbusTables
 1106              		.section	.data.modbusTables,"aw"
 1107              		.align	2
 1110              	modbusTables:
 1111 0000 00000000 		.word	modbusTableHolding1
 1112              		.global	modbusTableHolding1
 1113              		.section	.data.modbusTableHolding1,"aw"
 1114              		.align	2
 1117              	modbusTableHolding1:
 1118 0000 0001     		.short	256
 1119 0002 0700     		.short	7
 1120 0004 00       		.byte	0
 1121 0005 000000   		.space	3
 1122 0008 00000000 		.word	modbusHoldingBuf
 1123              		.global	mdb_err_code
 1124              		.section	.bss.mdb_err_code,"aw",%nobits
 1127              	mdb_err_code:
 1128 0000 00       		.space	1
 1129              		.global	mdb_err_cnt
 1130              		.section	.bss.mdb_err_cnt,"aw",%nobits
 1131              		.align	1
 1134              	mdb_err_cnt:
 1135 0000 0000     		.space	2
 1136              		.global	mdb_reg_buf
 1137              		.section	.bss.mdb_reg_buf,"aw",%nobits
 1138              		.align	2
 1141              	mdb_reg_buf:
ARM GAS  C:\Users\VIDCOM~1\AppData\Local\Temp\cc4j4Ttx.s 			page 48


 1142 0000 00000000 		.space	10
 1142      00000000 
 1142      0000
 1143              		.global	mdb_wait_rx_flag
 1144              		.section	.bss.mdb_wait_rx_flag,"aw",%nobits
 1147              	mdb_wait_rx_flag:
 1148 0000 00       		.space	1
 1149              		.global	modbusBufRxRtu485
 1150              		.section	.bss.modbusBufRxRtu485,"aw",%nobits
 1151              		.align	2
 1154              	modbusBufRxRtu485:
 1155 0000 00000000 		.space	30
 1155      00000000 
 1155      00000000 
 1155      00000000 
 1155      00000000 
 1156              		.global	modbusBufTxRtu485
 1157              		.section	.bss.modbusBufTxRtu485,"aw",%nobits
 1158              		.align	2
 1161              	modbusBufTxRtu485:
 1162 0000 00000000 		.space	30
 1162      00000000 
 1162      00000000 
 1162      00000000 
 1162      00000000 
 1163              		.global	modbusHoldingBuf
 1164              		.section	.bss.modbusHoldingBuf,"aw",%nobits
 1165              		.align	2
 1168              	modbusHoldingBuf:
 1169 0000 00000000 		.space	14
 1169      00000000 
 1169      00000000 
 1169      0000
 1170              		.global	modbusBufRxTxTCP
 1171              		.section	.bss.modbusBufRxTxTCP,"aw",%nobits
 1172              		.align	2
 1175              	modbusBufRxTxTCP:
 1176 0000 00000000 		.space	260
 1176      00000000 
 1176      00000000 
 1176      00000000 
 1176      00000000 
 1177              		.global	tcpModbusSocket
 1178              		.section	.bss.tcpModbusSocket,"aw",%nobits
 1179              		.align	2
 1182              	tcpModbusSocket:
 1183 0000 00000000 		.space	208
 1183      00000000 
 1183      00000000 
 1183      00000000 
 1183      00000000 
 1184              		.text
 1185              	.Letext0:
 1186              		.file 3 "c:\\vscode\\vscodestmtools\\arm-none-eabi-gcc\\12.2.1-1.2.1\\.content\\arm-none-eabi\\inc
 1187              		.file 4 "c:\\vscode\\vscodestmtools\\arm-none-eabi-gcc\\12.2.1-1.2.1\\.content\\arm-none-eabi\\inc
 1188              		.file 5 "Drivers/CMSIS/Device/ST/STM32F1xx/Include/stm32f103xb.h"
 1189              		.file 6 "Drivers/CMSIS/Device/ST/STM32F1xx/Include/stm32f1xx.h"
ARM GAS  C:\Users\VIDCOM~1\AppData\Local\Temp\cc4j4Ttx.s 			page 49


 1190              		.file 7 "Drivers/STM32F1xx_HAL_Driver/Inc/stm32f1xx_hal_def.h"
 1191              		.file 8 "Drivers/STM32F1xx_HAL_Driver/Inc/stm32f1xx_hal_dma.h"
 1192              		.file 9 "Drivers/STM32F1xx_HAL_Driver/Inc/stm32f1xx_hal_uart.h"
 1193              		.file 10 "Drivers/STM32F1xx_HAL_Driver/Inc/stm32f1xx_ll_tim.h"
 1194              		.file 11 "Drivers/STM32F1xx_HAL_Driver/Inc/stm32f1xx_ll_dma.h"
 1195              		.file 12 "Middlewares/Third_Party/FreeRTOS/Source/CMSIS_RTOS_V2/cmsis_os2.h"
 1196              		.file 13 "Drivers/Ethernet/Eth.h"
 1197              		.file 14 "Drivers/ModbusSS/ModbusSS.h"
 1198              		.file 15 "Drivers/ModbusSS/ModbusProtocol.h"
 1199              		.file 16 "Core/Inc/usart.h"
 1200              		.file 17 "Core/Inc/main.h"
ARM GAS  C:\Users\VIDCOM~1\AppData\Local\Temp\cc4j4Ttx.s 			page 50

