ARM GAS  C:\Users\VIDCOM~1\AppData\Local\Temp\ccpY4rta.s 			page 1


   1              		.cpu cortex-m3
   2              		.arch armv7-m
   3              		.fpu softvfp
   4              		.eabi_attribute 20, 1
   5              		.eabi_attribute 21, 1
   6              		.eabi_attribute 23, 3
   7              		.eabi_attribute 24, 1
   8              		.eabi_attribute 25, 1
   9              		.eabi_attribute 26, 1
  10              		.eabi_attribute 30, 1
  11              		.eabi_attribute 34, 1
  12              		.eabi_attribute 18, 4
  13              		.file	"freertos.c"
  14              		.text
  15              	.Ltext0:
  16              		.cfi_sections	.debug_frame
  17              		.file 1 "Core/Src/freertos.c"
  18              		.section	.text._Crc16_mdb,"ax",%progbits
  19              		.align	1
  20              		.syntax unified
  21              		.thumb
  22              		.thumb_func
  24              	_Crc16_mdb:
  25              	.LVL0:
  26              	.LFB585:
   1:Core/Src/freertos.c **** /* USER CODE BEGIN Header */
   2:Core/Src/freertos.c **** /**
   3:Core/Src/freertos.c ****   ******************************************************************************
   4:Core/Src/freertos.c ****   * File Name          : freertos.c
   5:Core/Src/freertos.c ****   * Description        : Code for freertos applications
   6:Core/Src/freertos.c ****   ******************************************************************************
   7:Core/Src/freertos.c ****   * @attention
   8:Core/Src/freertos.c ****   *
   9:Core/Src/freertos.c ****   * Copyright (c) 2023 STMicroelectronics.
  10:Core/Src/freertos.c ****   * All rights reserved.
  11:Core/Src/freertos.c ****   *
  12:Core/Src/freertos.c ****   * This software is licensed under terms that can be found in the LICENSE file
  13:Core/Src/freertos.c ****   * in the root directory of this software component.
  14:Core/Src/freertos.c ****   * If no LICENSE file comes with this software, it is provided AS-IS.
  15:Core/Src/freertos.c ****   *
  16:Core/Src/freertos.c ****   ******************************************************************************
  17:Core/Src/freertos.c ****   */
  18:Core/Src/freertos.c **** /* USER CODE END Header */
  19:Core/Src/freertos.c **** 
  20:Core/Src/freertos.c **** /* Includes ------------------------------------------------------------------*/
  21:Core/Src/freertos.c **** #include "FreeRTOS.h"
  22:Core/Src/freertos.c **** #include "task.h"
  23:Core/Src/freertos.c **** #include "main.h"
  24:Core/Src/freertos.c **** #include "cmsis_os.h"
  25:Core/Src/freertos.c **** 
  26:Core/Src/freertos.c **** /* Private includes ----------------------------------------------------------*/
  27:Core/Src/freertos.c **** /* USER CODE BEGIN Includes */
  28:Core/Src/freertos.c **** #include "Eth.h"
  29:Core/Src/freertos.c **** #include "BSP_ICA2D13.h"
  30:Core/Src/freertos.c **** 
  31:Core/Src/freertos.c **** #include "tim.h"
  32:Core/Src/freertos.c **** #include "usart.h"
ARM GAS  C:\Users\VIDCOM~1\AppData\Local\Temp\ccpY4rta.s 			page 2


  33:Core/Src/freertos.c **** 
  34:Core/Src/freertos.c **** #include "ModbusSS.h"
  35:Core/Src/freertos.c **** #include "ModbusConf.h"
  36:Core/Src/freertos.c **** #include "ModbusProtocol.h"
  37:Core/Src/freertos.c **** /* USER CODE END Includes */
  38:Core/Src/freertos.c **** 
  39:Core/Src/freertos.c **** /* Private typedef -----------------------------------------------------------*/
  40:Core/Src/freertos.c **** /* USER CODE BEGIN PTD */
  41:Core/Src/freertos.c **** int32_t cbckModbusTcpServer(Eth_t_SocTcp* socket);
  42:Core/Src/freertos.c **** 
  43:Core/Src/freertos.c **** /* USER CODE END PTD */
  44:Core/Src/freertos.c **** 
  45:Core/Src/freertos.c **** /* Private define ------------------------------------------------------------*/
  46:Core/Src/freertos.c **** /* USER CODE BEGIN PD */
  47:Core/Src/freertos.c **** /*---------------------MODBUS------------------------*/
  48:Core/Src/freertos.c **** //ModbusCoreTypedef modbusCore;
  49:Core/Src/freertos.c **** #define MODBUS_TCP_SERVER_SOC_CNT (4)
  50:Core/Src/freertos.c **** Eth_t_SocTcp tcpModbusSocket[MODBUS_TCP_SERVER_SOC_CNT];
  51:Core/Src/freertos.c **** uint8_t modbusBufRxTxTCP[MODBUS_SS_BUF_CNT];
  52:Core/Src/freertos.c **** #define MODBUS_TABLE_HOLDING_QUANT (MBP_reg_6 - MBP_reg_1 + 1)
  53:Core/Src/freertos.c **** uint16_t modbusHoldingBuf[MODBUS_TABLE_HOLDING_QUANT];
  54:Core/Src/freertos.c **** 
  55:Core/Src/freertos.c **** 
  56:Core/Src/freertos.c **** uint8_t modbusBufTxRtu485[30];
  57:Core/Src/freertos.c **** uint8_t modbusBufRxRtu485[30];
  58:Core/Src/freertos.c **** uint8_t mdb_wait_rx_flag = 0;
  59:Core/Src/freertos.c **** 
  60:Core/Src/freertos.c **** #define MDB_RTU_TX_SLACE_ID (1)
  61:Core/Src/freertos.c **** #define MDB_RTU_TX_FUNCTION (4)
  62:Core/Src/freertos.c **** #define MDB_RTU_TX_REG_ADRES (1)
  63:Core/Src/freertos.c **** #define MDB_RTU_TX_REG_QANT (5)
  64:Core/Src/freertos.c **** #define MDB_RTU_TX_COUNT_BYTE (8)
  65:Core/Src/freertos.c **** 
  66:Core/Src/freertos.c **** #define MDB_RTU_RX_COUNT_BYTE (5+(MDB_RTU_TX_REG_QANT*2))
  67:Core/Src/freertos.c **** 
  68:Core/Src/freertos.c **** #define MDB_RTU_TX_SCAN_RATE (250)
  69:Core/Src/freertos.c **** #define MDB_RTU_RX_RESPONS_TIMEOUT (2000)
  70:Core/Src/freertos.c **** 
  71:Core/Src/freertos.c **** 
  72:Core/Src/freertos.c **** uint8_t mdb_buf[30];
  73:Core/Src/freertos.c **** uint16_t mdb_1 = 0;
  74:Core/Src/freertos.c **** uint16_t mdb_2 = 0;
  75:Core/Src/freertos.c **** uint16_t mdb_3 = 0;
  76:Core/Src/freertos.c **** uint16_t mdb_4 = 0;
  77:Core/Src/freertos.c **** uint16_t mdb_5 = 0;
  78:Core/Src/freertos.c **** uint16_t mdb_err_cnt = 0;
  79:Core/Src/freertos.c **** 
  80:Core/Src/freertos.c **** enum userFlag
  81:Core/Src/freertos.c **** {
  82:Core/Src/freertos.c ****   flagReset = 0,
  83:Core/Src/freertos.c ****   flagSet   = 1
  84:Core/Src/freertos.c **** };
  85:Core/Src/freertos.c **** 
  86:Core/Src/freertos.c **** 
  87:Core/Src/freertos.c **** //--ModbusSS
  88:Core/Src/freertos.c **** ModbusSS_table_t modbusTableHolding1 = {
  89:Core/Src/freertos.c ****   .buf = (uint8_t*)modbusHoldingBuf,
ARM GAS  C:\Users\VIDCOM~1\AppData\Local\Temp\ccpY4rta.s 			page 3


  90:Core/Src/freertos.c ****   .quantity = MODBUS_TABLE_HOLDING_QUANT,
  91:Core/Src/freertos.c ****   .regNo = MBP_reg_1,
  92:Core/Src/freertos.c ****   .type = ModbusSS_Holding
  93:Core/Src/freertos.c **** };
  94:Core/Src/freertos.c **** 
  95:Core/Src/freertos.c **** ModbusSS_table_t* modbusTables[1] = {&modbusTableHolding1};
  96:Core/Src/freertos.c **** 
  97:Core/Src/freertos.c **** void modbusHoldingReq(ModbusSS_table_t* table, uint16_t reg, uint16_t quantity);
  98:Core/Src/freertos.c **** 
  99:Core/Src/freertos.c **** ModbusSS_t modbusSS_tcp = {
 100:Core/Src/freertos.c ****     .bufRxTx = modbusBufRxTxTCP,
 101:Core/Src/freertos.c ****     .cbHoldingRequest = modbusHoldingReq,
 102:Core/Src/freertos.c ****     .rtuTcp = MODBUS_SS_TCP,
 103:Core/Src/freertos.c ****     .slaveId = 1,
 104:Core/Src/freertos.c ****     .tables = modbusTables,
 105:Core/Src/freertos.c ****     .tablesCount = 1};
 106:Core/Src/freertos.c **** 
 107:Core/Src/freertos.c **** // ModbusSS_t modbusSS_rtu_rs485 = {
 108:Core/Src/freertos.c **** //     .bufRxTx = modbusBufRxTxRtu485,
 109:Core/Src/freertos.c **** //     .cbHoldingRequest = modbusHoldingReq,
 110:Core/Src/freertos.c **** //     .rtuTcp = MODBUS_SS_RTU,
 111:Core/Src/freertos.c **** //     .slaveId = 1,
 112:Core/Src/freertos.c **** //     .tables = modbusTables,
 113:Core/Src/freertos.c **** //     .tablesCount = 1};
 114:Core/Src/freertos.c **** 
 115:Core/Src/freertos.c **** /*---------------------MODBUS END------------------------*/
 116:Core/Src/freertos.c **** 
 117:Core/Src/freertos.c **** /* USER CODE END PD */
 118:Core/Src/freertos.c **** 
 119:Core/Src/freertos.c **** /* Private macro -------------------------------------------------------------*/
 120:Core/Src/freertos.c **** /* USER CODE BEGIN PM */
 121:Core/Src/freertos.c **** 
 122:Core/Src/freertos.c **** /* USER CODE END PM */
 123:Core/Src/freertos.c **** 
 124:Core/Src/freertos.c **** /* Private variables ---------------------------------------------------------*/
 125:Core/Src/freertos.c **** /* USER CODE BEGIN Variables */
 126:Core/Src/freertos.c **** osThreadId_t taskNetHandle;
 127:Core/Src/freertos.c **** const osThreadAttr_t taskNet_attributes = {
 128:Core/Src/freertos.c ****   .name = "taskNet",
 129:Core/Src/freertos.c ****   .stack_size = 256 * 4,
 130:Core/Src/freertos.c ****   .priority = (osPriority_t) osPriorityNormal,
 131:Core/Src/freertos.c **** };
 132:Core/Src/freertos.c **** 
 133:Core/Src/freertos.c **** osThreadId_t taskMdbHandle;
 134:Core/Src/freertos.c **** const osThreadAttr_t taskMdb_attributes = {
 135:Core/Src/freertos.c ****   .name = "taskMdb",
 136:Core/Src/freertos.c ****   .stack_size = 256 * 4,
 137:Core/Src/freertos.c ****   .priority = (osPriority_t) osPriorityNormal,
 138:Core/Src/freertos.c **** };
 139:Core/Src/freertos.c **** 
 140:Core/Src/freertos.c **** /* USER CODE END Variables */
 141:Core/Src/freertos.c **** /* Definitions for defaultTask */
 142:Core/Src/freertos.c **** osThreadId_t defaultTaskHandle;
 143:Core/Src/freertos.c **** const osThreadAttr_t defaultTask_attributes = {
 144:Core/Src/freertos.c ****   .name = "defaultTask",
 145:Core/Src/freertos.c ****   .stack_size = 256 * 4,
 146:Core/Src/freertos.c ****   .priority = (osPriority_t) osPriorityNormal,
ARM GAS  C:\Users\VIDCOM~1\AppData\Local\Temp\ccpY4rta.s 			page 4


 147:Core/Src/freertos.c **** };
 148:Core/Src/freertos.c **** 
 149:Core/Src/freertos.c **** /* Private function prototypes -----------------------------------------------*/
 150:Core/Src/freertos.c **** /* USER CODE BEGIN FunctionPrototypes */
 151:Core/Src/freertos.c **** void taskNetEntry(void *argument);
 152:Core/Src/freertos.c **** void taskMdbEntry(void *argument);
 153:Core/Src/freertos.c **** 
 154:Core/Src/freertos.c **** __STATIC_INLINE uint16_t _Crc16_mdb(uint8_t *pcBlock, uint16_t len);
 155:Core/Src/freertos.c **** 
 156:Core/Src/freertos.c **** /* USER CODE END FunctionPrototypes */
 157:Core/Src/freertos.c **** 
 158:Core/Src/freertos.c **** void StartDefaultTask(void *argument);
 159:Core/Src/freertos.c **** 
 160:Core/Src/freertos.c **** void MX_FREERTOS_Init(void); /* (MISRA C 2004 rule 8.1) */
 161:Core/Src/freertos.c **** 
 162:Core/Src/freertos.c **** /**
 163:Core/Src/freertos.c ****   * @brief  FreeRTOS initialization
 164:Core/Src/freertos.c ****   * @param  None
 165:Core/Src/freertos.c ****   * @retval None
 166:Core/Src/freertos.c ****   */
 167:Core/Src/freertos.c **** void MX_FREERTOS_Init(void) {
 168:Core/Src/freertos.c ****   /* USER CODE BEGIN Init */
 169:Core/Src/freertos.c **** 
 170:Core/Src/freertos.c ****   /* USER CODE END Init */
 171:Core/Src/freertos.c **** 
 172:Core/Src/freertos.c ****   /* USER CODE BEGIN RTOS_MUTEX */
 173:Core/Src/freertos.c ****   /* add mutexes, ... */
 174:Core/Src/freertos.c ****   /* USER CODE END RTOS_MUTEX */
 175:Core/Src/freertos.c **** 
 176:Core/Src/freertos.c ****   /* USER CODE BEGIN RTOS_SEMAPHORES */
 177:Core/Src/freertos.c ****   /* add semaphores, ... */
 178:Core/Src/freertos.c ****   /* USER CODE END RTOS_SEMAPHORES */
 179:Core/Src/freertos.c **** 
 180:Core/Src/freertos.c ****   /* USER CODE BEGIN RTOS_TIMERS */
 181:Core/Src/freertos.c ****   /* start timers, add new ones, ... */
 182:Core/Src/freertos.c ****   /* USER CODE END RTOS_TIMERS */
 183:Core/Src/freertos.c **** 
 184:Core/Src/freertos.c ****   /* USER CODE BEGIN RTOS_QUEUES */
 185:Core/Src/freertos.c ****   /* add queues, ... */
 186:Core/Src/freertos.c ****   /* USER CODE END RTOS_QUEUES */
 187:Core/Src/freertos.c **** 
 188:Core/Src/freertos.c ****   /* Create the thread(s) */
 189:Core/Src/freertos.c ****   /* creation of defaultTask */
 190:Core/Src/freertos.c ****   defaultTaskHandle = osThreadNew(StartDefaultTask, NULL, &defaultTask_attributes);
 191:Core/Src/freertos.c **** 
 192:Core/Src/freertos.c ****   /* USER CODE BEGIN RTOS_THREADS */
 193:Core/Src/freertos.c ****   taskNetHandle = osThreadNew(taskNetEntry, NULL, &taskNet_attributes);
 194:Core/Src/freertos.c ****   taskMdbHandle = osThreadNew(taskMdbEntry, NULL, &taskMdb_attributes);
 195:Core/Src/freertos.c **** 
 196:Core/Src/freertos.c ****   asm("NOP");
 197:Core/Src/freertos.c ****   /* USER CODE END RTOS_THREADS */
 198:Core/Src/freertos.c **** 
 199:Core/Src/freertos.c ****   /* USER CODE BEGIN RTOS_EVENTS */
 200:Core/Src/freertos.c ****   /* add events, ... */
 201:Core/Src/freertos.c ****   /* USER CODE END RTOS_EVENTS */
 202:Core/Src/freertos.c **** 
 203:Core/Src/freertos.c **** }
ARM GAS  C:\Users\VIDCOM~1\AppData\Local\Temp\ccpY4rta.s 			page 5


 204:Core/Src/freertos.c **** 
 205:Core/Src/freertos.c **** /* USER CODE BEGIN Header_StartDefaultTask */
 206:Core/Src/freertos.c **** /**
 207:Core/Src/freertos.c ****   * @brief  Function implementing the defaultTask thread.
 208:Core/Src/freertos.c ****   * @param  argument: Not used
 209:Core/Src/freertos.c ****   * @retval None
 210:Core/Src/freertos.c ****   */
 211:Core/Src/freertos.c **** /* USER CODE END Header_StartDefaultTask */
 212:Core/Src/freertos.c **** void StartDefaultTask(void *argument)
 213:Core/Src/freertos.c **** {
 214:Core/Src/freertos.c ****   /* USER CODE BEGIN StartDefaultTask */
 215:Core/Src/freertos.c **** 
 216:Core/Src/freertos.c ****   asm("NOP");
 217:Core/Src/freertos.c **** 
 218:Core/Src/freertos.c ****   // uint16_t state_DI = 0;
 219:Core/Src/freertos.c ****   // uint16_t state_AI[2];
 220:Core/Src/freertos.c **** 
 221:Core/Src/freertos.c ****   // HAL_UART_Receive_IT(&huart1, modbusBufRxTxRtu485,10);
 222:Core/Src/freertos.c **** 
 223:Core/Src/freertos.c ****   /* Infinite loop */
 224:Core/Src/freertos.c ****   for(;;)
 225:Core/Src/freertos.c ****   {
 226:Core/Src/freertos.c ****     // for (int i = BSP_DI1; i < BSP_DI_COUNT; i++)
 227:Core/Src/freertos.c ****     // {
 228:Core/Src/freertos.c ****     //     bsp_di_get(i);
 229:Core/Src/freertos.c ****     // }
 230:Core/Src/freertos.c ****     // asm("NOP");
 231:Core/Src/freertos.c ****     // bsp_ai_read();
 232:Core/Src/freertos.c **** 
 233:Core/Src/freertos.c ****     // LL_GPIO_TogglePin(O_D_Led_GPIO_Port, O_D_Led_Pin);
 234:Core/Src/freertos.c ****     osDelay(1);
 235:Core/Src/freertos.c ****   }
 236:Core/Src/freertos.c ****   /* USER CODE END StartDefaultTask */
 237:Core/Src/freertos.c **** }
 238:Core/Src/freertos.c **** 
 239:Core/Src/freertos.c **** /* Private application code --------------------------------------------------*/
 240:Core/Src/freertos.c **** /* USER CODE BEGIN Application */
 241:Core/Src/freertos.c **** 
 242:Core/Src/freertos.c **** void taskMdbEntry(void *argument)
 243:Core/Src/freertos.c **** {
 244:Core/Src/freertos.c ****   /* USER CODE BEGIN taskMdbEntry */
 245:Core/Src/freertos.c **** 
 246:Core/Src/freertos.c ****   /* Infinite loop */
 247:Core/Src/freertos.c **** 
 248:Core/Src/freertos.c ****   for (;;)
 249:Core/Src/freertos.c ****   {
 250:Core/Src/freertos.c ****     static uint16_t mdb_req_time = 0;
 251:Core/Src/freertos.c ****     static uint16_t mdb_respons_timeout = 0;
 252:Core/Src/freertos.c ****     static uint16_t crc = 0;
 253:Core/Src/freertos.c ****     osDelay(1);
 254:Core/Src/freertos.c ****     if (mdb_wait_rx_flag == flagSet)
 255:Core/Src/freertos.c ****     {
 256:Core/Src/freertos.c ****       if (mdb_respons_timeout++ > MDB_RTU_RX_RESPONS_TIMEOUT)
 257:Core/Src/freertos.c ****       {
 258:Core/Src/freertos.c ****         mdb_wait_rx_flag = flagReset;
 259:Core/Src/freertos.c ****         HAL_UART_AbortReceive_IT(&huart1);
 260:Core/Src/freertos.c ****         mdb_respons_timeout = 0;
ARM GAS  C:\Users\VIDCOM~1\AppData\Local\Temp\ccpY4rta.s 			page 6


 261:Core/Src/freertos.c ****         mdb_err_cnt++;
 262:Core/Src/freertos.c ****       }
 263:Core/Src/freertos.c ****     }
 264:Core/Src/freertos.c ****     else
 265:Core/Src/freertos.c ****     {
 266:Core/Src/freertos.c ****       if (mdb_req_time++ > MDB_RTU_TX_SCAN_RATE)
 267:Core/Src/freertos.c ****       {
 268:Core/Src/freertos.c **** 
 269:Core/Src/freertos.c ****         modbusBufTxRtu485[0] = MDB_RTU_TX_SLACE_ID;
 270:Core/Src/freertos.c ****         modbusBufTxRtu485[1] = MDB_RTU_TX_FUNCTION;
 271:Core/Src/freertos.c ****         modbusBufTxRtu485[2] = 0x00;
 272:Core/Src/freertos.c ****         modbusBufTxRtu485[3] = MDB_RTU_TX_REG_ADRES;
 273:Core/Src/freertos.c ****         modbusBufTxRtu485[4] = 0x00;
 274:Core/Src/freertos.c ****         modbusBufTxRtu485[5] = MDB_RTU_TX_REG_QANT;
 275:Core/Src/freertos.c **** 
 276:Core/Src/freertos.c ****         crc = _Crc16_mdb(modbusBufTxRtu485, 6);
 277:Core/Src/freertos.c ****         modbusBufTxRtu485[6] = (uint8_t)crc;
 278:Core/Src/freertos.c ****         modbusBufTxRtu485[7] = (uint8_t)(crc >> 8);
 279:Core/Src/freertos.c **** 
 280:Core/Src/freertos.c ****         mdb_wait_rx_flag = flagSet;
 281:Core/Src/freertos.c ****         mdb_respons_timeout = 0;
 282:Core/Src/freertos.c ****         if (HAL_UART_Transmit(&huart1, modbusBufTxRtu485, MDB_RTU_TX_COUNT_BYTE, 2) == HAL_OK)
 283:Core/Src/freertos.c ****         {
 284:Core/Src/freertos.c ****           BSP_LED3_TOGGLE();
 285:Core/Src/freertos.c ****           HAL_UART_Receive_IT(&huart1, modbusBufRxRtu485, MDB_RTU_RX_COUNT_BYTE);
 286:Core/Src/freertos.c ****         }
 287:Core/Src/freertos.c ****         mdb_req_time = 0;
 288:Core/Src/freertos.c ****       }
 289:Core/Src/freertos.c ****     }
 290:Core/Src/freertos.c ****   }
 291:Core/Src/freertos.c ****   /* USER CODE END taskMdbEntry */
 292:Core/Src/freertos.c **** }
 293:Core/Src/freertos.c **** 
 294:Core/Src/freertos.c **** //---------------------------------- NETWORK 
 295:Core/Src/freertos.c **** void taskNetEntry(void *argument)
 296:Core/Src/freertos.c **** {
 297:Core/Src/freertos.c ****   /* USER CODE BEGIN taskLedEntry */
 298:Core/Src/freertos.c **** 
 299:Core/Src/freertos.c ****   if(Eth_f_Init() != SET){
 300:Core/Src/freertos.c ****     Error_Handler();
 301:Core/Src/freertos.c ****   };
 302:Core/Src/freertos.c **** 
 303:Core/Src/freertos.c **** /*---------------------MODBUS------------------------*/
 304:Core/Src/freertos.c ****   for (int i = 0; i < MODBUS_TCP_SERVER_SOC_CNT; i++)
 305:Core/Src/freertos.c ****   {
 306:Core/Src/freertos.c ****     tcpModbusSocket[i].hwSocNum = i;
 307:Core/Src/freertos.c ****     tcpModbusSocket[i].port = 502;
 308:Core/Src/freertos.c ****     tcpModbusSocket[i].bufRx = modbusBufRxTxTCP;
 309:Core/Src/freertos.c ****     tcpModbusSocket[i].bufTx = modbusBufRxTxTCP;
 310:Core/Src/freertos.c ****     tcpModbusSocket[i].bufRxLen = MODBUS_SS_BUF_CNT;
 311:Core/Src/freertos.c ****     tcpModbusSocket[i].bufTxLen = MODBUS_SS_BUF_CNT;
 312:Core/Src/freertos.c ****     tcpModbusSocket[i].cbfunc_pendingData = cbckModbusTcpServer;
 313:Core/Src/freertos.c ****     //tcpModbusSocket[i].echoMode = SET;
 314:Core/Src/freertos.c **** }
 315:Core/Src/freertos.c **** /*---------------------MODBUS END------------------------*/
 316:Core/Src/freertos.c **** 
 317:Core/Src/freertos.c ****   /* Infinite loop */
ARM GAS  C:\Users\VIDCOM~1\AppData\Local\Temp\ccpY4rta.s 			page 7


 318:Core/Src/freertos.c **** for (;;)
 319:Core/Src/freertos.c **** {
 320:Core/Src/freertos.c **** 
 321:Core/Src/freertos.c ****   for (int i = 0; i < MODBUS_TCP_SERVER_SOC_CNT; i++)
 322:Core/Src/freertos.c ****   {
 323:Core/Src/freertos.c ****     if (Eth_f_runTcpSrv(&tcpModbusSocket[i]) != SET)
 324:Core/Src/freertos.c ****     {
 325:Core/Src/freertos.c ****       Error_Handler();
 326:Core/Src/freertos.c ****     }
 327:Core/Src/freertos.c ****   }
 328:Core/Src/freertos.c **** 
 329:Core/Src/freertos.c ****   // BSP_LED2_G_TOGGLE();
 330:Core/Src/freertos.c **** 
 331:Core/Src/freertos.c ****   osDelay(1);
 332:Core/Src/freertos.c **** 
 333:Core/Src/freertos.c **** }
 334:Core/Src/freertos.c **** /* USER CODE END taskLedEntry */
 335:Core/Src/freertos.c **** }
 336:Core/Src/freertos.c **** 
 337:Core/Src/freertos.c **** int32_t cbckModbusTcpServer(Eth_t_SocTcp* socket){
 338:Core/Src/freertos.c ****   socket->exchangeState = state_res_inProc;
 339:Core/Src/freertos.c ****   socket->txFrameSize = ModbusSS_ParseRxData(&modbusSS_tcp);
 340:Core/Src/freertos.c ****   return 0;
 341:Core/Src/freertos.c **** }
 342:Core/Src/freertos.c **** 
 343:Core/Src/freertos.c **** void modbusHoldingReq(ModbusSS_table_t* table, uint16_t reg, uint16_t quantity){
 344:Core/Src/freertos.c **** 
 345:Core/Src/freertos.c ****   BSP_LED1_TOGGLE();
 346:Core/Src/freertos.c ****   if (table == &modbusTableHolding1)
 347:Core/Src/freertos.c ****   {
 348:Core/Src/freertos.c ****     for (int r = reg; r < reg + quantity; r++)
 349:Core/Src/freertos.c ****     {
 350:Core/Src/freertos.c ****       asm("NOP");
 351:Core/Src/freertos.c ****       switch (r)
 352:Core/Src/freertos.c ****       {
 353:Core/Src/freertos.c ****       case MBP_reg_1:
 354:Core/Src/freertos.c ****         ModbusSS_SetWord(table, r, mdb_1);
 355:Core/Src/freertos.c ****         asm("NOP");
 356:Core/Src/freertos.c ****         break;
 357:Core/Src/freertos.c ****       case MBP_reg_2:
 358:Core/Src/freertos.c ****         ModbusSS_SetWord(table, r, mdb_2);
 359:Core/Src/freertos.c ****         asm("NOP");
 360:Core/Src/freertos.c ****         break;
 361:Core/Src/freertos.c ****       case MBP_reg_3:
 362:Core/Src/freertos.c ****         ModbusSS_SetWord(table, r, mdb_3);
 363:Core/Src/freertos.c ****         asm("NOP");
 364:Core/Src/freertos.c ****         break;
 365:Core/Src/freertos.c ****       case MBP_reg_4:
 366:Core/Src/freertos.c ****         ModbusSS_SetWord(table, r, mdb_4);
 367:Core/Src/freertos.c ****         asm("NOP");
 368:Core/Src/freertos.c ****         break;
 369:Core/Src/freertos.c ****       case MBP_reg_5:
 370:Core/Src/freertos.c ****         ModbusSS_SetWord(table, r, mdb_5);
 371:Core/Src/freertos.c ****         asm("NOP");
 372:Core/Src/freertos.c ****         break;
 373:Core/Src/freertos.c ****       case MBP_reg_6:
 374:Core/Src/freertos.c ****         ModbusSS_SetWord(table, r, mdb_err_cnt);
ARM GAS  C:\Users\VIDCOM~1\AppData\Local\Temp\ccpY4rta.s 			page 8


 375:Core/Src/freertos.c ****         asm("NOP");
 376:Core/Src/freertos.c ****         break;
 377:Core/Src/freertos.c ****       default:
 378:Core/Src/freertos.c ****         break;
 379:Core/Src/freertos.c ****       }
 380:Core/Src/freertos.c ****     }
 381:Core/Src/freertos.c ****   }
 382:Core/Src/freertos.c **** }
 383:Core/Src/freertos.c **** 
 384:Core/Src/freertos.c **** void HAL_UART_RxCpltCallback(UART_HandleTypeDef *huart)
 385:Core/Src/freertos.c **** {
 386:Core/Src/freertos.c ****   for (uint8_t i = 0; i < MDB_RTU_RX_COUNT_BYTE; i++)
 387:Core/Src/freertos.c ****   {
 388:Core/Src/freertos.c ****     mdb_buf[i] = modbusBufRxRtu485[i];
 389:Core/Src/freertos.c ****   }
 390:Core/Src/freertos.c **** 
 391:Core/Src/freertos.c ****   // if (mdb_buf[0] = )
 392:Core/Src/freertos.c ****   // {
 393:Core/Src/freertos.c **** 
 394:Core/Src/freertos.c ****   // }
 395:Core/Src/freertos.c ****   mdb_1 = 0;
 396:Core/Src/freertos.c ****   mdb_2 = 0;
 397:Core/Src/freertos.c ****   mdb_3 = 0;
 398:Core/Src/freertos.c ****   mdb_4 = 0;
 399:Core/Src/freertos.c ****   mdb_5 = 0;
 400:Core/Src/freertos.c **** 
 401:Core/Src/freertos.c ****   mdb_1 |= mdb_buf[3]<<8;
 402:Core/Src/freertos.c ****   mdb_1 |= mdb_buf[4];
 403:Core/Src/freertos.c **** 
 404:Core/Src/freertos.c ****   mdb_2 |= mdb_buf[5]<<8;
 405:Core/Src/freertos.c ****   mdb_2 |= mdb_buf[6];
 406:Core/Src/freertos.c **** 
 407:Core/Src/freertos.c ****   mdb_3 |= mdb_buf[7]<<8;
 408:Core/Src/freertos.c ****   mdb_3 |= mdb_buf[8];
 409:Core/Src/freertos.c **** 
 410:Core/Src/freertos.c ****   mdb_4 |= mdb_buf[9]<<8;
 411:Core/Src/freertos.c ****   mdb_4 |= mdb_buf[10];
 412:Core/Src/freertos.c ****   
 413:Core/Src/freertos.c ****   mdb_5 |= mdb_buf[11]<<8;
 414:Core/Src/freertos.c ****   mdb_5 |= mdb_buf[12];
 415:Core/Src/freertos.c **** 
 416:Core/Src/freertos.c ****   asm("NOP");
 417:Core/Src/freertos.c ****   mdb_wait_rx_flag = flagReset;
 418:Core/Src/freertos.c **** }
 419:Core/Src/freertos.c **** 
 420:Core/Src/freertos.c **** // void HAL_UART_TxCpltCallback(UART_HandleTypeDef *huart)
 421:Core/Src/freertos.c **** // {
 422:Core/Src/freertos.c **** //   asm("NOP");
 423:Core/Src/freertos.c **** //   HAL_UART_Receive_IT(&huart1, modbusBufRxRtu485, MDB_RTU_COUNT_RX);
 424:Core/Src/freertos.c **** // }
 425:Core/Src/freertos.c **** 
 426:Core/Src/freertos.c **** __STATIC_INLINE uint16_t _Crc16_mdb(uint8_t *pcBlock, uint16_t len)
 427:Core/Src/freertos.c **** {
  27              		.loc 1 427 1 view -0
  28              		.cfi_startproc
  29              		@ args = 0, pretend = 0, frame = 0
  30              		@ frame_needed = 0, uses_anonymous_args = 0
ARM GAS  C:\Users\VIDCOM~1\AppData\Local\Temp\ccpY4rta.s 			page 9


  31              		@ link register save eliminated.
  32              		.loc 1 427 1 is_stmt 0 view .LVU1
  33 0000 8446     		mov	ip, r0
 428:Core/Src/freertos.c ****     uint16_t w = 0;
  34              		.loc 1 428 5 is_stmt 1 view .LVU2
  35              	.LVL1:
 429:Core/Src/freertos.c ****     uint8_t shift_cnt;
  36              		.loc 1 429 5 view .LVU3
 430:Core/Src/freertos.c **** 
 431:Core/Src/freertos.c ****         w = 0xffffU;
  37              		.loc 1 431 9 view .LVU4
 432:Core/Src/freertos.c ****         for (; len > 0; len--)
  38              		.loc 1 432 9 view .LVU5
 431:Core/Src/freertos.c ****         for (; len > 0; len--)
  39              		.loc 1 431 11 is_stmt 0 view .LVU6
  40 0002 4FF6FF70 		movw	r0, #65535
  41              	.LVL2:
  42              		.loc 1 432 9 view .LVU7
  43 0006 0EE0     		b	.L2
  44              	.LVL3:
  45              	.L4:
 433:Core/Src/freertos.c ****         {
 434:Core/Src/freertos.c ****             w = (uint16_t)((w / 256U) * 256U + ((w % 256U) ^ (*pcBlock++)));
 435:Core/Src/freertos.c ****             for (shift_cnt = 0; shift_cnt < 8; shift_cnt++)
 436:Core/Src/freertos.c ****             {
 437:Core/Src/freertos.c ****                 if ((w & 0x1) == 1)
 438:Core/Src/freertos.c ****                     w = (uint16_t)((w >> 1) ^ 0xa001U);
 439:Core/Src/freertos.c ****                 else
 440:Core/Src/freertos.c ****                     w >>= 1;
  46              		.loc 1 440 21 is_stmt 1 view .LVU8
  47              		.loc 1 440 23 is_stmt 0 view .LVU9
  48 0008 4008     		lsrs	r0, r0, #1
  49              	.LVL4:
  50              	.L5:
 435:Core/Src/freertos.c ****             {
  51              		.loc 1 435 57 is_stmt 1 discriminator 2 view .LVU10
  52 000a 0133     		adds	r3, r3, #1
  53              	.LVL5:
 435:Core/Src/freertos.c ****             {
  54              		.loc 1 435 57 is_stmt 0 discriminator 2 view .LVU11
  55 000c DBB2     		uxtb	r3, r3
  56              	.LVL6:
  57              	.L3:
 435:Core/Src/freertos.c ****             {
  58              		.loc 1 435 43 is_stmt 1 discriminator 1 view .LVU12
  59 000e 072B     		cmp	r3, #7
  60 0010 07D8     		bhi	.L8
 437:Core/Src/freertos.c ****                     w = (uint16_t)((w >> 1) ^ 0xa001U);
  61              		.loc 1 437 17 view .LVU13
 437:Core/Src/freertos.c ****                     w = (uint16_t)((w >> 1) ^ 0xa001U);
  62              		.loc 1 437 20 is_stmt 0 view .LVU14
  63 0012 10F0010F 		tst	r0, #1
  64 0016 F7D0     		beq	.L4
 438:Core/Src/freertos.c ****                 else
  65              		.loc 1 438 21 is_stmt 1 view .LVU15
 438:Core/Src/freertos.c ****                 else
  66              		.loc 1 438 23 is_stmt 0 view .LVU16
ARM GAS  C:\Users\VIDCOM~1\AppData\Local\Temp\ccpY4rta.s 			page 10


  67 0018 4AF20102 		movw	r2, #40961
  68 001c 82EA5000 		eor	r0, r2, r0, lsr #1
  69              	.LVL7:
 438:Core/Src/freertos.c ****                 else
  70              		.loc 1 438 23 view .LVU17
  71 0020 F3E7     		b	.L5
  72              	.L8:
 432:Core/Src/freertos.c ****         {
  73              		.loc 1 432 28 is_stmt 1 view .LVU18
  74 0022 0139     		subs	r1, r1, #1
  75              	.LVL8:
 432:Core/Src/freertos.c ****         {
  76              		.loc 1 432 28 is_stmt 0 view .LVU19
  77 0024 89B2     		uxth	r1, r1
  78              	.LVL9:
  79              	.L2:
 432:Core/Src/freertos.c ****         {
  80              		.loc 1 432 20 is_stmt 1 discriminator 1 view .LVU20
  81 0026 49B1     		cbz	r1, .L9
 434:Core/Src/freertos.c ****             for (shift_cnt = 0; shift_cnt < 8; shift_cnt++)
  82              		.loc 1 434 13 view .LVU21
 434:Core/Src/freertos.c ****             for (shift_cnt = 0; shift_cnt < 8; shift_cnt++)
  83              		.loc 1 434 39 is_stmt 0 view .LVU22
  84 0028 00F47F43 		and	r3, r0, #65280
  85              	.LVL10:
 434:Core/Src/freertos.c ****             for (shift_cnt = 0; shift_cnt < 8; shift_cnt++)
  86              		.loc 1 434 63 view .LVU23
  87 002c 1CF8012B 		ldrb	r2, [ip], #1	@ zero_extendqisi2
  88              	.LVL11:
 434:Core/Src/freertos.c ****             for (shift_cnt = 0; shift_cnt < 8; shift_cnt++)
  89              		.loc 1 434 60 view .LVU24
  90 0030 C0B2     		uxtb	r0, r0
  91              	.LVL12:
 434:Core/Src/freertos.c ****             for (shift_cnt = 0; shift_cnt < 8; shift_cnt++)
  92              		.loc 1 434 60 view .LVU25
  93 0032 4240     		eors	r2, r2, r0
 434:Core/Src/freertos.c ****             for (shift_cnt = 0; shift_cnt < 8; shift_cnt++)
  94              		.loc 1 434 15 view .LVU26
  95 0034 1344     		add	r3, r3, r2
  96 0036 98B2     		uxth	r0, r3
  97              	.LVL13:
 435:Core/Src/freertos.c ****             {
  98              		.loc 1 435 13 is_stmt 1 view .LVU27
 435:Core/Src/freertos.c ****             {
  99              		.loc 1 435 28 is_stmt 0 view .LVU28
 100 0038 0023     		movs	r3, #0
 435:Core/Src/freertos.c ****             {
 101              		.loc 1 435 13 view .LVU29
 102 003a E8E7     		b	.L3
 103              	.LVL14:
 104              	.L9:
 441:Core/Src/freertos.c ****             }
 442:Core/Src/freertos.c ****         }
 443:Core/Src/freertos.c ****     return w;
 105              		.loc 1 443 5 is_stmt 1 view .LVU30
 444:Core/Src/freertos.c **** }
 106              		.loc 1 444 1 is_stmt 0 view .LVU31
ARM GAS  C:\Users\VIDCOM~1\AppData\Local\Temp\ccpY4rta.s 			page 11


 107 003c 7047     		bx	lr
 108              		.cfi_endproc
 109              	.LFE585:
 111              		.section	.text.StartDefaultTask,"ax",%progbits
 112              		.align	1
 113              		.global	StartDefaultTask
 114              		.syntax unified
 115              		.thumb
 116              		.thumb_func
 118              	StartDefaultTask:
 119              	.LVL15:
 120              	.LFB579:
 213:Core/Src/freertos.c ****   /* USER CODE BEGIN StartDefaultTask */
 121              		.loc 1 213 1 is_stmt 1 view -0
 122              		.cfi_startproc
 123              		@ Volatile: function does not return.
 124              		@ args = 0, pretend = 0, frame = 0
 125              		@ frame_needed = 0, uses_anonymous_args = 0
 213:Core/Src/freertos.c ****   /* USER CODE BEGIN StartDefaultTask */
 126              		.loc 1 213 1 is_stmt 0 view .LVU33
 127 0000 08B5     		push	{r3, lr}
 128              	.LCFI0:
 129              		.cfi_def_cfa_offset 8
 130              		.cfi_offset 3, -8
 131              		.cfi_offset 14, -4
 216:Core/Src/freertos.c **** 
 132              		.loc 1 216 3 is_stmt 1 view .LVU34
 133              		.syntax unified
 134              	@ 216 "Core/Src/freertos.c" 1
 135 0002 00BF     		NOP
 136              	@ 0 "" 2
 137              	.LVL16:
 138              		.thumb
 139              		.syntax unified
 140              	.L11:
 224:Core/Src/freertos.c ****   {
 141              		.loc 1 224 3 discriminator 1 view .LVU35
 234:Core/Src/freertos.c ****   }
 142              		.loc 1 234 5 discriminator 1 view .LVU36
 143 0004 0120     		movs	r0, #1
 144 0006 FFF7FEFF 		bl	osDelay
 145              	.LVL17:
 224:Core/Src/freertos.c ****   {
 146              		.loc 1 224 3 discriminator 1 view .LVU37
 147 000a FBE7     		b	.L11
 148              		.cfi_endproc
 149              	.LFE579:
 151              		.section	.text.taskMdbEntry,"ax",%progbits
 152              		.align	1
 153              		.global	taskMdbEntry
 154              		.syntax unified
 155              		.thumb
 156              		.thumb_func
 158              	taskMdbEntry:
 159              	.LFB580:
 243:Core/Src/freertos.c ****   /* USER CODE BEGIN taskMdbEntry */
 160              		.loc 1 243 1 view -0
ARM GAS  C:\Users\VIDCOM~1\AppData\Local\Temp\ccpY4rta.s 			page 12


 161              		.cfi_startproc
 162              		@ Volatile: function does not return.
 163              		@ args = 0, pretend = 0, frame = 0
 164              		@ frame_needed = 0, uses_anonymous_args = 0
 165              	.LVL18:
 243:Core/Src/freertos.c ****   /* USER CODE BEGIN taskMdbEntry */
 166              		.loc 1 243 1 is_stmt 0 view .LVU39
 167 0000 08B5     		push	{r3, lr}
 168              	.LCFI1:
 169              		.cfi_def_cfa_offset 8
 170              		.cfi_offset 3, -8
 171              		.cfi_offset 14, -4
 172 0002 16E0     		b	.L14
 173              	.LVL19:
 174              	.L19:
 175              	.LBB8:
 256:Core/Src/freertos.c ****       {
 176              		.loc 1 256 7 is_stmt 1 view .LVU40
 256:Core/Src/freertos.c ****       {
 177              		.loc 1 256 30 is_stmt 0 view .LVU41
 178 0004 294A     		ldr	r2, .L20
 179 0006 1388     		ldrh	r3, [r2]
 180 0008 591C     		adds	r1, r3, #1
 181 000a 1180     		strh	r1, [r2]	@ movhi
 256:Core/Src/freertos.c ****       {
 182              		.loc 1 256 10 view .LVU42
 183 000c B3F5FA6F 		cmp	r3, #2000
 184 0010 0FD9     		bls	.L14
 258:Core/Src/freertos.c ****         HAL_UART_AbortReceive_IT(&huart1);
 185              		.loc 1 258 9 is_stmt 1 view .LVU43
 258:Core/Src/freertos.c ****         HAL_UART_AbortReceive_IT(&huart1);
 186              		.loc 1 258 26 is_stmt 0 view .LVU44
 187 0012 0024     		movs	r4, #0
 188 0014 264B     		ldr	r3, .L20+4
 189 0016 1C70     		strb	r4, [r3]
 259:Core/Src/freertos.c ****         mdb_respons_timeout = 0;
 190              		.loc 1 259 9 is_stmt 1 view .LVU45
 191 0018 2648     		ldr	r0, .L20+8
 192 001a FFF7FEFF 		bl	HAL_UART_AbortReceive_IT
 193              	.LVL20:
 260:Core/Src/freertos.c ****         mdb_err_cnt++;
 194              		.loc 1 260 9 view .LVU46
 260:Core/Src/freertos.c ****         mdb_err_cnt++;
 195              		.loc 1 260 29 is_stmt 0 view .LVU47
 196 001e 234B     		ldr	r3, .L20
 197 0020 1C80     		strh	r4, [r3]	@ movhi
 261:Core/Src/freertos.c ****       }
 198              		.loc 1 261 9 is_stmt 1 view .LVU48
 261:Core/Src/freertos.c ****       }
 199              		.loc 1 261 20 is_stmt 0 view .LVU49
 200 0022 254A     		ldr	r2, .L20+12
 201 0024 1388     		ldrh	r3, [r2]
 202 0026 0133     		adds	r3, r3, #1
 203 0028 1380     		strh	r3, [r2]	@ movhi
 204 002a 02E0     		b	.L14
 205              	.L17:
 287:Core/Src/freertos.c ****       }
ARM GAS  C:\Users\VIDCOM~1\AppData\Local\Temp\ccpY4rta.s 			page 13


 206              		.loc 1 287 9 is_stmt 1 view .LVU50
 287:Core/Src/freertos.c ****       }
 207              		.loc 1 287 22 is_stmt 0 view .LVU51
 208 002c 234B     		ldr	r3, .L20+16
 209 002e 0022     		movs	r2, #0
 210 0030 1A80     		strh	r2, [r3]	@ movhi
 211              	.L14:
 212              	.LBE8:
 248:Core/Src/freertos.c ****   {
 213              		.loc 1 248 3 is_stmt 1 view .LVU52
 214              	.LBB11:
 250:Core/Src/freertos.c ****     static uint16_t mdb_respons_timeout = 0;
 215              		.loc 1 250 5 view .LVU53
 251:Core/Src/freertos.c ****     static uint16_t crc = 0;
 216              		.loc 1 251 5 view .LVU54
 252:Core/Src/freertos.c ****     osDelay(1);
 217              		.loc 1 252 5 view .LVU55
 253:Core/Src/freertos.c ****     if (mdb_wait_rx_flag == flagSet)
 218              		.loc 1 253 5 view .LVU56
 219 0032 0120     		movs	r0, #1
 220 0034 FFF7FEFF 		bl	osDelay
 221              	.LVL21:
 254:Core/Src/freertos.c ****     {
 222              		.loc 1 254 5 view .LVU57
 254:Core/Src/freertos.c ****     {
 223              		.loc 1 254 26 is_stmt 0 view .LVU58
 224 0038 1D4B     		ldr	r3, .L20+4
 225 003a 1B78     		ldrb	r3, [r3]	@ zero_extendqisi2
 254:Core/Src/freertos.c ****     {
 226              		.loc 1 254 8 view .LVU59
 227 003c 012B     		cmp	r3, #1
 228 003e E1D0     		beq	.L19
 266:Core/Src/freertos.c ****       {
 229              		.loc 1 266 7 is_stmt 1 view .LVU60
 266:Core/Src/freertos.c ****       {
 230              		.loc 1 266 23 is_stmt 0 view .LVU61
 231 0040 1E4A     		ldr	r2, .L20+16
 232 0042 1388     		ldrh	r3, [r2]
 233 0044 591C     		adds	r1, r3, #1
 234 0046 1180     		strh	r1, [r2]	@ movhi
 266:Core/Src/freertos.c ****       {
 235              		.loc 1 266 10 view .LVU62
 236 0048 FA2B     		cmp	r3, #250
 237 004a F2D9     		bls	.L14
 269:Core/Src/freertos.c ****         modbusBufTxRtu485[1] = MDB_RTU_TX_FUNCTION;
 238              		.loc 1 269 9 is_stmt 1 view .LVU63
 269:Core/Src/freertos.c ****         modbusBufTxRtu485[1] = MDB_RTU_TX_FUNCTION;
 239              		.loc 1 269 30 is_stmt 0 view .LVU64
 240 004c 1C4C     		ldr	r4, .L20+20
 241 004e 0126     		movs	r6, #1
 242 0050 2670     		strb	r6, [r4]
 270:Core/Src/freertos.c ****         modbusBufTxRtu485[2] = 0x00;
 243              		.loc 1 270 9 is_stmt 1 view .LVU65
 270:Core/Src/freertos.c ****         modbusBufTxRtu485[2] = 0x00;
 244              		.loc 1 270 30 is_stmt 0 view .LVU66
 245 0052 0423     		movs	r3, #4
 246 0054 6370     		strb	r3, [r4, #1]
ARM GAS  C:\Users\VIDCOM~1\AppData\Local\Temp\ccpY4rta.s 			page 14


 271:Core/Src/freertos.c ****         modbusBufTxRtu485[3] = MDB_RTU_TX_REG_ADRES;
 247              		.loc 1 271 9 is_stmt 1 view .LVU67
 271:Core/Src/freertos.c ****         modbusBufTxRtu485[3] = MDB_RTU_TX_REG_ADRES;
 248              		.loc 1 271 30 is_stmt 0 view .LVU68
 249 0056 0025     		movs	r5, #0
 250 0058 A570     		strb	r5, [r4, #2]
 272:Core/Src/freertos.c ****         modbusBufTxRtu485[4] = 0x00;
 251              		.loc 1 272 9 is_stmt 1 view .LVU69
 272:Core/Src/freertos.c ****         modbusBufTxRtu485[4] = 0x00;
 252              		.loc 1 272 30 is_stmt 0 view .LVU70
 253 005a E670     		strb	r6, [r4, #3]
 273:Core/Src/freertos.c ****         modbusBufTxRtu485[5] = MDB_RTU_TX_REG_QANT;
 254              		.loc 1 273 9 is_stmt 1 view .LVU71
 273:Core/Src/freertos.c ****         modbusBufTxRtu485[5] = MDB_RTU_TX_REG_QANT;
 255              		.loc 1 273 30 is_stmt 0 view .LVU72
 256 005c 2571     		strb	r5, [r4, #4]
 274:Core/Src/freertos.c **** 
 257              		.loc 1 274 9 is_stmt 1 view .LVU73
 274:Core/Src/freertos.c **** 
 258              		.loc 1 274 30 is_stmt 0 view .LVU74
 259 005e 0523     		movs	r3, #5
 260 0060 6371     		strb	r3, [r4, #5]
 276:Core/Src/freertos.c ****         modbusBufTxRtu485[6] = (uint8_t)crc;
 261              		.loc 1 276 9 is_stmt 1 view .LVU75
 276:Core/Src/freertos.c ****         modbusBufTxRtu485[6] = (uint8_t)crc;
 262              		.loc 1 276 15 is_stmt 0 view .LVU76
 263 0062 0621     		movs	r1, #6
 264 0064 2046     		mov	r0, r4
 265 0066 FFF7FEFF 		bl	_Crc16_mdb
 266              	.LVL22:
 276:Core/Src/freertos.c ****         modbusBufTxRtu485[6] = (uint8_t)crc;
 267              		.loc 1 276 13 view .LVU77
 268 006a 164B     		ldr	r3, .L20+24
 269 006c 1880     		strh	r0, [r3]	@ movhi
 277:Core/Src/freertos.c ****         modbusBufTxRtu485[7] = (uint8_t)(crc >> 8);
 270              		.loc 1 277 9 is_stmt 1 view .LVU78
 277:Core/Src/freertos.c ****         modbusBufTxRtu485[7] = (uint8_t)(crc >> 8);
 271              		.loc 1 277 30 is_stmt 0 view .LVU79
 272 006e A071     		strb	r0, [r4, #6]
 278:Core/Src/freertos.c **** 
 273              		.loc 1 278 9 is_stmt 1 view .LVU80
 278:Core/Src/freertos.c **** 
 274              		.loc 1 278 32 is_stmt 0 view .LVU81
 275 0070 000A     		lsrs	r0, r0, #8
 278:Core/Src/freertos.c **** 
 276              		.loc 1 278 30 view .LVU82
 277 0072 E071     		strb	r0, [r4, #7]
 280:Core/Src/freertos.c ****         mdb_respons_timeout = 0;
 278              		.loc 1 280 9 is_stmt 1 view .LVU83
 280:Core/Src/freertos.c ****         mdb_respons_timeout = 0;
 279              		.loc 1 280 26 is_stmt 0 view .LVU84
 280 0074 0E4B     		ldr	r3, .L20+4
 281 0076 1E70     		strb	r6, [r3]
 281:Core/Src/freertos.c ****         if (HAL_UART_Transmit(&huart1, modbusBufTxRtu485, MDB_RTU_TX_COUNT_BYTE, 2) == HAL_OK)
 282              		.loc 1 281 9 is_stmt 1 view .LVU85
 281:Core/Src/freertos.c ****         if (HAL_UART_Transmit(&huart1, modbusBufTxRtu485, MDB_RTU_TX_COUNT_BYTE, 2) == HAL_OK)
 283              		.loc 1 281 29 is_stmt 0 view .LVU86
ARM GAS  C:\Users\VIDCOM~1\AppData\Local\Temp\ccpY4rta.s 			page 15


 284 0078 0C4B     		ldr	r3, .L20
 285 007a 1D80     		strh	r5, [r3]	@ movhi
 282:Core/Src/freertos.c ****         {
 286              		.loc 1 282 9 is_stmt 1 view .LVU87
 282:Core/Src/freertos.c ****         {
 287              		.loc 1 282 13 is_stmt 0 view .LVU88
 288 007c 0223     		movs	r3, #2
 289 007e 0822     		movs	r2, #8
 290 0080 2146     		mov	r1, r4
 291 0082 0C48     		ldr	r0, .L20+8
 292 0084 FFF7FEFF 		bl	HAL_UART_Transmit
 293              	.LVL23:
 282:Core/Src/freertos.c ****         {
 294              		.loc 1 282 12 view .LVU89
 295 0088 0028     		cmp	r0, #0
 296 008a CFD1     		bne	.L17
 284:Core/Src/freertos.c ****           HAL_UART_Receive_IT(&huart1, modbusBufRxRtu485, MDB_RTU_RX_COUNT_BYTE);
 297              		.loc 1 284 11 is_stmt 1 view .LVU90
 298              	.LVL24:
 299              	.LBB9:
 300              	.LBI9:
 301              		.file 2 "Drivers/STM32F1xx_HAL_Driver/Inc/stm32f1xx_ll_gpio.h"
   1:Drivers/STM32F1xx_HAL_Driver/Inc/stm32f1xx_ll_gpio.h **** /**
   2:Drivers/STM32F1xx_HAL_Driver/Inc/stm32f1xx_ll_gpio.h ****   ******************************************************************************
   3:Drivers/STM32F1xx_HAL_Driver/Inc/stm32f1xx_ll_gpio.h ****   * @file    stm32f1xx_ll_gpio.h
   4:Drivers/STM32F1xx_HAL_Driver/Inc/stm32f1xx_ll_gpio.h ****   * @author  MCD Application Team
   5:Drivers/STM32F1xx_HAL_Driver/Inc/stm32f1xx_ll_gpio.h ****   * @brief   Header file of GPIO LL module.
   6:Drivers/STM32F1xx_HAL_Driver/Inc/stm32f1xx_ll_gpio.h ****   ******************************************************************************
   7:Drivers/STM32F1xx_HAL_Driver/Inc/stm32f1xx_ll_gpio.h ****   * @attention
   8:Drivers/STM32F1xx_HAL_Driver/Inc/stm32f1xx_ll_gpio.h ****   *
   9:Drivers/STM32F1xx_HAL_Driver/Inc/stm32f1xx_ll_gpio.h ****   * <h2><center>&copy; Copyright (c) 2016 STMicroelectronics.
  10:Drivers/STM32F1xx_HAL_Driver/Inc/stm32f1xx_ll_gpio.h ****   * All rights reserved.</center></h2>
  11:Drivers/STM32F1xx_HAL_Driver/Inc/stm32f1xx_ll_gpio.h ****   *
  12:Drivers/STM32F1xx_HAL_Driver/Inc/stm32f1xx_ll_gpio.h ****   * This software component is licensed by ST under BSD 3-Clause license,
  13:Drivers/STM32F1xx_HAL_Driver/Inc/stm32f1xx_ll_gpio.h ****   * the "License"; You may not use this file except in compliance with the
  14:Drivers/STM32F1xx_HAL_Driver/Inc/stm32f1xx_ll_gpio.h ****   * License. You may obtain a copy of the License at:
  15:Drivers/STM32F1xx_HAL_Driver/Inc/stm32f1xx_ll_gpio.h ****   *                        opensource.org/licenses/BSD-3-Clause
  16:Drivers/STM32F1xx_HAL_Driver/Inc/stm32f1xx_ll_gpio.h ****   *
  17:Drivers/STM32F1xx_HAL_Driver/Inc/stm32f1xx_ll_gpio.h ****   ******************************************************************************
  18:Drivers/STM32F1xx_HAL_Driver/Inc/stm32f1xx_ll_gpio.h ****   */
  19:Drivers/STM32F1xx_HAL_Driver/Inc/stm32f1xx_ll_gpio.h **** 
  20:Drivers/STM32F1xx_HAL_Driver/Inc/stm32f1xx_ll_gpio.h **** /* Define to prevent recursive inclusion -------------------------------------*/
  21:Drivers/STM32F1xx_HAL_Driver/Inc/stm32f1xx_ll_gpio.h **** #ifndef STM32F1xx_LL_GPIO_H
  22:Drivers/STM32F1xx_HAL_Driver/Inc/stm32f1xx_ll_gpio.h **** #define STM32F1xx_LL_GPIO_H
  23:Drivers/STM32F1xx_HAL_Driver/Inc/stm32f1xx_ll_gpio.h **** 
  24:Drivers/STM32F1xx_HAL_Driver/Inc/stm32f1xx_ll_gpio.h **** #ifdef __cplusplus
  25:Drivers/STM32F1xx_HAL_Driver/Inc/stm32f1xx_ll_gpio.h **** extern "C" {
  26:Drivers/STM32F1xx_HAL_Driver/Inc/stm32f1xx_ll_gpio.h **** #endif
  27:Drivers/STM32F1xx_HAL_Driver/Inc/stm32f1xx_ll_gpio.h **** 
  28:Drivers/STM32F1xx_HAL_Driver/Inc/stm32f1xx_ll_gpio.h **** /* Includes ------------------------------------------------------------------*/
  29:Drivers/STM32F1xx_HAL_Driver/Inc/stm32f1xx_ll_gpio.h **** #include "stm32f1xx.h"
  30:Drivers/STM32F1xx_HAL_Driver/Inc/stm32f1xx_ll_gpio.h **** 
  31:Drivers/STM32F1xx_HAL_Driver/Inc/stm32f1xx_ll_gpio.h **** /** @addtogroup STM32F1xx_LL_Driver
  32:Drivers/STM32F1xx_HAL_Driver/Inc/stm32f1xx_ll_gpio.h ****   * @{
  33:Drivers/STM32F1xx_HAL_Driver/Inc/stm32f1xx_ll_gpio.h ****   */
  34:Drivers/STM32F1xx_HAL_Driver/Inc/stm32f1xx_ll_gpio.h **** 
  35:Drivers/STM32F1xx_HAL_Driver/Inc/stm32f1xx_ll_gpio.h **** #if defined (GPIOA) || defined (GPIOB) || defined (GPIOC) || defined (GPIOD) || defined (GPIOE) || 
ARM GAS  C:\Users\VIDCOM~1\AppData\Local\Temp\ccpY4rta.s 			page 16


  36:Drivers/STM32F1xx_HAL_Driver/Inc/stm32f1xx_ll_gpio.h **** 
  37:Drivers/STM32F1xx_HAL_Driver/Inc/stm32f1xx_ll_gpio.h **** /** @defgroup GPIO_LL GPIO
  38:Drivers/STM32F1xx_HAL_Driver/Inc/stm32f1xx_ll_gpio.h ****   * @{
  39:Drivers/STM32F1xx_HAL_Driver/Inc/stm32f1xx_ll_gpio.h ****   */
  40:Drivers/STM32F1xx_HAL_Driver/Inc/stm32f1xx_ll_gpio.h **** 
  41:Drivers/STM32F1xx_HAL_Driver/Inc/stm32f1xx_ll_gpio.h **** /* Private types -------------------------------------------------------------*/
  42:Drivers/STM32F1xx_HAL_Driver/Inc/stm32f1xx_ll_gpio.h **** /* Private variables ---------------------------------------------------------*/
  43:Drivers/STM32F1xx_HAL_Driver/Inc/stm32f1xx_ll_gpio.h **** /* Private constants ---------------------------------------------------------*/
  44:Drivers/STM32F1xx_HAL_Driver/Inc/stm32f1xx_ll_gpio.h **** 
  45:Drivers/STM32F1xx_HAL_Driver/Inc/stm32f1xx_ll_gpio.h **** /** @defgroup GPIO_LL_Private_Constants GPIO Private Constants
  46:Drivers/STM32F1xx_HAL_Driver/Inc/stm32f1xx_ll_gpio.h ****   * @{
  47:Drivers/STM32F1xx_HAL_Driver/Inc/stm32f1xx_ll_gpio.h ****   */
  48:Drivers/STM32F1xx_HAL_Driver/Inc/stm32f1xx_ll_gpio.h **** /* Defines used for Pin Mask Initialization */
  49:Drivers/STM32F1xx_HAL_Driver/Inc/stm32f1xx_ll_gpio.h **** #define GPIO_PIN_MASK_POS   8U
  50:Drivers/STM32F1xx_HAL_Driver/Inc/stm32f1xx_ll_gpio.h **** #define GPIO_PIN_NB         16U
  51:Drivers/STM32F1xx_HAL_Driver/Inc/stm32f1xx_ll_gpio.h **** /**
  52:Drivers/STM32F1xx_HAL_Driver/Inc/stm32f1xx_ll_gpio.h ****   * @}
  53:Drivers/STM32F1xx_HAL_Driver/Inc/stm32f1xx_ll_gpio.h ****   */
  54:Drivers/STM32F1xx_HAL_Driver/Inc/stm32f1xx_ll_gpio.h **** 
  55:Drivers/STM32F1xx_HAL_Driver/Inc/stm32f1xx_ll_gpio.h **** /* Private macros ------------------------------------------------------------*/
  56:Drivers/STM32F1xx_HAL_Driver/Inc/stm32f1xx_ll_gpio.h **** #if defined(USE_FULL_LL_DRIVER)
  57:Drivers/STM32F1xx_HAL_Driver/Inc/stm32f1xx_ll_gpio.h **** /** @defgroup GPIO_LL_Private_Macros GPIO Private Macros
  58:Drivers/STM32F1xx_HAL_Driver/Inc/stm32f1xx_ll_gpio.h ****   * @{
  59:Drivers/STM32F1xx_HAL_Driver/Inc/stm32f1xx_ll_gpio.h ****   */
  60:Drivers/STM32F1xx_HAL_Driver/Inc/stm32f1xx_ll_gpio.h **** 
  61:Drivers/STM32F1xx_HAL_Driver/Inc/stm32f1xx_ll_gpio.h **** /**
  62:Drivers/STM32F1xx_HAL_Driver/Inc/stm32f1xx_ll_gpio.h ****   * @}
  63:Drivers/STM32F1xx_HAL_Driver/Inc/stm32f1xx_ll_gpio.h ****   */
  64:Drivers/STM32F1xx_HAL_Driver/Inc/stm32f1xx_ll_gpio.h **** #endif /*USE_FULL_LL_DRIVER*/
  65:Drivers/STM32F1xx_HAL_Driver/Inc/stm32f1xx_ll_gpio.h **** 
  66:Drivers/STM32F1xx_HAL_Driver/Inc/stm32f1xx_ll_gpio.h **** /* Exported types ------------------------------------------------------------*/
  67:Drivers/STM32F1xx_HAL_Driver/Inc/stm32f1xx_ll_gpio.h **** #if defined(USE_FULL_LL_DRIVER)
  68:Drivers/STM32F1xx_HAL_Driver/Inc/stm32f1xx_ll_gpio.h **** /** @defgroup GPIO_LL_ES_INIT GPIO Exported Init structures
  69:Drivers/STM32F1xx_HAL_Driver/Inc/stm32f1xx_ll_gpio.h ****   * @{
  70:Drivers/STM32F1xx_HAL_Driver/Inc/stm32f1xx_ll_gpio.h ****   */
  71:Drivers/STM32F1xx_HAL_Driver/Inc/stm32f1xx_ll_gpio.h **** 
  72:Drivers/STM32F1xx_HAL_Driver/Inc/stm32f1xx_ll_gpio.h **** /**
  73:Drivers/STM32F1xx_HAL_Driver/Inc/stm32f1xx_ll_gpio.h ****   * @brief LL GPIO Init Structure definition
  74:Drivers/STM32F1xx_HAL_Driver/Inc/stm32f1xx_ll_gpio.h ****   */
  75:Drivers/STM32F1xx_HAL_Driver/Inc/stm32f1xx_ll_gpio.h **** typedef struct
  76:Drivers/STM32F1xx_HAL_Driver/Inc/stm32f1xx_ll_gpio.h **** {
  77:Drivers/STM32F1xx_HAL_Driver/Inc/stm32f1xx_ll_gpio.h ****   uint32_t Pin;          /*!< Specifies the GPIO pins to be configured.
  78:Drivers/STM32F1xx_HAL_Driver/Inc/stm32f1xx_ll_gpio.h ****                               This parameter can be any value of @ref GPIO_LL_EC_PIN */
  79:Drivers/STM32F1xx_HAL_Driver/Inc/stm32f1xx_ll_gpio.h **** 
  80:Drivers/STM32F1xx_HAL_Driver/Inc/stm32f1xx_ll_gpio.h ****   uint32_t Mode;         /*!< Specifies the operating mode for the selected pins.
  81:Drivers/STM32F1xx_HAL_Driver/Inc/stm32f1xx_ll_gpio.h ****                               This parameter can be a value of @ref GPIO_LL_EC_MODE.
  82:Drivers/STM32F1xx_HAL_Driver/Inc/stm32f1xx_ll_gpio.h **** 
  83:Drivers/STM32F1xx_HAL_Driver/Inc/stm32f1xx_ll_gpio.h ****                               GPIO HW configuration can be modified afterwards using unitary functi
  84:Drivers/STM32F1xx_HAL_Driver/Inc/stm32f1xx_ll_gpio.h **** 
  85:Drivers/STM32F1xx_HAL_Driver/Inc/stm32f1xx_ll_gpio.h ****   uint32_t Speed;        /*!< Specifies the speed for the selected pins.
  86:Drivers/STM32F1xx_HAL_Driver/Inc/stm32f1xx_ll_gpio.h ****                               This parameter can be a value of @ref GPIO_LL_EC_SPEED.
  87:Drivers/STM32F1xx_HAL_Driver/Inc/stm32f1xx_ll_gpio.h **** 
  88:Drivers/STM32F1xx_HAL_Driver/Inc/stm32f1xx_ll_gpio.h ****                               GPIO HW configuration can be modified afterwards using unitary functi
  89:Drivers/STM32F1xx_HAL_Driver/Inc/stm32f1xx_ll_gpio.h **** 
  90:Drivers/STM32F1xx_HAL_Driver/Inc/stm32f1xx_ll_gpio.h ****   uint32_t OutputType;   /*!< Specifies the operating output type for the selected pins.
  91:Drivers/STM32F1xx_HAL_Driver/Inc/stm32f1xx_ll_gpio.h ****                               This parameter can be a value of @ref GPIO_LL_EC_OUTPUT.
  92:Drivers/STM32F1xx_HAL_Driver/Inc/stm32f1xx_ll_gpio.h **** 
ARM GAS  C:\Users\VIDCOM~1\AppData\Local\Temp\ccpY4rta.s 			page 17


  93:Drivers/STM32F1xx_HAL_Driver/Inc/stm32f1xx_ll_gpio.h ****                               GPIO HW configuration can be modified afterwards using unitary functi
  94:Drivers/STM32F1xx_HAL_Driver/Inc/stm32f1xx_ll_gpio.h **** 
  95:Drivers/STM32F1xx_HAL_Driver/Inc/stm32f1xx_ll_gpio.h ****   uint32_t Pull;         /*!< Specifies the operating Pull-up/Pull down for the selected pins.
  96:Drivers/STM32F1xx_HAL_Driver/Inc/stm32f1xx_ll_gpio.h ****                               This parameter can be a value of @ref GPIO_LL_EC_PULL.
  97:Drivers/STM32F1xx_HAL_Driver/Inc/stm32f1xx_ll_gpio.h **** 
  98:Drivers/STM32F1xx_HAL_Driver/Inc/stm32f1xx_ll_gpio.h ****                               GPIO HW configuration can be modified afterwards using unitary functi
  99:Drivers/STM32F1xx_HAL_Driver/Inc/stm32f1xx_ll_gpio.h **** } LL_GPIO_InitTypeDef;
 100:Drivers/STM32F1xx_HAL_Driver/Inc/stm32f1xx_ll_gpio.h **** 
 101:Drivers/STM32F1xx_HAL_Driver/Inc/stm32f1xx_ll_gpio.h **** /**
 102:Drivers/STM32F1xx_HAL_Driver/Inc/stm32f1xx_ll_gpio.h ****   * @}
 103:Drivers/STM32F1xx_HAL_Driver/Inc/stm32f1xx_ll_gpio.h ****   */
 104:Drivers/STM32F1xx_HAL_Driver/Inc/stm32f1xx_ll_gpio.h **** #endif /* USE_FULL_LL_DRIVER */
 105:Drivers/STM32F1xx_HAL_Driver/Inc/stm32f1xx_ll_gpio.h **** 
 106:Drivers/STM32F1xx_HAL_Driver/Inc/stm32f1xx_ll_gpio.h **** /* Exported constants --------------------------------------------------------*/
 107:Drivers/STM32F1xx_HAL_Driver/Inc/stm32f1xx_ll_gpio.h **** /** @defgroup GPIO_LL_Exported_Constants GPIO Exported Constants
 108:Drivers/STM32F1xx_HAL_Driver/Inc/stm32f1xx_ll_gpio.h ****   * @{
 109:Drivers/STM32F1xx_HAL_Driver/Inc/stm32f1xx_ll_gpio.h ****   */
 110:Drivers/STM32F1xx_HAL_Driver/Inc/stm32f1xx_ll_gpio.h **** 
 111:Drivers/STM32F1xx_HAL_Driver/Inc/stm32f1xx_ll_gpio.h **** /** @defgroup GPIO_LL_EC_PIN PIN
 112:Drivers/STM32F1xx_HAL_Driver/Inc/stm32f1xx_ll_gpio.h ****   * @{
 113:Drivers/STM32F1xx_HAL_Driver/Inc/stm32f1xx_ll_gpio.h ****   */
 114:Drivers/STM32F1xx_HAL_Driver/Inc/stm32f1xx_ll_gpio.h **** #define LL_GPIO_PIN_0                    ((GPIO_BSRR_BS0  << GPIO_PIN_MASK_POS) | 0x00000001U)  /*!
 115:Drivers/STM32F1xx_HAL_Driver/Inc/stm32f1xx_ll_gpio.h **** #define LL_GPIO_PIN_1                    ((GPIO_BSRR_BS1  << GPIO_PIN_MASK_POS) | 0x00000002U)  /*!
 116:Drivers/STM32F1xx_HAL_Driver/Inc/stm32f1xx_ll_gpio.h **** #define LL_GPIO_PIN_2                    ((GPIO_BSRR_BS2  << GPIO_PIN_MASK_POS) | 0x00000004U)  /*!
 117:Drivers/STM32F1xx_HAL_Driver/Inc/stm32f1xx_ll_gpio.h **** #define LL_GPIO_PIN_3                    ((GPIO_BSRR_BS3  << GPIO_PIN_MASK_POS) | 0x00000008U)  /*!
 118:Drivers/STM32F1xx_HAL_Driver/Inc/stm32f1xx_ll_gpio.h **** #define LL_GPIO_PIN_4                    ((GPIO_BSRR_BS4  << GPIO_PIN_MASK_POS) | 0x00000010U)  /*!
 119:Drivers/STM32F1xx_HAL_Driver/Inc/stm32f1xx_ll_gpio.h **** #define LL_GPIO_PIN_5                    ((GPIO_BSRR_BS5  << GPIO_PIN_MASK_POS) | 0x00000020U)  /*!
 120:Drivers/STM32F1xx_HAL_Driver/Inc/stm32f1xx_ll_gpio.h **** #define LL_GPIO_PIN_6                    ((GPIO_BSRR_BS6  << GPIO_PIN_MASK_POS) | 0x00000040U)  /*!
 121:Drivers/STM32F1xx_HAL_Driver/Inc/stm32f1xx_ll_gpio.h **** #define LL_GPIO_PIN_7                    ((GPIO_BSRR_BS7  << GPIO_PIN_MASK_POS) | 0x00000080U)  /*!
 122:Drivers/STM32F1xx_HAL_Driver/Inc/stm32f1xx_ll_gpio.h **** #define LL_GPIO_PIN_8                    ((GPIO_BSRR_BS8  << GPIO_PIN_MASK_POS) | 0x04000001U)  /*!
 123:Drivers/STM32F1xx_HAL_Driver/Inc/stm32f1xx_ll_gpio.h **** #define LL_GPIO_PIN_9                    ((GPIO_BSRR_BS9  << GPIO_PIN_MASK_POS) | 0x04000002U)  /*!
 124:Drivers/STM32F1xx_HAL_Driver/Inc/stm32f1xx_ll_gpio.h **** #define LL_GPIO_PIN_10                   ((GPIO_BSRR_BS10 << GPIO_PIN_MASK_POS) | 0x04000004U)  /*!
 125:Drivers/STM32F1xx_HAL_Driver/Inc/stm32f1xx_ll_gpio.h **** #define LL_GPIO_PIN_11                   ((GPIO_BSRR_BS11 << GPIO_PIN_MASK_POS) | 0x04000008U)  /*!
 126:Drivers/STM32F1xx_HAL_Driver/Inc/stm32f1xx_ll_gpio.h **** #define LL_GPIO_PIN_12                   ((GPIO_BSRR_BS12 << GPIO_PIN_MASK_POS) | 0x04000010U)  /*!
 127:Drivers/STM32F1xx_HAL_Driver/Inc/stm32f1xx_ll_gpio.h **** #define LL_GPIO_PIN_13                   ((GPIO_BSRR_BS13 << GPIO_PIN_MASK_POS) | 0x04000020U)  /*!
 128:Drivers/STM32F1xx_HAL_Driver/Inc/stm32f1xx_ll_gpio.h **** #define LL_GPIO_PIN_14                   ((GPIO_BSRR_BS14 << GPIO_PIN_MASK_POS) | 0x04000040U)  /*!
 129:Drivers/STM32F1xx_HAL_Driver/Inc/stm32f1xx_ll_gpio.h **** #define LL_GPIO_PIN_15                   ((GPIO_BSRR_BS15 << GPIO_PIN_MASK_POS) | 0x04000080U)  /*!
 130:Drivers/STM32F1xx_HAL_Driver/Inc/stm32f1xx_ll_gpio.h **** #define LL_GPIO_PIN_ALL                  (LL_GPIO_PIN_0  | LL_GPIO_PIN_1  | LL_GPIO_PIN_2  | \
 131:Drivers/STM32F1xx_HAL_Driver/Inc/stm32f1xx_ll_gpio.h ****                                           LL_GPIO_PIN_3  | LL_GPIO_PIN_4  | LL_GPIO_PIN_5  | \
 132:Drivers/STM32F1xx_HAL_Driver/Inc/stm32f1xx_ll_gpio.h ****                                           LL_GPIO_PIN_6  | LL_GPIO_PIN_7  | LL_GPIO_PIN_8  | \
 133:Drivers/STM32F1xx_HAL_Driver/Inc/stm32f1xx_ll_gpio.h ****                                           LL_GPIO_PIN_9  | LL_GPIO_PIN_10 | LL_GPIO_PIN_11 | \
 134:Drivers/STM32F1xx_HAL_Driver/Inc/stm32f1xx_ll_gpio.h ****                                           LL_GPIO_PIN_12 | LL_GPIO_PIN_13 | LL_GPIO_PIN_14 | \
 135:Drivers/STM32F1xx_HAL_Driver/Inc/stm32f1xx_ll_gpio.h ****                                           LL_GPIO_PIN_15)                                      /*!<
 136:Drivers/STM32F1xx_HAL_Driver/Inc/stm32f1xx_ll_gpio.h **** /**
 137:Drivers/STM32F1xx_HAL_Driver/Inc/stm32f1xx_ll_gpio.h ****   * @}
 138:Drivers/STM32F1xx_HAL_Driver/Inc/stm32f1xx_ll_gpio.h ****   */
 139:Drivers/STM32F1xx_HAL_Driver/Inc/stm32f1xx_ll_gpio.h **** 
 140:Drivers/STM32F1xx_HAL_Driver/Inc/stm32f1xx_ll_gpio.h **** /** @defgroup GPIO_LL_EC_MODE Mode
 141:Drivers/STM32F1xx_HAL_Driver/Inc/stm32f1xx_ll_gpio.h ****   * @{
 142:Drivers/STM32F1xx_HAL_Driver/Inc/stm32f1xx_ll_gpio.h ****   */
 143:Drivers/STM32F1xx_HAL_Driver/Inc/stm32f1xx_ll_gpio.h **** #define LL_GPIO_MODE_ANALOG              0x00000000U       /*!< Select analog mode */
 144:Drivers/STM32F1xx_HAL_Driver/Inc/stm32f1xx_ll_gpio.h **** #define LL_GPIO_MODE_FLOATING            GPIO_CRL_CNF0_0   /*!< Select floating mode */
 145:Drivers/STM32F1xx_HAL_Driver/Inc/stm32f1xx_ll_gpio.h **** #define LL_GPIO_MODE_INPUT               GPIO_CRL_CNF0_1   /*!< Select input mode */
 146:Drivers/STM32F1xx_HAL_Driver/Inc/stm32f1xx_ll_gpio.h **** #define LL_GPIO_MODE_OUTPUT              GPIO_CRL_MODE0_0  /*!< Select general purpose output mode 
 147:Drivers/STM32F1xx_HAL_Driver/Inc/stm32f1xx_ll_gpio.h **** #define LL_GPIO_MODE_ALTERNATE           (GPIO_CRL_CNF0_1 | GPIO_CRL_MODE0_0) /*!< Select alternate
 148:Drivers/STM32F1xx_HAL_Driver/Inc/stm32f1xx_ll_gpio.h **** /**
 149:Drivers/STM32F1xx_HAL_Driver/Inc/stm32f1xx_ll_gpio.h ****   * @}
ARM GAS  C:\Users\VIDCOM~1\AppData\Local\Temp\ccpY4rta.s 			page 18


 150:Drivers/STM32F1xx_HAL_Driver/Inc/stm32f1xx_ll_gpio.h ****   */
 151:Drivers/STM32F1xx_HAL_Driver/Inc/stm32f1xx_ll_gpio.h **** 
 152:Drivers/STM32F1xx_HAL_Driver/Inc/stm32f1xx_ll_gpio.h **** /** @defgroup GPIO_LL_EC_OUTPUT Output Type
 153:Drivers/STM32F1xx_HAL_Driver/Inc/stm32f1xx_ll_gpio.h ****   * @{
 154:Drivers/STM32F1xx_HAL_Driver/Inc/stm32f1xx_ll_gpio.h ****   */
 155:Drivers/STM32F1xx_HAL_Driver/Inc/stm32f1xx_ll_gpio.h **** #define LL_GPIO_OUTPUT_PUSHPULL          0x00000000U                /*!< Select push-pull as output
 156:Drivers/STM32F1xx_HAL_Driver/Inc/stm32f1xx_ll_gpio.h **** #define LL_GPIO_OUTPUT_OPENDRAIN         GPIO_CRL_CNF0_0            /*!< Select open-drain as outpu
 157:Drivers/STM32F1xx_HAL_Driver/Inc/stm32f1xx_ll_gpio.h **** /**
 158:Drivers/STM32F1xx_HAL_Driver/Inc/stm32f1xx_ll_gpio.h ****   * @}
 159:Drivers/STM32F1xx_HAL_Driver/Inc/stm32f1xx_ll_gpio.h ****   */
 160:Drivers/STM32F1xx_HAL_Driver/Inc/stm32f1xx_ll_gpio.h **** 
 161:Drivers/STM32F1xx_HAL_Driver/Inc/stm32f1xx_ll_gpio.h **** /** @defgroup GPIO_LL_EC_SPEED Output Speed
 162:Drivers/STM32F1xx_HAL_Driver/Inc/stm32f1xx_ll_gpio.h ****   * @{
 163:Drivers/STM32F1xx_HAL_Driver/Inc/stm32f1xx_ll_gpio.h ****   */
 164:Drivers/STM32F1xx_HAL_Driver/Inc/stm32f1xx_ll_gpio.h **** #define LL_GPIO_MODE_OUTPUT_10MHz        GPIO_CRL_MODE0_0            /*!< Select Output mode, max s
 165:Drivers/STM32F1xx_HAL_Driver/Inc/stm32f1xx_ll_gpio.h **** #define LL_GPIO_MODE_OUTPUT_2MHz         GPIO_CRL_MODE0_1            /*!< Select Output mode, max s
 166:Drivers/STM32F1xx_HAL_Driver/Inc/stm32f1xx_ll_gpio.h **** #define LL_GPIO_MODE_OUTPUT_50MHz        GPIO_CRL_MODE0              /*!< Select Output mode, max s
 167:Drivers/STM32F1xx_HAL_Driver/Inc/stm32f1xx_ll_gpio.h **** /**
 168:Drivers/STM32F1xx_HAL_Driver/Inc/stm32f1xx_ll_gpio.h ****   * @}
 169:Drivers/STM32F1xx_HAL_Driver/Inc/stm32f1xx_ll_gpio.h ****   */
 170:Drivers/STM32F1xx_HAL_Driver/Inc/stm32f1xx_ll_gpio.h **** 
 171:Drivers/STM32F1xx_HAL_Driver/Inc/stm32f1xx_ll_gpio.h **** #define LL_GPIO_SPEED_FREQ_LOW           LL_GPIO_MODE_OUTPUT_2MHz    /*!< Select I/O low output spe
 172:Drivers/STM32F1xx_HAL_Driver/Inc/stm32f1xx_ll_gpio.h **** #define LL_GPIO_SPEED_FREQ_MEDIUM        LL_GPIO_MODE_OUTPUT_10MHz   /*!< Select I/O medium output 
 173:Drivers/STM32F1xx_HAL_Driver/Inc/stm32f1xx_ll_gpio.h **** #define LL_GPIO_SPEED_FREQ_HIGH          LL_GPIO_MODE_OUTPUT_50MHz   /*!< Select I/O high output sp
 174:Drivers/STM32F1xx_HAL_Driver/Inc/stm32f1xx_ll_gpio.h **** 
 175:Drivers/STM32F1xx_HAL_Driver/Inc/stm32f1xx_ll_gpio.h **** /** @defgroup GPIO_LL_EC_PULL Pull Up Pull Down
 176:Drivers/STM32F1xx_HAL_Driver/Inc/stm32f1xx_ll_gpio.h ****   * @{
 177:Drivers/STM32F1xx_HAL_Driver/Inc/stm32f1xx_ll_gpio.h ****   */
 178:Drivers/STM32F1xx_HAL_Driver/Inc/stm32f1xx_ll_gpio.h **** #define LL_GPIO_PULL_DOWN                0x00000000U    /*!< Select I/O pull down */
 179:Drivers/STM32F1xx_HAL_Driver/Inc/stm32f1xx_ll_gpio.h **** #define LL_GPIO_PULL_UP                  GPIO_ODR_ODR0  /*!< Select I/O pull up */
 180:Drivers/STM32F1xx_HAL_Driver/Inc/stm32f1xx_ll_gpio.h **** 
 181:Drivers/STM32F1xx_HAL_Driver/Inc/stm32f1xx_ll_gpio.h **** /**
 182:Drivers/STM32F1xx_HAL_Driver/Inc/stm32f1xx_ll_gpio.h ****   * @}
 183:Drivers/STM32F1xx_HAL_Driver/Inc/stm32f1xx_ll_gpio.h ****   */
 184:Drivers/STM32F1xx_HAL_Driver/Inc/stm32f1xx_ll_gpio.h **** 
 185:Drivers/STM32F1xx_HAL_Driver/Inc/stm32f1xx_ll_gpio.h **** /** @defgroup GPIO_LL_EVENTOUT_PIN EVENTOUT Pin
 186:Drivers/STM32F1xx_HAL_Driver/Inc/stm32f1xx_ll_gpio.h ****   * @{
 187:Drivers/STM32F1xx_HAL_Driver/Inc/stm32f1xx_ll_gpio.h ****   */
 188:Drivers/STM32F1xx_HAL_Driver/Inc/stm32f1xx_ll_gpio.h **** 
 189:Drivers/STM32F1xx_HAL_Driver/Inc/stm32f1xx_ll_gpio.h **** #define LL_GPIO_AF_EVENTOUT_PIN_0        AFIO_EVCR_PIN_PX0   /*!< EVENTOUT on pin 0 */
 190:Drivers/STM32F1xx_HAL_Driver/Inc/stm32f1xx_ll_gpio.h **** #define LL_GPIO_AF_EVENTOUT_PIN_1        AFIO_EVCR_PIN_PX1   /*!< EVENTOUT on pin 1 */
 191:Drivers/STM32F1xx_HAL_Driver/Inc/stm32f1xx_ll_gpio.h **** #define LL_GPIO_AF_EVENTOUT_PIN_2        AFIO_EVCR_PIN_PX2   /*!< EVENTOUT on pin 2 */
 192:Drivers/STM32F1xx_HAL_Driver/Inc/stm32f1xx_ll_gpio.h **** #define LL_GPIO_AF_EVENTOUT_PIN_3        AFIO_EVCR_PIN_PX3   /*!< EVENTOUT on pin 3 */
 193:Drivers/STM32F1xx_HAL_Driver/Inc/stm32f1xx_ll_gpio.h **** #define LL_GPIO_AF_EVENTOUT_PIN_4        AFIO_EVCR_PIN_PX4   /*!< EVENTOUT on pin 4 */
 194:Drivers/STM32F1xx_HAL_Driver/Inc/stm32f1xx_ll_gpio.h **** #define LL_GPIO_AF_EVENTOUT_PIN_5        AFIO_EVCR_PIN_PX5   /*!< EVENTOUT on pin 5 */
 195:Drivers/STM32F1xx_HAL_Driver/Inc/stm32f1xx_ll_gpio.h **** #define LL_GPIO_AF_EVENTOUT_PIN_6        AFIO_EVCR_PIN_PX6   /*!< EVENTOUT on pin 6 */
 196:Drivers/STM32F1xx_HAL_Driver/Inc/stm32f1xx_ll_gpio.h **** #define LL_GPIO_AF_EVENTOUT_PIN_7        AFIO_EVCR_PIN_PX7   /*!< EVENTOUT on pin 7 */
 197:Drivers/STM32F1xx_HAL_Driver/Inc/stm32f1xx_ll_gpio.h **** #define LL_GPIO_AF_EVENTOUT_PIN_8        AFIO_EVCR_PIN_PX8   /*!< EVENTOUT on pin 8 */
 198:Drivers/STM32F1xx_HAL_Driver/Inc/stm32f1xx_ll_gpio.h **** #define LL_GPIO_AF_EVENTOUT_PIN_9        AFIO_EVCR_PIN_PX9   /*!< EVENTOUT on pin 9 */
 199:Drivers/STM32F1xx_HAL_Driver/Inc/stm32f1xx_ll_gpio.h **** #define LL_GPIO_AF_EVENTOUT_PIN_10       AFIO_EVCR_PIN_PX10  /*!< EVENTOUT on pin 10 */
 200:Drivers/STM32F1xx_HAL_Driver/Inc/stm32f1xx_ll_gpio.h **** #define LL_GPIO_AF_EVENTOUT_PIN_11       AFIO_EVCR_PIN_PX11  /*!< EVENTOUT on pin 11 */
 201:Drivers/STM32F1xx_HAL_Driver/Inc/stm32f1xx_ll_gpio.h **** #define LL_GPIO_AF_EVENTOUT_PIN_12       AFIO_EVCR_PIN_PX12  /*!< EVENTOUT on pin 12 */
 202:Drivers/STM32F1xx_HAL_Driver/Inc/stm32f1xx_ll_gpio.h **** #define LL_GPIO_AF_EVENTOUT_PIN_13       AFIO_EVCR_PIN_PX13  /*!< EVENTOUT on pin 13 */
 203:Drivers/STM32F1xx_HAL_Driver/Inc/stm32f1xx_ll_gpio.h **** #define LL_GPIO_AF_EVENTOUT_PIN_14       AFIO_EVCR_PIN_PX14  /*!< EVENTOUT on pin 14 */
 204:Drivers/STM32F1xx_HAL_Driver/Inc/stm32f1xx_ll_gpio.h **** #define LL_GPIO_AF_EVENTOUT_PIN_15       AFIO_EVCR_PIN_PX15  /*!< EVENTOUT on pin 15 */
 205:Drivers/STM32F1xx_HAL_Driver/Inc/stm32f1xx_ll_gpio.h **** 
 206:Drivers/STM32F1xx_HAL_Driver/Inc/stm32f1xx_ll_gpio.h **** /**
ARM GAS  C:\Users\VIDCOM~1\AppData\Local\Temp\ccpY4rta.s 			page 19


 207:Drivers/STM32F1xx_HAL_Driver/Inc/stm32f1xx_ll_gpio.h ****   * @}
 208:Drivers/STM32F1xx_HAL_Driver/Inc/stm32f1xx_ll_gpio.h ****   */
 209:Drivers/STM32F1xx_HAL_Driver/Inc/stm32f1xx_ll_gpio.h **** 
 210:Drivers/STM32F1xx_HAL_Driver/Inc/stm32f1xx_ll_gpio.h **** /** @defgroup GPIO_LL_EVENTOUT_PORT EVENTOUT Port
 211:Drivers/STM32F1xx_HAL_Driver/Inc/stm32f1xx_ll_gpio.h ****   * @{
 212:Drivers/STM32F1xx_HAL_Driver/Inc/stm32f1xx_ll_gpio.h ****   */
 213:Drivers/STM32F1xx_HAL_Driver/Inc/stm32f1xx_ll_gpio.h **** 
 214:Drivers/STM32F1xx_HAL_Driver/Inc/stm32f1xx_ll_gpio.h **** #define LL_GPIO_AF_EVENTOUT_PORT_A       AFIO_EVCR_PORT_PA  /*!< EVENTOUT on port A */
 215:Drivers/STM32F1xx_HAL_Driver/Inc/stm32f1xx_ll_gpio.h **** #define LL_GPIO_AF_EVENTOUT_PORT_B       AFIO_EVCR_PORT_PB  /*!< EVENTOUT on port B */
 216:Drivers/STM32F1xx_HAL_Driver/Inc/stm32f1xx_ll_gpio.h **** #define LL_GPIO_AF_EVENTOUT_PORT_C       AFIO_EVCR_PORT_PC  /*!< EVENTOUT on port C */
 217:Drivers/STM32F1xx_HAL_Driver/Inc/stm32f1xx_ll_gpio.h **** #define LL_GPIO_AF_EVENTOUT_PORT_D       AFIO_EVCR_PORT_PD  /*!< EVENTOUT on port D */
 218:Drivers/STM32F1xx_HAL_Driver/Inc/stm32f1xx_ll_gpio.h **** #define LL_GPIO_AF_EVENTOUT_PORT_E       AFIO_EVCR_PORT_PE  /*!< EVENTOUT on port E */
 219:Drivers/STM32F1xx_HAL_Driver/Inc/stm32f1xx_ll_gpio.h **** 
 220:Drivers/STM32F1xx_HAL_Driver/Inc/stm32f1xx_ll_gpio.h **** /**
 221:Drivers/STM32F1xx_HAL_Driver/Inc/stm32f1xx_ll_gpio.h ****   * @}
 222:Drivers/STM32F1xx_HAL_Driver/Inc/stm32f1xx_ll_gpio.h ****   */
 223:Drivers/STM32F1xx_HAL_Driver/Inc/stm32f1xx_ll_gpio.h **** 
 224:Drivers/STM32F1xx_HAL_Driver/Inc/stm32f1xx_ll_gpio.h **** /** @defgroup GPIO_LL_EC_EXTI_PORT GPIO EXTI PORT
 225:Drivers/STM32F1xx_HAL_Driver/Inc/stm32f1xx_ll_gpio.h ****   * @{
 226:Drivers/STM32F1xx_HAL_Driver/Inc/stm32f1xx_ll_gpio.h ****   */
 227:Drivers/STM32F1xx_HAL_Driver/Inc/stm32f1xx_ll_gpio.h **** #define LL_GPIO_AF_EXTI_PORTA            0U   /*!< EXTI PORT A */
 228:Drivers/STM32F1xx_HAL_Driver/Inc/stm32f1xx_ll_gpio.h **** #define LL_GPIO_AF_EXTI_PORTB            1U   /*!< EXTI PORT B */
 229:Drivers/STM32F1xx_HAL_Driver/Inc/stm32f1xx_ll_gpio.h **** #define LL_GPIO_AF_EXTI_PORTC            2U   /*!< EXTI PORT C */
 230:Drivers/STM32F1xx_HAL_Driver/Inc/stm32f1xx_ll_gpio.h **** #define LL_GPIO_AF_EXTI_PORTD            3U   /*!< EXTI PORT D */
 231:Drivers/STM32F1xx_HAL_Driver/Inc/stm32f1xx_ll_gpio.h **** #define LL_GPIO_AF_EXTI_PORTE            4U   /*!< EXTI PORT E */
 232:Drivers/STM32F1xx_HAL_Driver/Inc/stm32f1xx_ll_gpio.h **** #define LL_GPIO_AF_EXTI_PORTF            5U   /*!< EXTI PORT F */
 233:Drivers/STM32F1xx_HAL_Driver/Inc/stm32f1xx_ll_gpio.h **** #define LL_GPIO_AF_EXTI_PORTG            6U   /*!< EXTI PORT G */
 234:Drivers/STM32F1xx_HAL_Driver/Inc/stm32f1xx_ll_gpio.h **** /**
 235:Drivers/STM32F1xx_HAL_Driver/Inc/stm32f1xx_ll_gpio.h ****   * @}
 236:Drivers/STM32F1xx_HAL_Driver/Inc/stm32f1xx_ll_gpio.h ****   */
 237:Drivers/STM32F1xx_HAL_Driver/Inc/stm32f1xx_ll_gpio.h **** 
 238:Drivers/STM32F1xx_HAL_Driver/Inc/stm32f1xx_ll_gpio.h **** /** @defgroup GPIO_LL_EC_EXTI_LINE GPIO EXTI LINE
 239:Drivers/STM32F1xx_HAL_Driver/Inc/stm32f1xx_ll_gpio.h ****   * @{
 240:Drivers/STM32F1xx_HAL_Driver/Inc/stm32f1xx_ll_gpio.h ****   */
 241:Drivers/STM32F1xx_HAL_Driver/Inc/stm32f1xx_ll_gpio.h **** #define LL_GPIO_AF_EXTI_LINE0            (0x000FU << 16U | 0U)  /*!< EXTI_POSITION_0  | EXTICR[0] *
 242:Drivers/STM32F1xx_HAL_Driver/Inc/stm32f1xx_ll_gpio.h **** #define LL_GPIO_AF_EXTI_LINE1            (0x00F0U << 16U | 0U)  /*!< EXTI_POSITION_4  | EXTICR[0] *
 243:Drivers/STM32F1xx_HAL_Driver/Inc/stm32f1xx_ll_gpio.h **** #define LL_GPIO_AF_EXTI_LINE2            (0x0F00U << 16U | 0U)  /*!< EXTI_POSITION_8  | EXTICR[0] *
 244:Drivers/STM32F1xx_HAL_Driver/Inc/stm32f1xx_ll_gpio.h **** #define LL_GPIO_AF_EXTI_LINE3            (0xF000U << 16U | 0U)  /*!< EXTI_POSITION_12 | EXTICR[0] *
 245:Drivers/STM32F1xx_HAL_Driver/Inc/stm32f1xx_ll_gpio.h **** #define LL_GPIO_AF_EXTI_LINE4            (0x000FU << 16U | 1U)  /*!< EXTI_POSITION_0  | EXTICR[1] *
 246:Drivers/STM32F1xx_HAL_Driver/Inc/stm32f1xx_ll_gpio.h **** #define LL_GPIO_AF_EXTI_LINE5            (0x00F0U << 16U | 1U)  /*!< EXTI_POSITION_4  | EXTICR[1] *
 247:Drivers/STM32F1xx_HAL_Driver/Inc/stm32f1xx_ll_gpio.h **** #define LL_GPIO_AF_EXTI_LINE6            (0x0F00U << 16U | 1U)  /*!< EXTI_POSITION_8  | EXTICR[1] *
 248:Drivers/STM32F1xx_HAL_Driver/Inc/stm32f1xx_ll_gpio.h **** #define LL_GPIO_AF_EXTI_LINE7            (0xF000U << 16U | 1U)  /*!< EXTI_POSITION_12 | EXTICR[1] *
 249:Drivers/STM32F1xx_HAL_Driver/Inc/stm32f1xx_ll_gpio.h **** #define LL_GPIO_AF_EXTI_LINE8            (0x000FU << 16U | 2U)  /*!< EXTI_POSITION_0  | EXTICR[2] *
 250:Drivers/STM32F1xx_HAL_Driver/Inc/stm32f1xx_ll_gpio.h **** #define LL_GPIO_AF_EXTI_LINE9            (0x00F0U << 16U | 2U)  /*!< EXTI_POSITION_4  | EXTICR[2] *
 251:Drivers/STM32F1xx_HAL_Driver/Inc/stm32f1xx_ll_gpio.h **** #define LL_GPIO_AF_EXTI_LINE10           (0x0F00U << 16U | 2U)  /*!< EXTI_POSITION_8  | EXTICR[2] *
 252:Drivers/STM32F1xx_HAL_Driver/Inc/stm32f1xx_ll_gpio.h **** #define LL_GPIO_AF_EXTI_LINE11           (0xF000U << 16U | 2U)  /*!< EXTI_POSITION_12 | EXTICR[2] *
 253:Drivers/STM32F1xx_HAL_Driver/Inc/stm32f1xx_ll_gpio.h **** #define LL_GPIO_AF_EXTI_LINE12           (0x000FU << 16U | 3U)  /*!< EXTI_POSITION_0  | EXTICR[3] *
 254:Drivers/STM32F1xx_HAL_Driver/Inc/stm32f1xx_ll_gpio.h **** #define LL_GPIO_AF_EXTI_LINE13           (0x00F0U << 16U | 3U)  /*!< EXTI_POSITION_4  | EXTICR[3] *
 255:Drivers/STM32F1xx_HAL_Driver/Inc/stm32f1xx_ll_gpio.h **** #define LL_GPIO_AF_EXTI_LINE14           (0x0F00U << 16U | 3U)  /*!< EXTI_POSITION_8  | EXTICR[3] *
 256:Drivers/STM32F1xx_HAL_Driver/Inc/stm32f1xx_ll_gpio.h **** #define LL_GPIO_AF_EXTI_LINE15           (0xF000U << 16U | 3U)  /*!< EXTI_POSITION_12 | EXTICR[3] *
 257:Drivers/STM32F1xx_HAL_Driver/Inc/stm32f1xx_ll_gpio.h **** /**
 258:Drivers/STM32F1xx_HAL_Driver/Inc/stm32f1xx_ll_gpio.h ****   * @}
 259:Drivers/STM32F1xx_HAL_Driver/Inc/stm32f1xx_ll_gpio.h ****   */
 260:Drivers/STM32F1xx_HAL_Driver/Inc/stm32f1xx_ll_gpio.h **** 
 261:Drivers/STM32F1xx_HAL_Driver/Inc/stm32f1xx_ll_gpio.h **** /**
 262:Drivers/STM32F1xx_HAL_Driver/Inc/stm32f1xx_ll_gpio.h ****   * @}
 263:Drivers/STM32F1xx_HAL_Driver/Inc/stm32f1xx_ll_gpio.h ****   */
ARM GAS  C:\Users\VIDCOM~1\AppData\Local\Temp\ccpY4rta.s 			page 20


 264:Drivers/STM32F1xx_HAL_Driver/Inc/stm32f1xx_ll_gpio.h **** 
 265:Drivers/STM32F1xx_HAL_Driver/Inc/stm32f1xx_ll_gpio.h **** /* Exported macro ------------------------------------------------------------*/
 266:Drivers/STM32F1xx_HAL_Driver/Inc/stm32f1xx_ll_gpio.h **** /** @defgroup GPIO_LL_Exported_Macros GPIO Exported Macros
 267:Drivers/STM32F1xx_HAL_Driver/Inc/stm32f1xx_ll_gpio.h ****   * @{
 268:Drivers/STM32F1xx_HAL_Driver/Inc/stm32f1xx_ll_gpio.h ****   */
 269:Drivers/STM32F1xx_HAL_Driver/Inc/stm32f1xx_ll_gpio.h **** 
 270:Drivers/STM32F1xx_HAL_Driver/Inc/stm32f1xx_ll_gpio.h **** /** @defgroup GPIO_LL_EM_WRITE_READ Common Write and read registers Macros
 271:Drivers/STM32F1xx_HAL_Driver/Inc/stm32f1xx_ll_gpio.h ****   * @{
 272:Drivers/STM32F1xx_HAL_Driver/Inc/stm32f1xx_ll_gpio.h ****   */
 273:Drivers/STM32F1xx_HAL_Driver/Inc/stm32f1xx_ll_gpio.h **** 
 274:Drivers/STM32F1xx_HAL_Driver/Inc/stm32f1xx_ll_gpio.h **** /**
 275:Drivers/STM32F1xx_HAL_Driver/Inc/stm32f1xx_ll_gpio.h ****   * @brief  Write a value in GPIO register
 276:Drivers/STM32F1xx_HAL_Driver/Inc/stm32f1xx_ll_gpio.h ****   * @param  __INSTANCE__ GPIO Instance
 277:Drivers/STM32F1xx_HAL_Driver/Inc/stm32f1xx_ll_gpio.h ****   * @param  __REG__ Register to be written
 278:Drivers/STM32F1xx_HAL_Driver/Inc/stm32f1xx_ll_gpio.h ****   * @param  __VALUE__ Value to be written in the register
 279:Drivers/STM32F1xx_HAL_Driver/Inc/stm32f1xx_ll_gpio.h ****   * @retval None
 280:Drivers/STM32F1xx_HAL_Driver/Inc/stm32f1xx_ll_gpio.h ****   */
 281:Drivers/STM32F1xx_HAL_Driver/Inc/stm32f1xx_ll_gpio.h **** #define LL_GPIO_WriteReg(__INSTANCE__, __REG__, __VALUE__) WRITE_REG(__INSTANCE__->__REG__, (__VALU
 282:Drivers/STM32F1xx_HAL_Driver/Inc/stm32f1xx_ll_gpio.h **** 
 283:Drivers/STM32F1xx_HAL_Driver/Inc/stm32f1xx_ll_gpio.h **** /**
 284:Drivers/STM32F1xx_HAL_Driver/Inc/stm32f1xx_ll_gpio.h ****   * @brief  Read a value in GPIO register
 285:Drivers/STM32F1xx_HAL_Driver/Inc/stm32f1xx_ll_gpio.h ****   * @param  __INSTANCE__ GPIO Instance
 286:Drivers/STM32F1xx_HAL_Driver/Inc/stm32f1xx_ll_gpio.h ****   * @param  __REG__ Register to be read
 287:Drivers/STM32F1xx_HAL_Driver/Inc/stm32f1xx_ll_gpio.h ****   * @retval Register value
 288:Drivers/STM32F1xx_HAL_Driver/Inc/stm32f1xx_ll_gpio.h ****   */
 289:Drivers/STM32F1xx_HAL_Driver/Inc/stm32f1xx_ll_gpio.h **** #define LL_GPIO_ReadReg(__INSTANCE__, __REG__) READ_REG(__INSTANCE__->__REG__)
 290:Drivers/STM32F1xx_HAL_Driver/Inc/stm32f1xx_ll_gpio.h **** /**
 291:Drivers/STM32F1xx_HAL_Driver/Inc/stm32f1xx_ll_gpio.h ****   * @}
 292:Drivers/STM32F1xx_HAL_Driver/Inc/stm32f1xx_ll_gpio.h ****   */
 293:Drivers/STM32F1xx_HAL_Driver/Inc/stm32f1xx_ll_gpio.h **** 
 294:Drivers/STM32F1xx_HAL_Driver/Inc/stm32f1xx_ll_gpio.h **** /**
 295:Drivers/STM32F1xx_HAL_Driver/Inc/stm32f1xx_ll_gpio.h ****   * @}
 296:Drivers/STM32F1xx_HAL_Driver/Inc/stm32f1xx_ll_gpio.h ****   */
 297:Drivers/STM32F1xx_HAL_Driver/Inc/stm32f1xx_ll_gpio.h **** 
 298:Drivers/STM32F1xx_HAL_Driver/Inc/stm32f1xx_ll_gpio.h **** /* Exported functions --------------------------------------------------------*/
 299:Drivers/STM32F1xx_HAL_Driver/Inc/stm32f1xx_ll_gpio.h **** /** @defgroup GPIO_LL_Exported_Functions GPIO Exported Functions
 300:Drivers/STM32F1xx_HAL_Driver/Inc/stm32f1xx_ll_gpio.h ****   * @{
 301:Drivers/STM32F1xx_HAL_Driver/Inc/stm32f1xx_ll_gpio.h ****   */
 302:Drivers/STM32F1xx_HAL_Driver/Inc/stm32f1xx_ll_gpio.h **** 
 303:Drivers/STM32F1xx_HAL_Driver/Inc/stm32f1xx_ll_gpio.h **** /** @defgroup GPIO_LL_EF_Port_Configuration Port Configuration
 304:Drivers/STM32F1xx_HAL_Driver/Inc/stm32f1xx_ll_gpio.h ****   * @{
 305:Drivers/STM32F1xx_HAL_Driver/Inc/stm32f1xx_ll_gpio.h ****   */
 306:Drivers/STM32F1xx_HAL_Driver/Inc/stm32f1xx_ll_gpio.h **** 
 307:Drivers/STM32F1xx_HAL_Driver/Inc/stm32f1xx_ll_gpio.h **** /**
 308:Drivers/STM32F1xx_HAL_Driver/Inc/stm32f1xx_ll_gpio.h ****   * @brief  Configure gpio mode for a dedicated pin on dedicated port.
 309:Drivers/STM32F1xx_HAL_Driver/Inc/stm32f1xx_ll_gpio.h ****   * @note   I/O mode can be Analog, Floating input, Input with pull-up/pull-down, General purpose O
 310:Drivers/STM32F1xx_HAL_Driver/Inc/stm32f1xx_ll_gpio.h ****   *         Alternate function Output.
 311:Drivers/STM32F1xx_HAL_Driver/Inc/stm32f1xx_ll_gpio.h ****   * @note   Warning: only one pin can be passed as parameter.
 312:Drivers/STM32F1xx_HAL_Driver/Inc/stm32f1xx_ll_gpio.h ****   * @rmtoll CRL        CNFy         LL_GPIO_SetPinMode
 313:Drivers/STM32F1xx_HAL_Driver/Inc/stm32f1xx_ll_gpio.h ****   * @rmtoll CRL        MODEy        LL_GPIO_SetPinMode
 314:Drivers/STM32F1xx_HAL_Driver/Inc/stm32f1xx_ll_gpio.h ****   * @rmtoll CRH        CNFy         LL_GPIO_SetPinMode
 315:Drivers/STM32F1xx_HAL_Driver/Inc/stm32f1xx_ll_gpio.h ****   * @rmtoll CRH        MODEy        LL_GPIO_SetPinMode
 316:Drivers/STM32F1xx_HAL_Driver/Inc/stm32f1xx_ll_gpio.h ****   * @param  GPIOx GPIO Port
 317:Drivers/STM32F1xx_HAL_Driver/Inc/stm32f1xx_ll_gpio.h ****   * @param  Pin This parameter can be one of the following values:
 318:Drivers/STM32F1xx_HAL_Driver/Inc/stm32f1xx_ll_gpio.h ****   *         @arg @ref LL_GPIO_PIN_0
 319:Drivers/STM32F1xx_HAL_Driver/Inc/stm32f1xx_ll_gpio.h ****   *         @arg @ref LL_GPIO_PIN_1
 320:Drivers/STM32F1xx_HAL_Driver/Inc/stm32f1xx_ll_gpio.h ****   *         @arg @ref LL_GPIO_PIN_2
ARM GAS  C:\Users\VIDCOM~1\AppData\Local\Temp\ccpY4rta.s 			page 21


 321:Drivers/STM32F1xx_HAL_Driver/Inc/stm32f1xx_ll_gpio.h ****   *         @arg @ref LL_GPIO_PIN_3
 322:Drivers/STM32F1xx_HAL_Driver/Inc/stm32f1xx_ll_gpio.h ****   *         @arg @ref LL_GPIO_PIN_4
 323:Drivers/STM32F1xx_HAL_Driver/Inc/stm32f1xx_ll_gpio.h ****   *         @arg @ref LL_GPIO_PIN_5
 324:Drivers/STM32F1xx_HAL_Driver/Inc/stm32f1xx_ll_gpio.h ****   *         @arg @ref LL_GPIO_PIN_6
 325:Drivers/STM32F1xx_HAL_Driver/Inc/stm32f1xx_ll_gpio.h ****   *         @arg @ref LL_GPIO_PIN_7
 326:Drivers/STM32F1xx_HAL_Driver/Inc/stm32f1xx_ll_gpio.h ****   *         @arg @ref LL_GPIO_PIN_8
 327:Drivers/STM32F1xx_HAL_Driver/Inc/stm32f1xx_ll_gpio.h ****   *         @arg @ref LL_GPIO_PIN_9
 328:Drivers/STM32F1xx_HAL_Driver/Inc/stm32f1xx_ll_gpio.h ****   *         @arg @ref LL_GPIO_PIN_10
 329:Drivers/STM32F1xx_HAL_Driver/Inc/stm32f1xx_ll_gpio.h ****   *         @arg @ref LL_GPIO_PIN_11
 330:Drivers/STM32F1xx_HAL_Driver/Inc/stm32f1xx_ll_gpio.h ****   *         @arg @ref LL_GPIO_PIN_12
 331:Drivers/STM32F1xx_HAL_Driver/Inc/stm32f1xx_ll_gpio.h ****   *         @arg @ref LL_GPIO_PIN_13
 332:Drivers/STM32F1xx_HAL_Driver/Inc/stm32f1xx_ll_gpio.h ****   *         @arg @ref LL_GPIO_PIN_14
 333:Drivers/STM32F1xx_HAL_Driver/Inc/stm32f1xx_ll_gpio.h ****   *         @arg @ref LL_GPIO_PIN_15
 334:Drivers/STM32F1xx_HAL_Driver/Inc/stm32f1xx_ll_gpio.h ****   * @param  Mode This parameter can be one of the following values:
 335:Drivers/STM32F1xx_HAL_Driver/Inc/stm32f1xx_ll_gpio.h ****   *         @arg @ref LL_GPIO_MODE_ANALOG
 336:Drivers/STM32F1xx_HAL_Driver/Inc/stm32f1xx_ll_gpio.h ****   *         @arg @ref LL_GPIO_MODE_FLOATING
 337:Drivers/STM32F1xx_HAL_Driver/Inc/stm32f1xx_ll_gpio.h ****   *         @arg @ref LL_GPIO_MODE_INPUT
 338:Drivers/STM32F1xx_HAL_Driver/Inc/stm32f1xx_ll_gpio.h ****   *         @arg @ref LL_GPIO_MODE_OUTPUT
 339:Drivers/STM32F1xx_HAL_Driver/Inc/stm32f1xx_ll_gpio.h ****   *         @arg @ref LL_GPIO_MODE_ALTERNATE
 340:Drivers/STM32F1xx_HAL_Driver/Inc/stm32f1xx_ll_gpio.h ****   * @retval None
 341:Drivers/STM32F1xx_HAL_Driver/Inc/stm32f1xx_ll_gpio.h ****   */
 342:Drivers/STM32F1xx_HAL_Driver/Inc/stm32f1xx_ll_gpio.h **** __STATIC_INLINE void LL_GPIO_SetPinMode(GPIO_TypeDef *GPIOx, uint32_t Pin, uint32_t Mode)
 343:Drivers/STM32F1xx_HAL_Driver/Inc/stm32f1xx_ll_gpio.h **** {
 344:Drivers/STM32F1xx_HAL_Driver/Inc/stm32f1xx_ll_gpio.h ****   register uint32_t *pReg = (uint32_t *)((uint32_t)((uint32_t)(&GPIOx->CRL) + (Pin >> 24)));
 345:Drivers/STM32F1xx_HAL_Driver/Inc/stm32f1xx_ll_gpio.h ****   MODIFY_REG(*pReg, ((GPIO_CRL_CNF0 | GPIO_CRL_MODE0) << (POSITION_VAL(Pin) * 4U)), (Mode << (POSIT
 346:Drivers/STM32F1xx_HAL_Driver/Inc/stm32f1xx_ll_gpio.h **** }
 347:Drivers/STM32F1xx_HAL_Driver/Inc/stm32f1xx_ll_gpio.h **** 
 348:Drivers/STM32F1xx_HAL_Driver/Inc/stm32f1xx_ll_gpio.h **** /**
 349:Drivers/STM32F1xx_HAL_Driver/Inc/stm32f1xx_ll_gpio.h ****   * @brief  Return gpio mode for a dedicated pin on dedicated port.
 350:Drivers/STM32F1xx_HAL_Driver/Inc/stm32f1xx_ll_gpio.h ****   * @note   I/O mode can be Analog, Floating input, Input with pull-up/pull-down, General purpose O
 351:Drivers/STM32F1xx_HAL_Driver/Inc/stm32f1xx_ll_gpio.h ****   *         Alternate function Output.
 352:Drivers/STM32F1xx_HAL_Driver/Inc/stm32f1xx_ll_gpio.h ****   * @note   Warning: only one pin can be passed as parameter.
 353:Drivers/STM32F1xx_HAL_Driver/Inc/stm32f1xx_ll_gpio.h ****   * @rmtoll CRL        CNFy         LL_GPIO_GetPinMode
 354:Drivers/STM32F1xx_HAL_Driver/Inc/stm32f1xx_ll_gpio.h ****   * @rmtoll CRL        MODEy        LL_GPIO_GetPinMode
 355:Drivers/STM32F1xx_HAL_Driver/Inc/stm32f1xx_ll_gpio.h ****   * @rmtoll CRH        CNFy         LL_GPIO_GetPinMode
 356:Drivers/STM32F1xx_HAL_Driver/Inc/stm32f1xx_ll_gpio.h ****   * @rmtoll CRH        MODEy        LL_GPIO_GetPinMode
 357:Drivers/STM32F1xx_HAL_Driver/Inc/stm32f1xx_ll_gpio.h ****   * @param  GPIOx GPIO Port
 358:Drivers/STM32F1xx_HAL_Driver/Inc/stm32f1xx_ll_gpio.h ****   * @param  Pin This parameter can be one of the following values:
 359:Drivers/STM32F1xx_HAL_Driver/Inc/stm32f1xx_ll_gpio.h ****   *         @arg @ref LL_GPIO_PIN_0
 360:Drivers/STM32F1xx_HAL_Driver/Inc/stm32f1xx_ll_gpio.h ****   *         @arg @ref LL_GPIO_PIN_1
 361:Drivers/STM32F1xx_HAL_Driver/Inc/stm32f1xx_ll_gpio.h ****   *         @arg @ref LL_GPIO_PIN_2
 362:Drivers/STM32F1xx_HAL_Driver/Inc/stm32f1xx_ll_gpio.h ****   *         @arg @ref LL_GPIO_PIN_3
 363:Drivers/STM32F1xx_HAL_Driver/Inc/stm32f1xx_ll_gpio.h ****   *         @arg @ref LL_GPIO_PIN_4
 364:Drivers/STM32F1xx_HAL_Driver/Inc/stm32f1xx_ll_gpio.h ****   *         @arg @ref LL_GPIO_PIN_5
 365:Drivers/STM32F1xx_HAL_Driver/Inc/stm32f1xx_ll_gpio.h ****   *         @arg @ref LL_GPIO_PIN_6
 366:Drivers/STM32F1xx_HAL_Driver/Inc/stm32f1xx_ll_gpio.h ****   *         @arg @ref LL_GPIO_PIN_7
 367:Drivers/STM32F1xx_HAL_Driver/Inc/stm32f1xx_ll_gpio.h ****   *         @arg @ref LL_GPIO_PIN_8
 368:Drivers/STM32F1xx_HAL_Driver/Inc/stm32f1xx_ll_gpio.h ****   *         @arg @ref LL_GPIO_PIN_9
 369:Drivers/STM32F1xx_HAL_Driver/Inc/stm32f1xx_ll_gpio.h ****   *         @arg @ref LL_GPIO_PIN_10
 370:Drivers/STM32F1xx_HAL_Driver/Inc/stm32f1xx_ll_gpio.h ****   *         @arg @ref LL_GPIO_PIN_11
 371:Drivers/STM32F1xx_HAL_Driver/Inc/stm32f1xx_ll_gpio.h ****   *         @arg @ref LL_GPIO_PIN_12
 372:Drivers/STM32F1xx_HAL_Driver/Inc/stm32f1xx_ll_gpio.h ****   *         @arg @ref LL_GPIO_PIN_13
 373:Drivers/STM32F1xx_HAL_Driver/Inc/stm32f1xx_ll_gpio.h ****   *         @arg @ref LL_GPIO_PIN_14
 374:Drivers/STM32F1xx_HAL_Driver/Inc/stm32f1xx_ll_gpio.h ****   *         @arg @ref LL_GPIO_PIN_15
 375:Drivers/STM32F1xx_HAL_Driver/Inc/stm32f1xx_ll_gpio.h ****   * @retval Returned value can be one of the following values:
 376:Drivers/STM32F1xx_HAL_Driver/Inc/stm32f1xx_ll_gpio.h ****   *         @arg @ref LL_GPIO_MODE_ANALOG
 377:Drivers/STM32F1xx_HAL_Driver/Inc/stm32f1xx_ll_gpio.h ****   *         @arg @ref LL_GPIO_MODE_FLOATING
ARM GAS  C:\Users\VIDCOM~1\AppData\Local\Temp\ccpY4rta.s 			page 22


 378:Drivers/STM32F1xx_HAL_Driver/Inc/stm32f1xx_ll_gpio.h ****   *         @arg @ref LL_GPIO_MODE_INPUT
 379:Drivers/STM32F1xx_HAL_Driver/Inc/stm32f1xx_ll_gpio.h ****   *         @arg @ref LL_GPIO_MODE_OUTPUT
 380:Drivers/STM32F1xx_HAL_Driver/Inc/stm32f1xx_ll_gpio.h ****   *         @arg @ref LL_GPIO_MODE_ALTERNATE
 381:Drivers/STM32F1xx_HAL_Driver/Inc/stm32f1xx_ll_gpio.h ****   */
 382:Drivers/STM32F1xx_HAL_Driver/Inc/stm32f1xx_ll_gpio.h **** __STATIC_INLINE uint32_t LL_GPIO_GetPinMode(GPIO_TypeDef *GPIOx, uint32_t Pin)
 383:Drivers/STM32F1xx_HAL_Driver/Inc/stm32f1xx_ll_gpio.h **** {
 384:Drivers/STM32F1xx_HAL_Driver/Inc/stm32f1xx_ll_gpio.h ****   register uint32_t *pReg = (uint32_t *)((uint32_t)((uint32_t)(&GPIOx->CRL) + (Pin >> 24)));
 385:Drivers/STM32F1xx_HAL_Driver/Inc/stm32f1xx_ll_gpio.h ****   return (READ_BIT(*pReg, ((GPIO_CRL_CNF0 | GPIO_CRL_MODE0) << (POSITION_VAL(Pin) * 4U))) >> (POSIT
 386:Drivers/STM32F1xx_HAL_Driver/Inc/stm32f1xx_ll_gpio.h **** }
 387:Drivers/STM32F1xx_HAL_Driver/Inc/stm32f1xx_ll_gpio.h **** 
 388:Drivers/STM32F1xx_HAL_Driver/Inc/stm32f1xx_ll_gpio.h **** /**
 389:Drivers/STM32F1xx_HAL_Driver/Inc/stm32f1xx_ll_gpio.h ****   * @brief  Configure gpio speed for a dedicated pin on dedicated port.
 390:Drivers/STM32F1xx_HAL_Driver/Inc/stm32f1xx_ll_gpio.h ****   * @note   I/O speed can be Low, Medium or Fast speed.
 391:Drivers/STM32F1xx_HAL_Driver/Inc/stm32f1xx_ll_gpio.h ****   * @note   Warning: only one pin can be passed as parameter.
 392:Drivers/STM32F1xx_HAL_Driver/Inc/stm32f1xx_ll_gpio.h ****   * @note   Refer to datasheet for frequency specifications and the power
 393:Drivers/STM32F1xx_HAL_Driver/Inc/stm32f1xx_ll_gpio.h ****   *         supply and load conditions for each speed.
 394:Drivers/STM32F1xx_HAL_Driver/Inc/stm32f1xx_ll_gpio.h ****   * @rmtoll CRL      MODEy       LL_GPIO_SetPinSpeed
 395:Drivers/STM32F1xx_HAL_Driver/Inc/stm32f1xx_ll_gpio.h ****   * @rmtoll CRH      MODEy       LL_GPIO_SetPinSpeed
 396:Drivers/STM32F1xx_HAL_Driver/Inc/stm32f1xx_ll_gpio.h ****   * @param  GPIOx GPIO Port
 397:Drivers/STM32F1xx_HAL_Driver/Inc/stm32f1xx_ll_gpio.h ****   * @param  Pin This parameter can be one of the following values:
 398:Drivers/STM32F1xx_HAL_Driver/Inc/stm32f1xx_ll_gpio.h ****   *         @arg @ref LL_GPIO_PIN_0
 399:Drivers/STM32F1xx_HAL_Driver/Inc/stm32f1xx_ll_gpio.h ****   *         @arg @ref LL_GPIO_PIN_1
 400:Drivers/STM32F1xx_HAL_Driver/Inc/stm32f1xx_ll_gpio.h ****   *         @arg @ref LL_GPIO_PIN_2
 401:Drivers/STM32F1xx_HAL_Driver/Inc/stm32f1xx_ll_gpio.h ****   *         @arg @ref LL_GPIO_PIN_3
 402:Drivers/STM32F1xx_HAL_Driver/Inc/stm32f1xx_ll_gpio.h ****   *         @arg @ref LL_GPIO_PIN_4
 403:Drivers/STM32F1xx_HAL_Driver/Inc/stm32f1xx_ll_gpio.h ****   *         @arg @ref LL_GPIO_PIN_5
 404:Drivers/STM32F1xx_HAL_Driver/Inc/stm32f1xx_ll_gpio.h ****   *         @arg @ref LL_GPIO_PIN_6
 405:Drivers/STM32F1xx_HAL_Driver/Inc/stm32f1xx_ll_gpio.h ****   *         @arg @ref LL_GPIO_PIN_7
 406:Drivers/STM32F1xx_HAL_Driver/Inc/stm32f1xx_ll_gpio.h ****   *         @arg @ref LL_GPIO_PIN_8
 407:Drivers/STM32F1xx_HAL_Driver/Inc/stm32f1xx_ll_gpio.h ****   *         @arg @ref LL_GPIO_PIN_9
 408:Drivers/STM32F1xx_HAL_Driver/Inc/stm32f1xx_ll_gpio.h ****   *         @arg @ref LL_GPIO_PIN_10
 409:Drivers/STM32F1xx_HAL_Driver/Inc/stm32f1xx_ll_gpio.h ****   *         @arg @ref LL_GPIO_PIN_11
 410:Drivers/STM32F1xx_HAL_Driver/Inc/stm32f1xx_ll_gpio.h ****   *         @arg @ref LL_GPIO_PIN_12
 411:Drivers/STM32F1xx_HAL_Driver/Inc/stm32f1xx_ll_gpio.h ****   *         @arg @ref LL_GPIO_PIN_13
 412:Drivers/STM32F1xx_HAL_Driver/Inc/stm32f1xx_ll_gpio.h ****   *         @arg @ref LL_GPIO_PIN_14
 413:Drivers/STM32F1xx_HAL_Driver/Inc/stm32f1xx_ll_gpio.h ****   *         @arg @ref LL_GPIO_PIN_15
 414:Drivers/STM32F1xx_HAL_Driver/Inc/stm32f1xx_ll_gpio.h ****   * @param  Speed This parameter can be one of the following values:
 415:Drivers/STM32F1xx_HAL_Driver/Inc/stm32f1xx_ll_gpio.h ****   *         @arg @ref LL_GPIO_SPEED_FREQ_LOW
 416:Drivers/STM32F1xx_HAL_Driver/Inc/stm32f1xx_ll_gpio.h ****   *         @arg @ref LL_GPIO_SPEED_FREQ_MEDIUM
 417:Drivers/STM32F1xx_HAL_Driver/Inc/stm32f1xx_ll_gpio.h ****   *         @arg @ref LL_GPIO_SPEED_FREQ_HIGH
 418:Drivers/STM32F1xx_HAL_Driver/Inc/stm32f1xx_ll_gpio.h ****   * @retval None
 419:Drivers/STM32F1xx_HAL_Driver/Inc/stm32f1xx_ll_gpio.h ****   */
 420:Drivers/STM32F1xx_HAL_Driver/Inc/stm32f1xx_ll_gpio.h **** __STATIC_INLINE void LL_GPIO_SetPinSpeed(GPIO_TypeDef *GPIOx, uint32_t Pin, uint32_t  Speed)
 421:Drivers/STM32F1xx_HAL_Driver/Inc/stm32f1xx_ll_gpio.h **** {
 422:Drivers/STM32F1xx_HAL_Driver/Inc/stm32f1xx_ll_gpio.h ****   register uint32_t *pReg = (uint32_t *)((uint32_t)((uint32_t)(&GPIOx->CRL) + (Pin >> 24)));
 423:Drivers/STM32F1xx_HAL_Driver/Inc/stm32f1xx_ll_gpio.h ****   MODIFY_REG(*pReg, (GPIO_CRL_MODE0 << (POSITION_VAL(Pin) * 4U)),
 424:Drivers/STM32F1xx_HAL_Driver/Inc/stm32f1xx_ll_gpio.h ****              (Speed << (POSITION_VAL(Pin) * 4U)));
 425:Drivers/STM32F1xx_HAL_Driver/Inc/stm32f1xx_ll_gpio.h **** }
 426:Drivers/STM32F1xx_HAL_Driver/Inc/stm32f1xx_ll_gpio.h **** 
 427:Drivers/STM32F1xx_HAL_Driver/Inc/stm32f1xx_ll_gpio.h **** /**
 428:Drivers/STM32F1xx_HAL_Driver/Inc/stm32f1xx_ll_gpio.h ****   * @brief  Return gpio speed for a dedicated pin on dedicated port.
 429:Drivers/STM32F1xx_HAL_Driver/Inc/stm32f1xx_ll_gpio.h ****   * @note   I/O speed can be Low, Medium, Fast or High speed.
 430:Drivers/STM32F1xx_HAL_Driver/Inc/stm32f1xx_ll_gpio.h ****   * @note   Warning: only one pin can be passed as parameter.
 431:Drivers/STM32F1xx_HAL_Driver/Inc/stm32f1xx_ll_gpio.h ****   * @note   Refer to datasheet for frequency specifications and the power
 432:Drivers/STM32F1xx_HAL_Driver/Inc/stm32f1xx_ll_gpio.h ****   *         supply and load conditions for each speed.
 433:Drivers/STM32F1xx_HAL_Driver/Inc/stm32f1xx_ll_gpio.h ****   * @rmtoll CRL      MODEy       LL_GPIO_GetPinSpeed
 434:Drivers/STM32F1xx_HAL_Driver/Inc/stm32f1xx_ll_gpio.h ****   * @rmtoll CRH      MODEy       LL_GPIO_GetPinSpeed
ARM GAS  C:\Users\VIDCOM~1\AppData\Local\Temp\ccpY4rta.s 			page 23


 435:Drivers/STM32F1xx_HAL_Driver/Inc/stm32f1xx_ll_gpio.h ****   * @param  GPIOx GPIO Port
 436:Drivers/STM32F1xx_HAL_Driver/Inc/stm32f1xx_ll_gpio.h ****   * @param  Pin This parameter can be one of the following values:
 437:Drivers/STM32F1xx_HAL_Driver/Inc/stm32f1xx_ll_gpio.h ****   *         @arg @ref LL_GPIO_PIN_0
 438:Drivers/STM32F1xx_HAL_Driver/Inc/stm32f1xx_ll_gpio.h ****   *         @arg @ref LL_GPIO_PIN_1
 439:Drivers/STM32F1xx_HAL_Driver/Inc/stm32f1xx_ll_gpio.h ****   *         @arg @ref LL_GPIO_PIN_2
 440:Drivers/STM32F1xx_HAL_Driver/Inc/stm32f1xx_ll_gpio.h ****   *         @arg @ref LL_GPIO_PIN_3
 441:Drivers/STM32F1xx_HAL_Driver/Inc/stm32f1xx_ll_gpio.h ****   *         @arg @ref LL_GPIO_PIN_4
 442:Drivers/STM32F1xx_HAL_Driver/Inc/stm32f1xx_ll_gpio.h ****   *         @arg @ref LL_GPIO_PIN_5
 443:Drivers/STM32F1xx_HAL_Driver/Inc/stm32f1xx_ll_gpio.h ****   *         @arg @ref LL_GPIO_PIN_6
 444:Drivers/STM32F1xx_HAL_Driver/Inc/stm32f1xx_ll_gpio.h ****   *         @arg @ref LL_GPIO_PIN_7
 445:Drivers/STM32F1xx_HAL_Driver/Inc/stm32f1xx_ll_gpio.h ****   *         @arg @ref LL_GPIO_PIN_8
 446:Drivers/STM32F1xx_HAL_Driver/Inc/stm32f1xx_ll_gpio.h ****   *         @arg @ref LL_GPIO_PIN_9
 447:Drivers/STM32F1xx_HAL_Driver/Inc/stm32f1xx_ll_gpio.h ****   *         @arg @ref LL_GPIO_PIN_10
 448:Drivers/STM32F1xx_HAL_Driver/Inc/stm32f1xx_ll_gpio.h ****   *         @arg @ref LL_GPIO_PIN_11
 449:Drivers/STM32F1xx_HAL_Driver/Inc/stm32f1xx_ll_gpio.h ****   *         @arg @ref LL_GPIO_PIN_12
 450:Drivers/STM32F1xx_HAL_Driver/Inc/stm32f1xx_ll_gpio.h ****   *         @arg @ref LL_GPIO_PIN_13
 451:Drivers/STM32F1xx_HAL_Driver/Inc/stm32f1xx_ll_gpio.h ****   *         @arg @ref LL_GPIO_PIN_14
 452:Drivers/STM32F1xx_HAL_Driver/Inc/stm32f1xx_ll_gpio.h ****   *         @arg @ref LL_GPIO_PIN_15
 453:Drivers/STM32F1xx_HAL_Driver/Inc/stm32f1xx_ll_gpio.h ****   * @retval Returned value can be one of the following values:
 454:Drivers/STM32F1xx_HAL_Driver/Inc/stm32f1xx_ll_gpio.h ****   *         @arg @ref LL_GPIO_SPEED_FREQ_LOW
 455:Drivers/STM32F1xx_HAL_Driver/Inc/stm32f1xx_ll_gpio.h ****   *         @arg @ref LL_GPIO_SPEED_FREQ_MEDIUM
 456:Drivers/STM32F1xx_HAL_Driver/Inc/stm32f1xx_ll_gpio.h ****   *         @arg @ref LL_GPIO_SPEED_FREQ_HIGH
 457:Drivers/STM32F1xx_HAL_Driver/Inc/stm32f1xx_ll_gpio.h ****   */
 458:Drivers/STM32F1xx_HAL_Driver/Inc/stm32f1xx_ll_gpio.h **** __STATIC_INLINE uint32_t LL_GPIO_GetPinSpeed(GPIO_TypeDef *GPIOx, uint32_t Pin)
 459:Drivers/STM32F1xx_HAL_Driver/Inc/stm32f1xx_ll_gpio.h **** {
 460:Drivers/STM32F1xx_HAL_Driver/Inc/stm32f1xx_ll_gpio.h ****   register uint32_t *pReg = (uint32_t *)((uint32_t)((uint32_t)(&GPIOx->CRL) + (Pin >> 24)));
 461:Drivers/STM32F1xx_HAL_Driver/Inc/stm32f1xx_ll_gpio.h ****   return (READ_BIT(*pReg, (GPIO_CRL_MODE0 << (POSITION_VAL(Pin) * 4U))) >> (POSITION_VAL(Pin) * 4U)
 462:Drivers/STM32F1xx_HAL_Driver/Inc/stm32f1xx_ll_gpio.h **** }
 463:Drivers/STM32F1xx_HAL_Driver/Inc/stm32f1xx_ll_gpio.h **** 
 464:Drivers/STM32F1xx_HAL_Driver/Inc/stm32f1xx_ll_gpio.h **** /**
 465:Drivers/STM32F1xx_HAL_Driver/Inc/stm32f1xx_ll_gpio.h ****   * @brief  Configure gpio output type for several pins on dedicated port.
 466:Drivers/STM32F1xx_HAL_Driver/Inc/stm32f1xx_ll_gpio.h ****   * @note   Output type as to be set when gpio pin is in output or
 467:Drivers/STM32F1xx_HAL_Driver/Inc/stm32f1xx_ll_gpio.h ****   *         alternate modes. Possible type are Push-pull or Open-drain.
 468:Drivers/STM32F1xx_HAL_Driver/Inc/stm32f1xx_ll_gpio.h ****   * @rmtoll CRL       MODEy           LL_GPIO_SetPinOutputType
 469:Drivers/STM32F1xx_HAL_Driver/Inc/stm32f1xx_ll_gpio.h ****   * @rmtoll CRH       MODEy           LL_GPIO_SetPinOutputType
 470:Drivers/STM32F1xx_HAL_Driver/Inc/stm32f1xx_ll_gpio.h ****   * @param  GPIOx GPIO Port
 471:Drivers/STM32F1xx_HAL_Driver/Inc/stm32f1xx_ll_gpio.h ****   * @param  Pin This parameter can be a combination of the following values:
 472:Drivers/STM32F1xx_HAL_Driver/Inc/stm32f1xx_ll_gpio.h ****   *         @arg @ref LL_GPIO_PIN_0
 473:Drivers/STM32F1xx_HAL_Driver/Inc/stm32f1xx_ll_gpio.h ****   *         @arg @ref LL_GPIO_PIN_1
 474:Drivers/STM32F1xx_HAL_Driver/Inc/stm32f1xx_ll_gpio.h ****   *         @arg @ref LL_GPIO_PIN_2
 475:Drivers/STM32F1xx_HAL_Driver/Inc/stm32f1xx_ll_gpio.h ****   *         @arg @ref LL_GPIO_PIN_3
 476:Drivers/STM32F1xx_HAL_Driver/Inc/stm32f1xx_ll_gpio.h ****   *         @arg @ref LL_GPIO_PIN_4
 477:Drivers/STM32F1xx_HAL_Driver/Inc/stm32f1xx_ll_gpio.h ****   *         @arg @ref LL_GPIO_PIN_5
 478:Drivers/STM32F1xx_HAL_Driver/Inc/stm32f1xx_ll_gpio.h ****   *         @arg @ref LL_GPIO_PIN_6
 479:Drivers/STM32F1xx_HAL_Driver/Inc/stm32f1xx_ll_gpio.h ****   *         @arg @ref LL_GPIO_PIN_7
 480:Drivers/STM32F1xx_HAL_Driver/Inc/stm32f1xx_ll_gpio.h ****   *         @arg @ref LL_GPIO_PIN_8
 481:Drivers/STM32F1xx_HAL_Driver/Inc/stm32f1xx_ll_gpio.h ****   *         @arg @ref LL_GPIO_PIN_9
 482:Drivers/STM32F1xx_HAL_Driver/Inc/stm32f1xx_ll_gpio.h ****   *         @arg @ref LL_GPIO_PIN_10
 483:Drivers/STM32F1xx_HAL_Driver/Inc/stm32f1xx_ll_gpio.h ****   *         @arg @ref LL_GPIO_PIN_11
 484:Drivers/STM32F1xx_HAL_Driver/Inc/stm32f1xx_ll_gpio.h ****   *         @arg @ref LL_GPIO_PIN_12
 485:Drivers/STM32F1xx_HAL_Driver/Inc/stm32f1xx_ll_gpio.h ****   *         @arg @ref LL_GPIO_PIN_13
 486:Drivers/STM32F1xx_HAL_Driver/Inc/stm32f1xx_ll_gpio.h ****   *         @arg @ref LL_GPIO_PIN_14
 487:Drivers/STM32F1xx_HAL_Driver/Inc/stm32f1xx_ll_gpio.h ****   *         @arg @ref LL_GPIO_PIN_15
 488:Drivers/STM32F1xx_HAL_Driver/Inc/stm32f1xx_ll_gpio.h ****   *         @arg @ref LL_GPIO_PIN_ALL
 489:Drivers/STM32F1xx_HAL_Driver/Inc/stm32f1xx_ll_gpio.h ****   * @param  OutputType This parameter can be one of the following values:
 490:Drivers/STM32F1xx_HAL_Driver/Inc/stm32f1xx_ll_gpio.h ****   *         @arg @ref LL_GPIO_OUTPUT_PUSHPULL
 491:Drivers/STM32F1xx_HAL_Driver/Inc/stm32f1xx_ll_gpio.h ****   *         @arg @ref LL_GPIO_OUTPUT_OPENDRAIN
ARM GAS  C:\Users\VIDCOM~1\AppData\Local\Temp\ccpY4rta.s 			page 24


 492:Drivers/STM32F1xx_HAL_Driver/Inc/stm32f1xx_ll_gpio.h ****   * @retval None
 493:Drivers/STM32F1xx_HAL_Driver/Inc/stm32f1xx_ll_gpio.h ****   */
 494:Drivers/STM32F1xx_HAL_Driver/Inc/stm32f1xx_ll_gpio.h **** __STATIC_INLINE void LL_GPIO_SetPinOutputType(GPIO_TypeDef *GPIOx, uint32_t Pin, uint32_t OutputTyp
 495:Drivers/STM32F1xx_HAL_Driver/Inc/stm32f1xx_ll_gpio.h **** {
 496:Drivers/STM32F1xx_HAL_Driver/Inc/stm32f1xx_ll_gpio.h ****   register uint32_t *pReg = (uint32_t *)((uint32_t)((uint32_t)(&GPIOx->CRL) + (Pin >> 24)));
 497:Drivers/STM32F1xx_HAL_Driver/Inc/stm32f1xx_ll_gpio.h ****   MODIFY_REG(*pReg, (GPIO_CRL_CNF0_0 << (POSITION_VAL(Pin) * 4U)),
 498:Drivers/STM32F1xx_HAL_Driver/Inc/stm32f1xx_ll_gpio.h ****              (OutputType << (POSITION_VAL(Pin) * 4U)));
 499:Drivers/STM32F1xx_HAL_Driver/Inc/stm32f1xx_ll_gpio.h **** }
 500:Drivers/STM32F1xx_HAL_Driver/Inc/stm32f1xx_ll_gpio.h **** 
 501:Drivers/STM32F1xx_HAL_Driver/Inc/stm32f1xx_ll_gpio.h **** /**
 502:Drivers/STM32F1xx_HAL_Driver/Inc/stm32f1xx_ll_gpio.h ****   * @brief  Return gpio output type for several pins on dedicated port.
 503:Drivers/STM32F1xx_HAL_Driver/Inc/stm32f1xx_ll_gpio.h ****   * @note   Output type as to be set when gpio pin is in output or
 504:Drivers/STM32F1xx_HAL_Driver/Inc/stm32f1xx_ll_gpio.h ****   *         alternate modes. Possible type are Push-pull or Open-drain.
 505:Drivers/STM32F1xx_HAL_Driver/Inc/stm32f1xx_ll_gpio.h ****   * @note   Warning: only one pin can be passed as parameter.
 506:Drivers/STM32F1xx_HAL_Driver/Inc/stm32f1xx_ll_gpio.h ****   * @rmtoll CRL       MODEy       LL_GPIO_GetPinOutputType
 507:Drivers/STM32F1xx_HAL_Driver/Inc/stm32f1xx_ll_gpio.h ****   * @rmtoll CRH       MODEy       LL_GPIO_GetPinOutputType
 508:Drivers/STM32F1xx_HAL_Driver/Inc/stm32f1xx_ll_gpio.h ****   * @param  GPIOx GPIO Port
 509:Drivers/STM32F1xx_HAL_Driver/Inc/stm32f1xx_ll_gpio.h ****   * @param  Pin This parameter can be one of the following values:
 510:Drivers/STM32F1xx_HAL_Driver/Inc/stm32f1xx_ll_gpio.h ****   *         @arg @ref LL_GPIO_PIN_0
 511:Drivers/STM32F1xx_HAL_Driver/Inc/stm32f1xx_ll_gpio.h ****   *         @arg @ref LL_GPIO_PIN_1
 512:Drivers/STM32F1xx_HAL_Driver/Inc/stm32f1xx_ll_gpio.h ****   *         @arg @ref LL_GPIO_PIN_2
 513:Drivers/STM32F1xx_HAL_Driver/Inc/stm32f1xx_ll_gpio.h ****   *         @arg @ref LL_GPIO_PIN_3
 514:Drivers/STM32F1xx_HAL_Driver/Inc/stm32f1xx_ll_gpio.h ****   *         @arg @ref LL_GPIO_PIN_4
 515:Drivers/STM32F1xx_HAL_Driver/Inc/stm32f1xx_ll_gpio.h ****   *         @arg @ref LL_GPIO_PIN_5
 516:Drivers/STM32F1xx_HAL_Driver/Inc/stm32f1xx_ll_gpio.h ****   *         @arg @ref LL_GPIO_PIN_6
 517:Drivers/STM32F1xx_HAL_Driver/Inc/stm32f1xx_ll_gpio.h ****   *         @arg @ref LL_GPIO_PIN_7
 518:Drivers/STM32F1xx_HAL_Driver/Inc/stm32f1xx_ll_gpio.h ****   *         @arg @ref LL_GPIO_PIN_8
 519:Drivers/STM32F1xx_HAL_Driver/Inc/stm32f1xx_ll_gpio.h ****   *         @arg @ref LL_GPIO_PIN_9
 520:Drivers/STM32F1xx_HAL_Driver/Inc/stm32f1xx_ll_gpio.h ****   *         @arg @ref LL_GPIO_PIN_10
 521:Drivers/STM32F1xx_HAL_Driver/Inc/stm32f1xx_ll_gpio.h ****   *         @arg @ref LL_GPIO_PIN_11
 522:Drivers/STM32F1xx_HAL_Driver/Inc/stm32f1xx_ll_gpio.h ****   *         @arg @ref LL_GPIO_PIN_12
 523:Drivers/STM32F1xx_HAL_Driver/Inc/stm32f1xx_ll_gpio.h ****   *         @arg @ref LL_GPIO_PIN_13
 524:Drivers/STM32F1xx_HAL_Driver/Inc/stm32f1xx_ll_gpio.h ****   *         @arg @ref LL_GPIO_PIN_14
 525:Drivers/STM32F1xx_HAL_Driver/Inc/stm32f1xx_ll_gpio.h ****   *         @arg @ref LL_GPIO_PIN_15
 526:Drivers/STM32F1xx_HAL_Driver/Inc/stm32f1xx_ll_gpio.h ****   *         @arg @ref LL_GPIO_PIN_ALL
 527:Drivers/STM32F1xx_HAL_Driver/Inc/stm32f1xx_ll_gpio.h ****   * @retval Returned value can be one of the following values:
 528:Drivers/STM32F1xx_HAL_Driver/Inc/stm32f1xx_ll_gpio.h ****   *         @arg @ref LL_GPIO_OUTPUT_PUSHPULL
 529:Drivers/STM32F1xx_HAL_Driver/Inc/stm32f1xx_ll_gpio.h ****   *         @arg @ref LL_GPIO_OUTPUT_OPENDRAIN
 530:Drivers/STM32F1xx_HAL_Driver/Inc/stm32f1xx_ll_gpio.h ****   */
 531:Drivers/STM32F1xx_HAL_Driver/Inc/stm32f1xx_ll_gpio.h **** __STATIC_INLINE uint32_t LL_GPIO_GetPinOutputType(GPIO_TypeDef *GPIOx, uint32_t Pin)
 532:Drivers/STM32F1xx_HAL_Driver/Inc/stm32f1xx_ll_gpio.h **** {
 533:Drivers/STM32F1xx_HAL_Driver/Inc/stm32f1xx_ll_gpio.h ****   register uint32_t *pReg = (uint32_t *)((uint32_t)((uint32_t)(&GPIOx->CRL) + (Pin >> 24)));
 534:Drivers/STM32F1xx_HAL_Driver/Inc/stm32f1xx_ll_gpio.h ****   return (READ_BIT(*pReg, (GPIO_CRL_CNF0_0 << (POSITION_VAL(Pin) * 4U))) >> (POSITION_VAL(Pin) * 4U
 535:Drivers/STM32F1xx_HAL_Driver/Inc/stm32f1xx_ll_gpio.h **** 
 536:Drivers/STM32F1xx_HAL_Driver/Inc/stm32f1xx_ll_gpio.h **** }
 537:Drivers/STM32F1xx_HAL_Driver/Inc/stm32f1xx_ll_gpio.h **** 
 538:Drivers/STM32F1xx_HAL_Driver/Inc/stm32f1xx_ll_gpio.h **** /**
 539:Drivers/STM32F1xx_HAL_Driver/Inc/stm32f1xx_ll_gpio.h ****   * @brief  Configure gpio pull-up or pull-down for a dedicated pin on a dedicated port.
 540:Drivers/STM32F1xx_HAL_Driver/Inc/stm32f1xx_ll_gpio.h ****   * @note   Warning: only one pin can be passed as parameter.
 541:Drivers/STM32F1xx_HAL_Driver/Inc/stm32f1xx_ll_gpio.h ****   * @rmtoll ODR        ODR         LL_GPIO_SetPinPull
 542:Drivers/STM32F1xx_HAL_Driver/Inc/stm32f1xx_ll_gpio.h ****   * @param  GPIOx GPIO Port
 543:Drivers/STM32F1xx_HAL_Driver/Inc/stm32f1xx_ll_gpio.h ****   * @param  Pin This parameter can be one of the following values:
 544:Drivers/STM32F1xx_HAL_Driver/Inc/stm32f1xx_ll_gpio.h ****   *         @arg @ref LL_GPIO_PIN_0
 545:Drivers/STM32F1xx_HAL_Driver/Inc/stm32f1xx_ll_gpio.h ****   *         @arg @ref LL_GPIO_PIN_1
 546:Drivers/STM32F1xx_HAL_Driver/Inc/stm32f1xx_ll_gpio.h ****   *         @arg @ref LL_GPIO_PIN_2
 547:Drivers/STM32F1xx_HAL_Driver/Inc/stm32f1xx_ll_gpio.h ****   *         @arg @ref LL_GPIO_PIN_3
 548:Drivers/STM32F1xx_HAL_Driver/Inc/stm32f1xx_ll_gpio.h ****   *         @arg @ref LL_GPIO_PIN_4
ARM GAS  C:\Users\VIDCOM~1\AppData\Local\Temp\ccpY4rta.s 			page 25


 549:Drivers/STM32F1xx_HAL_Driver/Inc/stm32f1xx_ll_gpio.h ****   *         @arg @ref LL_GPIO_PIN_5
 550:Drivers/STM32F1xx_HAL_Driver/Inc/stm32f1xx_ll_gpio.h ****   *         @arg @ref LL_GPIO_PIN_6
 551:Drivers/STM32F1xx_HAL_Driver/Inc/stm32f1xx_ll_gpio.h ****   *         @arg @ref LL_GPIO_PIN_7
 552:Drivers/STM32F1xx_HAL_Driver/Inc/stm32f1xx_ll_gpio.h ****   *         @arg @ref LL_GPIO_PIN_8
 553:Drivers/STM32F1xx_HAL_Driver/Inc/stm32f1xx_ll_gpio.h ****   *         @arg @ref LL_GPIO_PIN_9
 554:Drivers/STM32F1xx_HAL_Driver/Inc/stm32f1xx_ll_gpio.h ****   *         @arg @ref LL_GPIO_PIN_10
 555:Drivers/STM32F1xx_HAL_Driver/Inc/stm32f1xx_ll_gpio.h ****   *         @arg @ref LL_GPIO_PIN_11
 556:Drivers/STM32F1xx_HAL_Driver/Inc/stm32f1xx_ll_gpio.h ****   *         @arg @ref LL_GPIO_PIN_12
 557:Drivers/STM32F1xx_HAL_Driver/Inc/stm32f1xx_ll_gpio.h ****   *         @arg @ref LL_GPIO_PIN_13
 558:Drivers/STM32F1xx_HAL_Driver/Inc/stm32f1xx_ll_gpio.h ****   *         @arg @ref LL_GPIO_PIN_14
 559:Drivers/STM32F1xx_HAL_Driver/Inc/stm32f1xx_ll_gpio.h ****   *         @arg @ref LL_GPIO_PIN_15
 560:Drivers/STM32F1xx_HAL_Driver/Inc/stm32f1xx_ll_gpio.h ****   * @param  Pull This parameter can be one of the following values:
 561:Drivers/STM32F1xx_HAL_Driver/Inc/stm32f1xx_ll_gpio.h ****   *         @arg @ref LL_GPIO_PULL_DOWN
 562:Drivers/STM32F1xx_HAL_Driver/Inc/stm32f1xx_ll_gpio.h ****   *         @arg @ref LL_GPIO_PULL_UP
 563:Drivers/STM32F1xx_HAL_Driver/Inc/stm32f1xx_ll_gpio.h ****   * @retval None
 564:Drivers/STM32F1xx_HAL_Driver/Inc/stm32f1xx_ll_gpio.h ****   */
 565:Drivers/STM32F1xx_HAL_Driver/Inc/stm32f1xx_ll_gpio.h **** __STATIC_INLINE void LL_GPIO_SetPinPull(GPIO_TypeDef *GPIOx, uint32_t Pin, uint32_t Pull)
 566:Drivers/STM32F1xx_HAL_Driver/Inc/stm32f1xx_ll_gpio.h **** {
 567:Drivers/STM32F1xx_HAL_Driver/Inc/stm32f1xx_ll_gpio.h ****   MODIFY_REG(GPIOx->ODR, (Pin >> GPIO_PIN_MASK_POS), Pull << (POSITION_VAL(Pin >> GPIO_PIN_MASK_POS
 568:Drivers/STM32F1xx_HAL_Driver/Inc/stm32f1xx_ll_gpio.h **** }
 569:Drivers/STM32F1xx_HAL_Driver/Inc/stm32f1xx_ll_gpio.h **** 
 570:Drivers/STM32F1xx_HAL_Driver/Inc/stm32f1xx_ll_gpio.h **** /**
 571:Drivers/STM32F1xx_HAL_Driver/Inc/stm32f1xx_ll_gpio.h ****   * @brief  Return gpio pull-up or pull-down for a dedicated pin on a dedicated port
 572:Drivers/STM32F1xx_HAL_Driver/Inc/stm32f1xx_ll_gpio.h ****   * @note   Warning: only one pin can be passed as parameter.
 573:Drivers/STM32F1xx_HAL_Driver/Inc/stm32f1xx_ll_gpio.h ****   * @rmtoll ODR        ODR         LL_GPIO_GetPinPull
 574:Drivers/STM32F1xx_HAL_Driver/Inc/stm32f1xx_ll_gpio.h ****   * @param  GPIOx GPIO Port
 575:Drivers/STM32F1xx_HAL_Driver/Inc/stm32f1xx_ll_gpio.h ****   * @param  Pin This parameter can be one of the following values:
 576:Drivers/STM32F1xx_HAL_Driver/Inc/stm32f1xx_ll_gpio.h ****   *         @arg @ref LL_GPIO_PIN_0
 577:Drivers/STM32F1xx_HAL_Driver/Inc/stm32f1xx_ll_gpio.h ****   *         @arg @ref LL_GPIO_PIN_1
 578:Drivers/STM32F1xx_HAL_Driver/Inc/stm32f1xx_ll_gpio.h ****   *         @arg @ref LL_GPIO_PIN_2
 579:Drivers/STM32F1xx_HAL_Driver/Inc/stm32f1xx_ll_gpio.h ****   *         @arg @ref LL_GPIO_PIN_3
 580:Drivers/STM32F1xx_HAL_Driver/Inc/stm32f1xx_ll_gpio.h ****   *         @arg @ref LL_GPIO_PIN_4
 581:Drivers/STM32F1xx_HAL_Driver/Inc/stm32f1xx_ll_gpio.h ****   *         @arg @ref LL_GPIO_PIN_5
 582:Drivers/STM32F1xx_HAL_Driver/Inc/stm32f1xx_ll_gpio.h ****   *         @arg @ref LL_GPIO_PIN_6
 583:Drivers/STM32F1xx_HAL_Driver/Inc/stm32f1xx_ll_gpio.h ****   *         @arg @ref LL_GPIO_PIN_7
 584:Drivers/STM32F1xx_HAL_Driver/Inc/stm32f1xx_ll_gpio.h ****   *         @arg @ref LL_GPIO_PIN_8
 585:Drivers/STM32F1xx_HAL_Driver/Inc/stm32f1xx_ll_gpio.h ****   *         @arg @ref LL_GPIO_PIN_9
 586:Drivers/STM32F1xx_HAL_Driver/Inc/stm32f1xx_ll_gpio.h ****   *         @arg @ref LL_GPIO_PIN_10
 587:Drivers/STM32F1xx_HAL_Driver/Inc/stm32f1xx_ll_gpio.h ****   *         @arg @ref LL_GPIO_PIN_11
 588:Drivers/STM32F1xx_HAL_Driver/Inc/stm32f1xx_ll_gpio.h ****   *         @arg @ref LL_GPIO_PIN_12
 589:Drivers/STM32F1xx_HAL_Driver/Inc/stm32f1xx_ll_gpio.h ****   *         @arg @ref LL_GPIO_PIN_13
 590:Drivers/STM32F1xx_HAL_Driver/Inc/stm32f1xx_ll_gpio.h ****   *         @arg @ref LL_GPIO_PIN_14
 591:Drivers/STM32F1xx_HAL_Driver/Inc/stm32f1xx_ll_gpio.h ****   *         @arg @ref LL_GPIO_PIN_15
 592:Drivers/STM32F1xx_HAL_Driver/Inc/stm32f1xx_ll_gpio.h ****   * @retval Returned value can be one of the following values:
 593:Drivers/STM32F1xx_HAL_Driver/Inc/stm32f1xx_ll_gpio.h ****   *         @arg @ref LL_GPIO_PULL_DOWN
 594:Drivers/STM32F1xx_HAL_Driver/Inc/stm32f1xx_ll_gpio.h ****   *         @arg @ref LL_GPIO_PULL_UP
 595:Drivers/STM32F1xx_HAL_Driver/Inc/stm32f1xx_ll_gpio.h ****   */
 596:Drivers/STM32F1xx_HAL_Driver/Inc/stm32f1xx_ll_gpio.h **** __STATIC_INLINE uint32_t LL_GPIO_GetPinPull(GPIO_TypeDef *GPIOx, uint32_t Pin)
 597:Drivers/STM32F1xx_HAL_Driver/Inc/stm32f1xx_ll_gpio.h **** {
 598:Drivers/STM32F1xx_HAL_Driver/Inc/stm32f1xx_ll_gpio.h ****   return (READ_BIT(GPIOx->ODR, (GPIO_ODR_ODR0 << (POSITION_VAL(Pin >> GPIO_PIN_MASK_POS)))) >> (POS
 599:Drivers/STM32F1xx_HAL_Driver/Inc/stm32f1xx_ll_gpio.h **** }
 600:Drivers/STM32F1xx_HAL_Driver/Inc/stm32f1xx_ll_gpio.h **** 
 601:Drivers/STM32F1xx_HAL_Driver/Inc/stm32f1xx_ll_gpio.h **** /**
 602:Drivers/STM32F1xx_HAL_Driver/Inc/stm32f1xx_ll_gpio.h ****   * @brief  Lock configuration of several pins for a dedicated port.
 603:Drivers/STM32F1xx_HAL_Driver/Inc/stm32f1xx_ll_gpio.h ****   * @note   When the lock sequence has been applied on a port bit, the
 604:Drivers/STM32F1xx_HAL_Driver/Inc/stm32f1xx_ll_gpio.h ****   *         value of this port bit can no longer be modified until the
 605:Drivers/STM32F1xx_HAL_Driver/Inc/stm32f1xx_ll_gpio.h ****   *         next reset.
ARM GAS  C:\Users\VIDCOM~1\AppData\Local\Temp\ccpY4rta.s 			page 26


 606:Drivers/STM32F1xx_HAL_Driver/Inc/stm32f1xx_ll_gpio.h ****   * @note   Each lock bit freezes a specific configuration register
 607:Drivers/STM32F1xx_HAL_Driver/Inc/stm32f1xx_ll_gpio.h ****   *         (control and alternate function registers).
 608:Drivers/STM32F1xx_HAL_Driver/Inc/stm32f1xx_ll_gpio.h ****   * @rmtoll LCKR         LCKK          LL_GPIO_LockPin
 609:Drivers/STM32F1xx_HAL_Driver/Inc/stm32f1xx_ll_gpio.h ****   * @param  GPIOx GPIO Port
 610:Drivers/STM32F1xx_HAL_Driver/Inc/stm32f1xx_ll_gpio.h ****   * @param  PinMask This parameter can be a combination of the following values:
 611:Drivers/STM32F1xx_HAL_Driver/Inc/stm32f1xx_ll_gpio.h ****   *         @arg @ref LL_GPIO_PIN_0
 612:Drivers/STM32F1xx_HAL_Driver/Inc/stm32f1xx_ll_gpio.h ****   *         @arg @ref LL_GPIO_PIN_1
 613:Drivers/STM32F1xx_HAL_Driver/Inc/stm32f1xx_ll_gpio.h ****   *         @arg @ref LL_GPIO_PIN_2
 614:Drivers/STM32F1xx_HAL_Driver/Inc/stm32f1xx_ll_gpio.h ****   *         @arg @ref LL_GPIO_PIN_3
 615:Drivers/STM32F1xx_HAL_Driver/Inc/stm32f1xx_ll_gpio.h ****   *         @arg @ref LL_GPIO_PIN_4
 616:Drivers/STM32F1xx_HAL_Driver/Inc/stm32f1xx_ll_gpio.h ****   *         @arg @ref LL_GPIO_PIN_5
 617:Drivers/STM32F1xx_HAL_Driver/Inc/stm32f1xx_ll_gpio.h ****   *         @arg @ref LL_GPIO_PIN_6
 618:Drivers/STM32F1xx_HAL_Driver/Inc/stm32f1xx_ll_gpio.h ****   *         @arg @ref LL_GPIO_PIN_7
 619:Drivers/STM32F1xx_HAL_Driver/Inc/stm32f1xx_ll_gpio.h ****   *         @arg @ref LL_GPIO_PIN_8
 620:Drivers/STM32F1xx_HAL_Driver/Inc/stm32f1xx_ll_gpio.h ****   *         @arg @ref LL_GPIO_PIN_9
 621:Drivers/STM32F1xx_HAL_Driver/Inc/stm32f1xx_ll_gpio.h ****   *         @arg @ref LL_GPIO_PIN_10
 622:Drivers/STM32F1xx_HAL_Driver/Inc/stm32f1xx_ll_gpio.h ****   *         @arg @ref LL_GPIO_PIN_11
 623:Drivers/STM32F1xx_HAL_Driver/Inc/stm32f1xx_ll_gpio.h ****   *         @arg @ref LL_GPIO_PIN_12
 624:Drivers/STM32F1xx_HAL_Driver/Inc/stm32f1xx_ll_gpio.h ****   *         @arg @ref LL_GPIO_PIN_13
 625:Drivers/STM32F1xx_HAL_Driver/Inc/stm32f1xx_ll_gpio.h ****   *         @arg @ref LL_GPIO_PIN_14
 626:Drivers/STM32F1xx_HAL_Driver/Inc/stm32f1xx_ll_gpio.h ****   *         @arg @ref LL_GPIO_PIN_15
 627:Drivers/STM32F1xx_HAL_Driver/Inc/stm32f1xx_ll_gpio.h ****   *         @arg @ref LL_GPIO_PIN_ALL
 628:Drivers/STM32F1xx_HAL_Driver/Inc/stm32f1xx_ll_gpio.h ****   * @retval None
 629:Drivers/STM32F1xx_HAL_Driver/Inc/stm32f1xx_ll_gpio.h ****   */
 630:Drivers/STM32F1xx_HAL_Driver/Inc/stm32f1xx_ll_gpio.h **** __STATIC_INLINE void LL_GPIO_LockPin(GPIO_TypeDef *GPIOx, uint32_t PinMask)
 631:Drivers/STM32F1xx_HAL_Driver/Inc/stm32f1xx_ll_gpio.h **** {
 632:Drivers/STM32F1xx_HAL_Driver/Inc/stm32f1xx_ll_gpio.h ****   __IO uint32_t temp;
 633:Drivers/STM32F1xx_HAL_Driver/Inc/stm32f1xx_ll_gpio.h ****   WRITE_REG(GPIOx->LCKR, GPIO_LCKR_LCKK | ((PinMask >> GPIO_PIN_MASK_POS) & 0x0000FFFFU));
 634:Drivers/STM32F1xx_HAL_Driver/Inc/stm32f1xx_ll_gpio.h ****   WRITE_REG(GPIOx->LCKR, ((PinMask >> GPIO_PIN_MASK_POS) & 0x0000FFFFU));
 635:Drivers/STM32F1xx_HAL_Driver/Inc/stm32f1xx_ll_gpio.h ****   WRITE_REG(GPIOx->LCKR, GPIO_LCKR_LCKK | ((PinMask >> GPIO_PIN_MASK_POS) & 0x0000FFFFU));
 636:Drivers/STM32F1xx_HAL_Driver/Inc/stm32f1xx_ll_gpio.h ****   temp = READ_REG(GPIOx->LCKR);
 637:Drivers/STM32F1xx_HAL_Driver/Inc/stm32f1xx_ll_gpio.h ****   (void) temp;
 638:Drivers/STM32F1xx_HAL_Driver/Inc/stm32f1xx_ll_gpio.h **** }
 639:Drivers/STM32F1xx_HAL_Driver/Inc/stm32f1xx_ll_gpio.h **** 
 640:Drivers/STM32F1xx_HAL_Driver/Inc/stm32f1xx_ll_gpio.h **** /**
 641:Drivers/STM32F1xx_HAL_Driver/Inc/stm32f1xx_ll_gpio.h ****   * @brief  Return 1 if all pins passed as parameter, of a dedicated port, are locked. else Return 
 642:Drivers/STM32F1xx_HAL_Driver/Inc/stm32f1xx_ll_gpio.h ****   * @rmtoll LCKR         LCKy          LL_GPIO_IsPinLocked
 643:Drivers/STM32F1xx_HAL_Driver/Inc/stm32f1xx_ll_gpio.h ****   * @param  GPIOx GPIO Port
 644:Drivers/STM32F1xx_HAL_Driver/Inc/stm32f1xx_ll_gpio.h ****   * @param  PinMask This parameter can be a combination of the following values:
 645:Drivers/STM32F1xx_HAL_Driver/Inc/stm32f1xx_ll_gpio.h ****   *         @arg @ref LL_GPIO_PIN_0
 646:Drivers/STM32F1xx_HAL_Driver/Inc/stm32f1xx_ll_gpio.h ****   *         @arg @ref LL_GPIO_PIN_1
 647:Drivers/STM32F1xx_HAL_Driver/Inc/stm32f1xx_ll_gpio.h ****   *         @arg @ref LL_GPIO_PIN_2
 648:Drivers/STM32F1xx_HAL_Driver/Inc/stm32f1xx_ll_gpio.h ****   *         @arg @ref LL_GPIO_PIN_3
 649:Drivers/STM32F1xx_HAL_Driver/Inc/stm32f1xx_ll_gpio.h ****   *         @arg @ref LL_GPIO_PIN_4
 650:Drivers/STM32F1xx_HAL_Driver/Inc/stm32f1xx_ll_gpio.h ****   *         @arg @ref LL_GPIO_PIN_5
 651:Drivers/STM32F1xx_HAL_Driver/Inc/stm32f1xx_ll_gpio.h ****   *         @arg @ref LL_GPIO_PIN_6
 652:Drivers/STM32F1xx_HAL_Driver/Inc/stm32f1xx_ll_gpio.h ****   *         @arg @ref LL_GPIO_PIN_7
 653:Drivers/STM32F1xx_HAL_Driver/Inc/stm32f1xx_ll_gpio.h ****   *         @arg @ref LL_GPIO_PIN_8
 654:Drivers/STM32F1xx_HAL_Driver/Inc/stm32f1xx_ll_gpio.h ****   *         @arg @ref LL_GPIO_PIN_9
 655:Drivers/STM32F1xx_HAL_Driver/Inc/stm32f1xx_ll_gpio.h ****   *         @arg @ref LL_GPIO_PIN_10
 656:Drivers/STM32F1xx_HAL_Driver/Inc/stm32f1xx_ll_gpio.h ****   *         @arg @ref LL_GPIO_PIN_11
 657:Drivers/STM32F1xx_HAL_Driver/Inc/stm32f1xx_ll_gpio.h ****   *         @arg @ref LL_GPIO_PIN_12
 658:Drivers/STM32F1xx_HAL_Driver/Inc/stm32f1xx_ll_gpio.h ****   *         @arg @ref LL_GPIO_PIN_13
 659:Drivers/STM32F1xx_HAL_Driver/Inc/stm32f1xx_ll_gpio.h ****   *         @arg @ref LL_GPIO_PIN_14
 660:Drivers/STM32F1xx_HAL_Driver/Inc/stm32f1xx_ll_gpio.h ****   *         @arg @ref LL_GPIO_PIN_15
 661:Drivers/STM32F1xx_HAL_Driver/Inc/stm32f1xx_ll_gpio.h ****   *         @arg @ref LL_GPIO_PIN_ALL
 662:Drivers/STM32F1xx_HAL_Driver/Inc/stm32f1xx_ll_gpio.h ****   * @retval State of bit (1 or 0).
ARM GAS  C:\Users\VIDCOM~1\AppData\Local\Temp\ccpY4rta.s 			page 27


 663:Drivers/STM32F1xx_HAL_Driver/Inc/stm32f1xx_ll_gpio.h ****   */
 664:Drivers/STM32F1xx_HAL_Driver/Inc/stm32f1xx_ll_gpio.h **** __STATIC_INLINE uint32_t LL_GPIO_IsPinLocked(GPIO_TypeDef *GPIOx, uint32_t PinMask)
 665:Drivers/STM32F1xx_HAL_Driver/Inc/stm32f1xx_ll_gpio.h **** {
 666:Drivers/STM32F1xx_HAL_Driver/Inc/stm32f1xx_ll_gpio.h ****   return (READ_BIT(GPIOx->LCKR, ((PinMask >> GPIO_PIN_MASK_POS) & 0x0000FFFFU)) == ((PinMask >> GPI
 667:Drivers/STM32F1xx_HAL_Driver/Inc/stm32f1xx_ll_gpio.h **** }
 668:Drivers/STM32F1xx_HAL_Driver/Inc/stm32f1xx_ll_gpio.h **** 
 669:Drivers/STM32F1xx_HAL_Driver/Inc/stm32f1xx_ll_gpio.h **** /**
 670:Drivers/STM32F1xx_HAL_Driver/Inc/stm32f1xx_ll_gpio.h ****   * @brief  Return 1 if one of the pin of a dedicated port is locked. else return 0.
 671:Drivers/STM32F1xx_HAL_Driver/Inc/stm32f1xx_ll_gpio.h ****   * @rmtoll LCKR         LCKK          LL_GPIO_IsAnyPinLocked
 672:Drivers/STM32F1xx_HAL_Driver/Inc/stm32f1xx_ll_gpio.h ****   * @param  GPIOx GPIO Port
 673:Drivers/STM32F1xx_HAL_Driver/Inc/stm32f1xx_ll_gpio.h ****   * @retval State of bit (1 or 0).
 674:Drivers/STM32F1xx_HAL_Driver/Inc/stm32f1xx_ll_gpio.h ****   */
 675:Drivers/STM32F1xx_HAL_Driver/Inc/stm32f1xx_ll_gpio.h **** __STATIC_INLINE uint32_t LL_GPIO_IsAnyPinLocked(GPIO_TypeDef *GPIOx)
 676:Drivers/STM32F1xx_HAL_Driver/Inc/stm32f1xx_ll_gpio.h **** {
 677:Drivers/STM32F1xx_HAL_Driver/Inc/stm32f1xx_ll_gpio.h ****   return (READ_BIT(GPIOx->LCKR, GPIO_LCKR_LCKK) == (GPIO_LCKR_LCKK));
 678:Drivers/STM32F1xx_HAL_Driver/Inc/stm32f1xx_ll_gpio.h **** }
 679:Drivers/STM32F1xx_HAL_Driver/Inc/stm32f1xx_ll_gpio.h **** 
 680:Drivers/STM32F1xx_HAL_Driver/Inc/stm32f1xx_ll_gpio.h **** /**
 681:Drivers/STM32F1xx_HAL_Driver/Inc/stm32f1xx_ll_gpio.h ****   * @}
 682:Drivers/STM32F1xx_HAL_Driver/Inc/stm32f1xx_ll_gpio.h ****   */
 683:Drivers/STM32F1xx_HAL_Driver/Inc/stm32f1xx_ll_gpio.h **** 
 684:Drivers/STM32F1xx_HAL_Driver/Inc/stm32f1xx_ll_gpio.h **** /** @defgroup GPIO_LL_EF_Data_Access Data Access
 685:Drivers/STM32F1xx_HAL_Driver/Inc/stm32f1xx_ll_gpio.h ****   * @{
 686:Drivers/STM32F1xx_HAL_Driver/Inc/stm32f1xx_ll_gpio.h ****   */
 687:Drivers/STM32F1xx_HAL_Driver/Inc/stm32f1xx_ll_gpio.h **** 
 688:Drivers/STM32F1xx_HAL_Driver/Inc/stm32f1xx_ll_gpio.h **** /**
 689:Drivers/STM32F1xx_HAL_Driver/Inc/stm32f1xx_ll_gpio.h ****   * @brief  Return full input data register value for a dedicated port.
 690:Drivers/STM32F1xx_HAL_Driver/Inc/stm32f1xx_ll_gpio.h ****   * @rmtoll IDR          IDy           LL_GPIO_ReadInputPort
 691:Drivers/STM32F1xx_HAL_Driver/Inc/stm32f1xx_ll_gpio.h ****   * @param  GPIOx GPIO Port
 692:Drivers/STM32F1xx_HAL_Driver/Inc/stm32f1xx_ll_gpio.h ****   * @retval Input data register value of port
 693:Drivers/STM32F1xx_HAL_Driver/Inc/stm32f1xx_ll_gpio.h ****   */
 694:Drivers/STM32F1xx_HAL_Driver/Inc/stm32f1xx_ll_gpio.h **** __STATIC_INLINE uint32_t LL_GPIO_ReadInputPort(GPIO_TypeDef *GPIOx)
 695:Drivers/STM32F1xx_HAL_Driver/Inc/stm32f1xx_ll_gpio.h **** {
 696:Drivers/STM32F1xx_HAL_Driver/Inc/stm32f1xx_ll_gpio.h ****   return (READ_REG(GPIOx->IDR));
 697:Drivers/STM32F1xx_HAL_Driver/Inc/stm32f1xx_ll_gpio.h **** }
 698:Drivers/STM32F1xx_HAL_Driver/Inc/stm32f1xx_ll_gpio.h **** 
 699:Drivers/STM32F1xx_HAL_Driver/Inc/stm32f1xx_ll_gpio.h **** /**
 700:Drivers/STM32F1xx_HAL_Driver/Inc/stm32f1xx_ll_gpio.h ****   * @brief  Return if input data level for several pins of dedicated port is high or low.
 701:Drivers/STM32F1xx_HAL_Driver/Inc/stm32f1xx_ll_gpio.h ****   * @rmtoll IDR          IDy           LL_GPIO_IsInputPinSet
 702:Drivers/STM32F1xx_HAL_Driver/Inc/stm32f1xx_ll_gpio.h ****   * @param  GPIOx GPIO Port
 703:Drivers/STM32F1xx_HAL_Driver/Inc/stm32f1xx_ll_gpio.h ****   * @param  PinMask This parameter can be a combination of the following values:
 704:Drivers/STM32F1xx_HAL_Driver/Inc/stm32f1xx_ll_gpio.h ****   *         @arg @ref LL_GPIO_PIN_0
 705:Drivers/STM32F1xx_HAL_Driver/Inc/stm32f1xx_ll_gpio.h ****   *         @arg @ref LL_GPIO_PIN_1
 706:Drivers/STM32F1xx_HAL_Driver/Inc/stm32f1xx_ll_gpio.h ****   *         @arg @ref LL_GPIO_PIN_2
 707:Drivers/STM32F1xx_HAL_Driver/Inc/stm32f1xx_ll_gpio.h ****   *         @arg @ref LL_GPIO_PIN_3
 708:Drivers/STM32F1xx_HAL_Driver/Inc/stm32f1xx_ll_gpio.h ****   *         @arg @ref LL_GPIO_PIN_4
 709:Drivers/STM32F1xx_HAL_Driver/Inc/stm32f1xx_ll_gpio.h ****   *         @arg @ref LL_GPIO_PIN_5
 710:Drivers/STM32F1xx_HAL_Driver/Inc/stm32f1xx_ll_gpio.h ****   *         @arg @ref LL_GPIO_PIN_6
 711:Drivers/STM32F1xx_HAL_Driver/Inc/stm32f1xx_ll_gpio.h ****   *         @arg @ref LL_GPIO_PIN_7
 712:Drivers/STM32F1xx_HAL_Driver/Inc/stm32f1xx_ll_gpio.h ****   *         @arg @ref LL_GPIO_PIN_8
 713:Drivers/STM32F1xx_HAL_Driver/Inc/stm32f1xx_ll_gpio.h ****   *         @arg @ref LL_GPIO_PIN_9
 714:Drivers/STM32F1xx_HAL_Driver/Inc/stm32f1xx_ll_gpio.h ****   *         @arg @ref LL_GPIO_PIN_10
 715:Drivers/STM32F1xx_HAL_Driver/Inc/stm32f1xx_ll_gpio.h ****   *         @arg @ref LL_GPIO_PIN_11
 716:Drivers/STM32F1xx_HAL_Driver/Inc/stm32f1xx_ll_gpio.h ****   *         @arg @ref LL_GPIO_PIN_12
 717:Drivers/STM32F1xx_HAL_Driver/Inc/stm32f1xx_ll_gpio.h ****   *         @arg @ref LL_GPIO_PIN_13
 718:Drivers/STM32F1xx_HAL_Driver/Inc/stm32f1xx_ll_gpio.h ****   *         @arg @ref LL_GPIO_PIN_14
 719:Drivers/STM32F1xx_HAL_Driver/Inc/stm32f1xx_ll_gpio.h ****   *         @arg @ref LL_GPIO_PIN_15
ARM GAS  C:\Users\VIDCOM~1\AppData\Local\Temp\ccpY4rta.s 			page 28


 720:Drivers/STM32F1xx_HAL_Driver/Inc/stm32f1xx_ll_gpio.h ****   *         @arg @ref LL_GPIO_PIN_ALL
 721:Drivers/STM32F1xx_HAL_Driver/Inc/stm32f1xx_ll_gpio.h ****   * @retval State of bit (1 or 0).
 722:Drivers/STM32F1xx_HAL_Driver/Inc/stm32f1xx_ll_gpio.h ****   */
 723:Drivers/STM32F1xx_HAL_Driver/Inc/stm32f1xx_ll_gpio.h **** __STATIC_INLINE uint32_t LL_GPIO_IsInputPinSet(GPIO_TypeDef *GPIOx, uint32_t PinMask)
 724:Drivers/STM32F1xx_HAL_Driver/Inc/stm32f1xx_ll_gpio.h **** {
 725:Drivers/STM32F1xx_HAL_Driver/Inc/stm32f1xx_ll_gpio.h ****   return (READ_BIT(GPIOx->IDR, (PinMask >> GPIO_PIN_MASK_POS) & 0x0000FFFFU) == ((PinMask >> GPIO_P
 726:Drivers/STM32F1xx_HAL_Driver/Inc/stm32f1xx_ll_gpio.h **** }
 727:Drivers/STM32F1xx_HAL_Driver/Inc/stm32f1xx_ll_gpio.h **** 
 728:Drivers/STM32F1xx_HAL_Driver/Inc/stm32f1xx_ll_gpio.h **** /**
 729:Drivers/STM32F1xx_HAL_Driver/Inc/stm32f1xx_ll_gpio.h ****   * @brief  Write output data register for the port.
 730:Drivers/STM32F1xx_HAL_Driver/Inc/stm32f1xx_ll_gpio.h ****   * @rmtoll ODR          ODy           LL_GPIO_WriteOutputPort
 731:Drivers/STM32F1xx_HAL_Driver/Inc/stm32f1xx_ll_gpio.h ****   * @param  GPIOx GPIO Port
 732:Drivers/STM32F1xx_HAL_Driver/Inc/stm32f1xx_ll_gpio.h ****   * @param  PortValue Level value for each pin of the port
 733:Drivers/STM32F1xx_HAL_Driver/Inc/stm32f1xx_ll_gpio.h ****   * @retval None
 734:Drivers/STM32F1xx_HAL_Driver/Inc/stm32f1xx_ll_gpio.h ****   */
 735:Drivers/STM32F1xx_HAL_Driver/Inc/stm32f1xx_ll_gpio.h **** __STATIC_INLINE void LL_GPIO_WriteOutputPort(GPIO_TypeDef *GPIOx, uint32_t PortValue)
 736:Drivers/STM32F1xx_HAL_Driver/Inc/stm32f1xx_ll_gpio.h **** {
 737:Drivers/STM32F1xx_HAL_Driver/Inc/stm32f1xx_ll_gpio.h ****   WRITE_REG(GPIOx->ODR, PortValue);
 738:Drivers/STM32F1xx_HAL_Driver/Inc/stm32f1xx_ll_gpio.h **** }
 739:Drivers/STM32F1xx_HAL_Driver/Inc/stm32f1xx_ll_gpio.h **** 
 740:Drivers/STM32F1xx_HAL_Driver/Inc/stm32f1xx_ll_gpio.h **** /**
 741:Drivers/STM32F1xx_HAL_Driver/Inc/stm32f1xx_ll_gpio.h ****   * @brief  Return full output data register value for a dedicated port.
 742:Drivers/STM32F1xx_HAL_Driver/Inc/stm32f1xx_ll_gpio.h ****   * @rmtoll ODR          ODy           LL_GPIO_ReadOutputPort
 743:Drivers/STM32F1xx_HAL_Driver/Inc/stm32f1xx_ll_gpio.h ****   * @param  GPIOx GPIO Port
 744:Drivers/STM32F1xx_HAL_Driver/Inc/stm32f1xx_ll_gpio.h ****   * @retval Output data register value of port
 745:Drivers/STM32F1xx_HAL_Driver/Inc/stm32f1xx_ll_gpio.h ****   */
 746:Drivers/STM32F1xx_HAL_Driver/Inc/stm32f1xx_ll_gpio.h **** __STATIC_INLINE uint32_t LL_GPIO_ReadOutputPort(GPIO_TypeDef *GPIOx)
 747:Drivers/STM32F1xx_HAL_Driver/Inc/stm32f1xx_ll_gpio.h **** {
 748:Drivers/STM32F1xx_HAL_Driver/Inc/stm32f1xx_ll_gpio.h ****   return (uint32_t)(READ_REG(GPIOx->ODR));
 749:Drivers/STM32F1xx_HAL_Driver/Inc/stm32f1xx_ll_gpio.h **** }
 750:Drivers/STM32F1xx_HAL_Driver/Inc/stm32f1xx_ll_gpio.h **** 
 751:Drivers/STM32F1xx_HAL_Driver/Inc/stm32f1xx_ll_gpio.h **** /**
 752:Drivers/STM32F1xx_HAL_Driver/Inc/stm32f1xx_ll_gpio.h ****   * @brief  Return if input data level for several pins of dedicated port is high or low.
 753:Drivers/STM32F1xx_HAL_Driver/Inc/stm32f1xx_ll_gpio.h ****   * @rmtoll ODR          ODy           LL_GPIO_IsOutputPinSet
 754:Drivers/STM32F1xx_HAL_Driver/Inc/stm32f1xx_ll_gpio.h ****   * @param  GPIOx GPIO Port
 755:Drivers/STM32F1xx_HAL_Driver/Inc/stm32f1xx_ll_gpio.h ****   * @param  PinMask This parameter can be a combination of the following values:
 756:Drivers/STM32F1xx_HAL_Driver/Inc/stm32f1xx_ll_gpio.h ****   *         @arg @ref LL_GPIO_PIN_0
 757:Drivers/STM32F1xx_HAL_Driver/Inc/stm32f1xx_ll_gpio.h ****   *         @arg @ref LL_GPIO_PIN_1
 758:Drivers/STM32F1xx_HAL_Driver/Inc/stm32f1xx_ll_gpio.h ****   *         @arg @ref LL_GPIO_PIN_2
 759:Drivers/STM32F1xx_HAL_Driver/Inc/stm32f1xx_ll_gpio.h ****   *         @arg @ref LL_GPIO_PIN_3
 760:Drivers/STM32F1xx_HAL_Driver/Inc/stm32f1xx_ll_gpio.h ****   *         @arg @ref LL_GPIO_PIN_4
 761:Drivers/STM32F1xx_HAL_Driver/Inc/stm32f1xx_ll_gpio.h ****   *         @arg @ref LL_GPIO_PIN_5
 762:Drivers/STM32F1xx_HAL_Driver/Inc/stm32f1xx_ll_gpio.h ****   *         @arg @ref LL_GPIO_PIN_6
 763:Drivers/STM32F1xx_HAL_Driver/Inc/stm32f1xx_ll_gpio.h ****   *         @arg @ref LL_GPIO_PIN_7
 764:Drivers/STM32F1xx_HAL_Driver/Inc/stm32f1xx_ll_gpio.h ****   *         @arg @ref LL_GPIO_PIN_8
 765:Drivers/STM32F1xx_HAL_Driver/Inc/stm32f1xx_ll_gpio.h ****   *         @arg @ref LL_GPIO_PIN_9
 766:Drivers/STM32F1xx_HAL_Driver/Inc/stm32f1xx_ll_gpio.h ****   *         @arg @ref LL_GPIO_PIN_10
 767:Drivers/STM32F1xx_HAL_Driver/Inc/stm32f1xx_ll_gpio.h ****   *         @arg @ref LL_GPIO_PIN_11
 768:Drivers/STM32F1xx_HAL_Driver/Inc/stm32f1xx_ll_gpio.h ****   *         @arg @ref LL_GPIO_PIN_12
 769:Drivers/STM32F1xx_HAL_Driver/Inc/stm32f1xx_ll_gpio.h ****   *         @arg @ref LL_GPIO_PIN_13
 770:Drivers/STM32F1xx_HAL_Driver/Inc/stm32f1xx_ll_gpio.h ****   *         @arg @ref LL_GPIO_PIN_14
 771:Drivers/STM32F1xx_HAL_Driver/Inc/stm32f1xx_ll_gpio.h ****   *         @arg @ref LL_GPIO_PIN_15
 772:Drivers/STM32F1xx_HAL_Driver/Inc/stm32f1xx_ll_gpio.h ****   *         @arg @ref LL_GPIO_PIN_ALL
 773:Drivers/STM32F1xx_HAL_Driver/Inc/stm32f1xx_ll_gpio.h ****   * @retval State of bit (1 or 0).
 774:Drivers/STM32F1xx_HAL_Driver/Inc/stm32f1xx_ll_gpio.h ****   */
 775:Drivers/STM32F1xx_HAL_Driver/Inc/stm32f1xx_ll_gpio.h **** __STATIC_INLINE uint32_t LL_GPIO_IsOutputPinSet(GPIO_TypeDef *GPIOx, uint32_t PinMask)
 776:Drivers/STM32F1xx_HAL_Driver/Inc/stm32f1xx_ll_gpio.h **** {
ARM GAS  C:\Users\VIDCOM~1\AppData\Local\Temp\ccpY4rta.s 			page 29


 777:Drivers/STM32F1xx_HAL_Driver/Inc/stm32f1xx_ll_gpio.h ****   return (READ_BIT(GPIOx->ODR, (PinMask >> GPIO_PIN_MASK_POS) & 0x0000FFFFU) == ((PinMask >> GPIO_P
 778:Drivers/STM32F1xx_HAL_Driver/Inc/stm32f1xx_ll_gpio.h **** }
 779:Drivers/STM32F1xx_HAL_Driver/Inc/stm32f1xx_ll_gpio.h **** 
 780:Drivers/STM32F1xx_HAL_Driver/Inc/stm32f1xx_ll_gpio.h **** /**
 781:Drivers/STM32F1xx_HAL_Driver/Inc/stm32f1xx_ll_gpio.h ****   * @brief  Set several pins to high level on dedicated gpio port.
 782:Drivers/STM32F1xx_HAL_Driver/Inc/stm32f1xx_ll_gpio.h ****   * @rmtoll BSRR         BSy           LL_GPIO_SetOutputPin
 783:Drivers/STM32F1xx_HAL_Driver/Inc/stm32f1xx_ll_gpio.h ****   * @param  GPIOx GPIO Port
 784:Drivers/STM32F1xx_HAL_Driver/Inc/stm32f1xx_ll_gpio.h ****   * @param  PinMask This parameter can be a combination of the following values:
 785:Drivers/STM32F1xx_HAL_Driver/Inc/stm32f1xx_ll_gpio.h ****   *         @arg @ref LL_GPIO_PIN_0
 786:Drivers/STM32F1xx_HAL_Driver/Inc/stm32f1xx_ll_gpio.h ****   *         @arg @ref LL_GPIO_PIN_1
 787:Drivers/STM32F1xx_HAL_Driver/Inc/stm32f1xx_ll_gpio.h ****   *         @arg @ref LL_GPIO_PIN_2
 788:Drivers/STM32F1xx_HAL_Driver/Inc/stm32f1xx_ll_gpio.h ****   *         @arg @ref LL_GPIO_PIN_3
 789:Drivers/STM32F1xx_HAL_Driver/Inc/stm32f1xx_ll_gpio.h ****   *         @arg @ref LL_GPIO_PIN_4
 790:Drivers/STM32F1xx_HAL_Driver/Inc/stm32f1xx_ll_gpio.h ****   *         @arg @ref LL_GPIO_PIN_5
 791:Drivers/STM32F1xx_HAL_Driver/Inc/stm32f1xx_ll_gpio.h ****   *         @arg @ref LL_GPIO_PIN_6
 792:Drivers/STM32F1xx_HAL_Driver/Inc/stm32f1xx_ll_gpio.h ****   *         @arg @ref LL_GPIO_PIN_7
 793:Drivers/STM32F1xx_HAL_Driver/Inc/stm32f1xx_ll_gpio.h ****   *         @arg @ref LL_GPIO_PIN_8
 794:Drivers/STM32F1xx_HAL_Driver/Inc/stm32f1xx_ll_gpio.h ****   *         @arg @ref LL_GPIO_PIN_9
 795:Drivers/STM32F1xx_HAL_Driver/Inc/stm32f1xx_ll_gpio.h ****   *         @arg @ref LL_GPIO_PIN_10
 796:Drivers/STM32F1xx_HAL_Driver/Inc/stm32f1xx_ll_gpio.h ****   *         @arg @ref LL_GPIO_PIN_11
 797:Drivers/STM32F1xx_HAL_Driver/Inc/stm32f1xx_ll_gpio.h ****   *         @arg @ref LL_GPIO_PIN_12
 798:Drivers/STM32F1xx_HAL_Driver/Inc/stm32f1xx_ll_gpio.h ****   *         @arg @ref LL_GPIO_PIN_13
 799:Drivers/STM32F1xx_HAL_Driver/Inc/stm32f1xx_ll_gpio.h ****   *         @arg @ref LL_GPIO_PIN_14
 800:Drivers/STM32F1xx_HAL_Driver/Inc/stm32f1xx_ll_gpio.h ****   *         @arg @ref LL_GPIO_PIN_15
 801:Drivers/STM32F1xx_HAL_Driver/Inc/stm32f1xx_ll_gpio.h ****   *         @arg @ref LL_GPIO_PIN_ALL
 802:Drivers/STM32F1xx_HAL_Driver/Inc/stm32f1xx_ll_gpio.h ****   * @retval None
 803:Drivers/STM32F1xx_HAL_Driver/Inc/stm32f1xx_ll_gpio.h ****   */
 804:Drivers/STM32F1xx_HAL_Driver/Inc/stm32f1xx_ll_gpio.h **** __STATIC_INLINE void LL_GPIO_SetOutputPin(GPIO_TypeDef *GPIOx, uint32_t PinMask)
 805:Drivers/STM32F1xx_HAL_Driver/Inc/stm32f1xx_ll_gpio.h **** {
 806:Drivers/STM32F1xx_HAL_Driver/Inc/stm32f1xx_ll_gpio.h ****   WRITE_REG(GPIOx->BSRR, (PinMask >> GPIO_PIN_MASK_POS) & 0x0000FFFFU);
 807:Drivers/STM32F1xx_HAL_Driver/Inc/stm32f1xx_ll_gpio.h **** }
 808:Drivers/STM32F1xx_HAL_Driver/Inc/stm32f1xx_ll_gpio.h **** 
 809:Drivers/STM32F1xx_HAL_Driver/Inc/stm32f1xx_ll_gpio.h **** /**
 810:Drivers/STM32F1xx_HAL_Driver/Inc/stm32f1xx_ll_gpio.h ****   * @brief  Set several pins to low level on dedicated gpio port.
 811:Drivers/STM32F1xx_HAL_Driver/Inc/stm32f1xx_ll_gpio.h ****   * @rmtoll BRR          BRy           LL_GPIO_ResetOutputPin
 812:Drivers/STM32F1xx_HAL_Driver/Inc/stm32f1xx_ll_gpio.h ****   * @param  GPIOx GPIO Port
 813:Drivers/STM32F1xx_HAL_Driver/Inc/stm32f1xx_ll_gpio.h ****   * @param  PinMask This parameter can be a combination of the following values:
 814:Drivers/STM32F1xx_HAL_Driver/Inc/stm32f1xx_ll_gpio.h ****   *         @arg @ref LL_GPIO_PIN_0
 815:Drivers/STM32F1xx_HAL_Driver/Inc/stm32f1xx_ll_gpio.h ****   *         @arg @ref LL_GPIO_PIN_1
 816:Drivers/STM32F1xx_HAL_Driver/Inc/stm32f1xx_ll_gpio.h ****   *         @arg @ref LL_GPIO_PIN_2
 817:Drivers/STM32F1xx_HAL_Driver/Inc/stm32f1xx_ll_gpio.h ****   *         @arg @ref LL_GPIO_PIN_3
 818:Drivers/STM32F1xx_HAL_Driver/Inc/stm32f1xx_ll_gpio.h ****   *         @arg @ref LL_GPIO_PIN_4
 819:Drivers/STM32F1xx_HAL_Driver/Inc/stm32f1xx_ll_gpio.h ****   *         @arg @ref LL_GPIO_PIN_5
 820:Drivers/STM32F1xx_HAL_Driver/Inc/stm32f1xx_ll_gpio.h ****   *         @arg @ref LL_GPIO_PIN_6
 821:Drivers/STM32F1xx_HAL_Driver/Inc/stm32f1xx_ll_gpio.h ****   *         @arg @ref LL_GPIO_PIN_7
 822:Drivers/STM32F1xx_HAL_Driver/Inc/stm32f1xx_ll_gpio.h ****   *         @arg @ref LL_GPIO_PIN_8
 823:Drivers/STM32F1xx_HAL_Driver/Inc/stm32f1xx_ll_gpio.h ****   *         @arg @ref LL_GPIO_PIN_9
 824:Drivers/STM32F1xx_HAL_Driver/Inc/stm32f1xx_ll_gpio.h ****   *         @arg @ref LL_GPIO_PIN_10
 825:Drivers/STM32F1xx_HAL_Driver/Inc/stm32f1xx_ll_gpio.h ****   *         @arg @ref LL_GPIO_PIN_11
 826:Drivers/STM32F1xx_HAL_Driver/Inc/stm32f1xx_ll_gpio.h ****   *         @arg @ref LL_GPIO_PIN_12
 827:Drivers/STM32F1xx_HAL_Driver/Inc/stm32f1xx_ll_gpio.h ****   *         @arg @ref LL_GPIO_PIN_13
 828:Drivers/STM32F1xx_HAL_Driver/Inc/stm32f1xx_ll_gpio.h ****   *         @arg @ref LL_GPIO_PIN_14
 829:Drivers/STM32F1xx_HAL_Driver/Inc/stm32f1xx_ll_gpio.h ****   *         @arg @ref LL_GPIO_PIN_15
 830:Drivers/STM32F1xx_HAL_Driver/Inc/stm32f1xx_ll_gpio.h ****   *         @arg @ref LL_GPIO_PIN_ALL
 831:Drivers/STM32F1xx_HAL_Driver/Inc/stm32f1xx_ll_gpio.h ****   * @retval None
 832:Drivers/STM32F1xx_HAL_Driver/Inc/stm32f1xx_ll_gpio.h ****   */
 833:Drivers/STM32F1xx_HAL_Driver/Inc/stm32f1xx_ll_gpio.h **** __STATIC_INLINE void LL_GPIO_ResetOutputPin(GPIO_TypeDef *GPIOx, uint32_t PinMask)
ARM GAS  C:\Users\VIDCOM~1\AppData\Local\Temp\ccpY4rta.s 			page 30


 834:Drivers/STM32F1xx_HAL_Driver/Inc/stm32f1xx_ll_gpio.h **** {
 835:Drivers/STM32F1xx_HAL_Driver/Inc/stm32f1xx_ll_gpio.h ****   WRITE_REG(GPIOx->BRR, (PinMask >> GPIO_PIN_MASK_POS) & 0x0000FFFFU);
 836:Drivers/STM32F1xx_HAL_Driver/Inc/stm32f1xx_ll_gpio.h **** }
 837:Drivers/STM32F1xx_HAL_Driver/Inc/stm32f1xx_ll_gpio.h **** 
 838:Drivers/STM32F1xx_HAL_Driver/Inc/stm32f1xx_ll_gpio.h **** /**
 839:Drivers/STM32F1xx_HAL_Driver/Inc/stm32f1xx_ll_gpio.h ****   * @brief  Toggle data value for several pin of dedicated port.
 840:Drivers/STM32F1xx_HAL_Driver/Inc/stm32f1xx_ll_gpio.h ****   * @rmtoll ODR          ODy           LL_GPIO_TogglePin
 841:Drivers/STM32F1xx_HAL_Driver/Inc/stm32f1xx_ll_gpio.h ****   * @param  GPIOx GPIO Port
 842:Drivers/STM32F1xx_HAL_Driver/Inc/stm32f1xx_ll_gpio.h ****   * @param  PinMask This parameter can be a combination of the following values:
 843:Drivers/STM32F1xx_HAL_Driver/Inc/stm32f1xx_ll_gpio.h ****   *         @arg @ref LL_GPIO_PIN_0
 844:Drivers/STM32F1xx_HAL_Driver/Inc/stm32f1xx_ll_gpio.h ****   *         @arg @ref LL_GPIO_PIN_1
 845:Drivers/STM32F1xx_HAL_Driver/Inc/stm32f1xx_ll_gpio.h ****   *         @arg @ref LL_GPIO_PIN_2
 846:Drivers/STM32F1xx_HAL_Driver/Inc/stm32f1xx_ll_gpio.h ****   *         @arg @ref LL_GPIO_PIN_3
 847:Drivers/STM32F1xx_HAL_Driver/Inc/stm32f1xx_ll_gpio.h ****   *         @arg @ref LL_GPIO_PIN_4
 848:Drivers/STM32F1xx_HAL_Driver/Inc/stm32f1xx_ll_gpio.h ****   *         @arg @ref LL_GPIO_PIN_5
 849:Drivers/STM32F1xx_HAL_Driver/Inc/stm32f1xx_ll_gpio.h ****   *         @arg @ref LL_GPIO_PIN_6
 850:Drivers/STM32F1xx_HAL_Driver/Inc/stm32f1xx_ll_gpio.h ****   *         @arg @ref LL_GPIO_PIN_7
 851:Drivers/STM32F1xx_HAL_Driver/Inc/stm32f1xx_ll_gpio.h ****   *         @arg @ref LL_GPIO_PIN_8
 852:Drivers/STM32F1xx_HAL_Driver/Inc/stm32f1xx_ll_gpio.h ****   *         @arg @ref LL_GPIO_PIN_9
 853:Drivers/STM32F1xx_HAL_Driver/Inc/stm32f1xx_ll_gpio.h ****   *         @arg @ref LL_GPIO_PIN_10
 854:Drivers/STM32F1xx_HAL_Driver/Inc/stm32f1xx_ll_gpio.h ****   *         @arg @ref LL_GPIO_PIN_11
 855:Drivers/STM32F1xx_HAL_Driver/Inc/stm32f1xx_ll_gpio.h ****   *         @arg @ref LL_GPIO_PIN_12
 856:Drivers/STM32F1xx_HAL_Driver/Inc/stm32f1xx_ll_gpio.h ****   *         @arg @ref LL_GPIO_PIN_13
 857:Drivers/STM32F1xx_HAL_Driver/Inc/stm32f1xx_ll_gpio.h ****   *         @arg @ref LL_GPIO_PIN_14
 858:Drivers/STM32F1xx_HAL_Driver/Inc/stm32f1xx_ll_gpio.h ****   *         @arg @ref LL_GPIO_PIN_15
 859:Drivers/STM32F1xx_HAL_Driver/Inc/stm32f1xx_ll_gpio.h ****   *         @arg @ref LL_GPIO_PIN_ALL
 860:Drivers/STM32F1xx_HAL_Driver/Inc/stm32f1xx_ll_gpio.h ****   * @retval None
 861:Drivers/STM32F1xx_HAL_Driver/Inc/stm32f1xx_ll_gpio.h ****   */
 862:Drivers/STM32F1xx_HAL_Driver/Inc/stm32f1xx_ll_gpio.h **** __STATIC_INLINE void LL_GPIO_TogglePin(GPIO_TypeDef *GPIOx, uint32_t PinMask)
 302              		.loc 2 862 22 view .LVU91
 303              	.LBB10:
 863:Drivers/STM32F1xx_HAL_Driver/Inc/stm32f1xx_ll_gpio.h **** {
 864:Drivers/STM32F1xx_HAL_Driver/Inc/stm32f1xx_ll_gpio.h ****   uint32_t odr = READ_REG(GPIOx->ODR);
 304              		.loc 2 864 3 view .LVU92
 305              		.loc 2 864 12 is_stmt 0 view .LVU93
 306 008c 0E49     		ldr	r1, .L20+28
 307 008e CB68     		ldr	r3, [r1, #12]
 308              	.LVL25:
 865:Drivers/STM32F1xx_HAL_Driver/Inc/stm32f1xx_ll_gpio.h ****   uint32_t pinmask = ((PinMask >> GPIO_PIN_MASK_POS) & 0x0000FFFFU);
 309              		.loc 2 865 3 is_stmt 1 view .LVU94
 866:Drivers/STM32F1xx_HAL_Driver/Inc/stm32f1xx_ll_gpio.h ****   WRITE_REG(GPIOx->BSRR, ((odr & pinmask) << 16u) | (~odr & pinmask));
 310              		.loc 2 866 3 view .LVU95
 311 0090 1A04     		lsls	r2, r3, #16
 312 0092 02F00042 		and	r2, r2, #-2147483648
 313 0096 DB43     		mvns	r3, r3
 314              	.LVL26:
 315              		.loc 2 866 3 is_stmt 0 view .LVU96
 316 0098 03F40043 		and	r3, r3, #32768
 317              	.LVL27:
 318              		.loc 2 866 3 view .LVU97
 319 009c 1343     		orrs	r3, r3, r2
 320 009e 0B61     		str	r3, [r1, #16]
 321              	.LVL28:
 322              		.loc 2 866 3 view .LVU98
 323              	.LBE10:
 324              	.LBE9:
 285:Core/Src/freertos.c ****         }
ARM GAS  C:\Users\VIDCOM~1\AppData\Local\Temp\ccpY4rta.s 			page 31


 325              		.loc 1 285 11 is_stmt 1 view .LVU99
 326 00a0 0F22     		movs	r2, #15
 327 00a2 0A49     		ldr	r1, .L20+32
 328 00a4 0348     		ldr	r0, .L20+8
 329 00a6 FFF7FEFF 		bl	HAL_UART_Receive_IT
 330              	.LVL29:
 331 00aa BFE7     		b	.L17
 332              	.L21:
 333              		.align	2
 334              	.L20:
 335 00ac 00000000 		.word	mdb_respons_timeout.2
 336 00b0 00000000 		.word	mdb_wait_rx_flag
 337 00b4 00000000 		.word	huart1
 338 00b8 00000000 		.word	mdb_err_cnt
 339 00bc 00000000 		.word	mdb_req_time.1
 340 00c0 00000000 		.word	modbusBufTxRtu485
 341 00c4 00000000 		.word	crc.0
 342 00c8 00080140 		.word	1073809408
 343 00cc 00000000 		.word	modbusBufRxRtu485
 344              	.LBE11:
 345              		.cfi_endproc
 346              	.LFE580:
 348              		.section	.text.taskNetEntry,"ax",%progbits
 349              		.align	1
 350              		.global	taskNetEntry
 351              		.syntax unified
 352              		.thumb
 353              		.thumb_func
 355              	taskNetEntry:
 356              	.LVL30:
 357              	.LFB581:
 296:Core/Src/freertos.c ****   /* USER CODE BEGIN taskLedEntry */
 358              		.loc 1 296 1 view -0
 359              		.cfi_startproc
 360              		@ args = 0, pretend = 0, frame = 0
 361              		@ frame_needed = 0, uses_anonymous_args = 0
 296:Core/Src/freertos.c ****   /* USER CODE BEGIN taskLedEntry */
 362              		.loc 1 296 1 is_stmt 0 view .LVU101
 363 0000 10B5     		push	{r4, lr}
 364              	.LCFI2:
 365              		.cfi_def_cfa_offset 8
 366              		.cfi_offset 4, -8
 367              		.cfi_offset 14, -4
 299:Core/Src/freertos.c ****     Error_Handler();
 368              		.loc 1 299 3 is_stmt 1 view .LVU102
 299:Core/Src/freertos.c ****     Error_Handler();
 369              		.loc 1 299 6 is_stmt 0 view .LVU103
 370 0002 FFF7FEFF 		bl	Eth_f_Init
 371              	.LVL31:
 299:Core/Src/freertos.c ****     Error_Handler();
 372              		.loc 1 299 5 view .LVU104
 373 0006 0128     		cmp	r0, #1
 374 0008 01D1     		bne	.L31
 375              	.L23:
 296:Core/Src/freertos.c ****   /* USER CODE BEGIN taskLedEntry */
 376              		.loc 1 296 1 discriminator 1 view .LVU105
 377 000a 0022     		movs	r2, #0
ARM GAS  C:\Users\VIDCOM~1\AppData\Local\Temp\ccpY4rta.s 			page 32


 378 000c 15E0     		b	.L24
 379              	.L31:
 300:Core/Src/freertos.c ****   };
 380              		.loc 1 300 5 is_stmt 1 view .LVU106
 381 000e FFF7FEFF 		bl	Error_Handler
 382              	.LVL32:
 383 0012 FAE7     		b	.L23
 384              	.LVL33:
 385              	.L25:
 386              	.LBB12:
 306:Core/Src/freertos.c ****     tcpModbusSocket[i].port = 502;
 387              		.loc 1 306 5 discriminator 3 view .LVU107
 306:Core/Src/freertos.c ****     tcpModbusSocket[i].port = 502;
 388              		.loc 1 306 33 is_stmt 0 discriminator 3 view .LVU108
 389 0014 1448     		ldr	r0, .L33
 390 0016 3421     		movs	r1, #52
 391 0018 02FB01F1 		mul	r1, r2, r1
 392 001c 4318     		adds	r3, r0, r1
 393 001e 4254     		strb	r2, [r0, r1]
 307:Core/Src/freertos.c ****     tcpModbusSocket[i].bufRx = modbusBufRxTxTCP;
 394              		.loc 1 307 5 is_stmt 1 discriminator 3 view .LVU109
 307:Core/Src/freertos.c ****     tcpModbusSocket[i].bufRx = modbusBufRxTxTCP;
 395              		.loc 1 307 29 is_stmt 0 discriminator 3 view .LVU110
 396 0020 4FF4FB71 		mov	r1, #502
 397 0024 5980     		strh	r1, [r3, #2]	@ movhi
 308:Core/Src/freertos.c ****     tcpModbusSocket[i].bufTx = modbusBufRxTxTCP;
 398              		.loc 1 308 5 is_stmt 1 discriminator 3 view .LVU111
 308:Core/Src/freertos.c ****     tcpModbusSocket[i].bufTx = modbusBufRxTxTCP;
 399              		.loc 1 308 30 is_stmt 0 discriminator 3 view .LVU112
 400 0026 1149     		ldr	r1, .L33+4
 401 0028 5960     		str	r1, [r3, #4]
 309:Core/Src/freertos.c ****     tcpModbusSocket[i].bufRxLen = MODBUS_SS_BUF_CNT;
 402              		.loc 1 309 5 is_stmt 1 discriminator 3 view .LVU113
 309:Core/Src/freertos.c ****     tcpModbusSocket[i].bufRxLen = MODBUS_SS_BUF_CNT;
 403              		.loc 1 309 30 is_stmt 0 discriminator 3 view .LVU114
 404 002a D960     		str	r1, [r3, #12]
 310:Core/Src/freertos.c ****     tcpModbusSocket[i].bufTxLen = MODBUS_SS_BUF_CNT;
 405              		.loc 1 310 5 is_stmt 1 discriminator 3 view .LVU115
 310:Core/Src/freertos.c ****     tcpModbusSocket[i].bufTxLen = MODBUS_SS_BUF_CNT;
 406              		.loc 1 310 33 is_stmt 0 discriminator 3 view .LVU116
 407 002c 4FF48271 		mov	r1, #260
 408 0030 1981     		strh	r1, [r3, #8]	@ movhi
 311:Core/Src/freertos.c ****     tcpModbusSocket[i].cbfunc_pendingData = cbckModbusTcpServer;
 409              		.loc 1 311 5 is_stmt 1 discriminator 3 view .LVU117
 311:Core/Src/freertos.c ****     tcpModbusSocket[i].cbfunc_pendingData = cbckModbusTcpServer;
 410              		.loc 1 311 33 is_stmt 0 discriminator 3 view .LVU118
 411 0032 1982     		strh	r1, [r3, #16]	@ movhi
 312:Core/Src/freertos.c ****     //tcpModbusSocket[i].echoMode = SET;
 412              		.loc 1 312 5 is_stmt 1 discriminator 3 view .LVU119
 312:Core/Src/freertos.c ****     //tcpModbusSocket[i].echoMode = SET;
 413              		.loc 1 312 43 is_stmt 0 discriminator 3 view .LVU120
 414 0034 0E49     		ldr	r1, .L33+8
 415 0036 5962     		str	r1, [r3, #36]
 304:Core/Src/freertos.c ****   {
 416              		.loc 1 304 51 is_stmt 1 discriminator 3 view .LVU121
 417 0038 0132     		adds	r2, r2, #1
 418              	.LVL34:
ARM GAS  C:\Users\VIDCOM~1\AppData\Local\Temp\ccpY4rta.s 			page 33


 419              	.L24:
 304:Core/Src/freertos.c ****   {
 420              		.loc 1 304 21 discriminator 1 view .LVU122
 421 003a 032A     		cmp	r2, #3
 422 003c EADD     		ble	.L25
 423 003e 10E0     		b	.L29
 424              	.LVL35:
 425              	.L27:
 304:Core/Src/freertos.c ****   {
 426              		.loc 1 304 21 is_stmt 0 discriminator 1 view .LVU123
 427              	.LBE12:
 428              	.LBB13:
 321:Core/Src/freertos.c ****   {
 429              		.loc 1 321 51 is_stmt 1 discriminator 2 view .LVU124
 430 0040 0134     		adds	r4, r4, #1
 431              	.LVL36:
 432              	.L26:
 321:Core/Src/freertos.c ****   {
 433              		.loc 1 321 21 discriminator 1 view .LVU125
 434 0042 032C     		cmp	r4, #3
 435 0044 0ADC     		bgt	.L32
 323:Core/Src/freertos.c ****     {
 436              		.loc 1 323 5 view .LVU126
 323:Core/Src/freertos.c ****     {
 437              		.loc 1 323 9 is_stmt 0 view .LVU127
 438 0046 3420     		movs	r0, #52
 439 0048 074B     		ldr	r3, .L33
 440 004a 00FB0430 		mla	r0, r0, r4, r3
 441 004e FFF7FEFF 		bl	Eth_f_runTcpSrv
 442              	.LVL37:
 323:Core/Src/freertos.c ****     {
 443              		.loc 1 323 8 view .LVU128
 444 0052 0128     		cmp	r0, #1
 445 0054 F4D0     		beq	.L27
 325:Core/Src/freertos.c ****     }
 446              		.loc 1 325 7 is_stmt 1 view .LVU129
 447 0056 FFF7FEFF 		bl	Error_Handler
 448              	.LVL38:
 449 005a F1E7     		b	.L27
 450              	.L32:
 451              	.LBE13:
 331:Core/Src/freertos.c **** 
 452              		.loc 1 331 3 view .LVU130
 453 005c 0120     		movs	r0, #1
 454 005e FFF7FEFF 		bl	osDelay
 455              	.LVL39:
 318:Core/Src/freertos.c **** {
 456              		.loc 1 318 1 view .LVU131
 457              	.L29:
 318:Core/Src/freertos.c **** {
 458              		.loc 1 318 1 view .LVU132
 321:Core/Src/freertos.c ****   {
 459              		.loc 1 321 3 view .LVU133
 460              	.LBB14:
 321:Core/Src/freertos.c ****   {
 461              		.loc 1 321 8 view .LVU134
 321:Core/Src/freertos.c ****   {
ARM GAS  C:\Users\VIDCOM~1\AppData\Local\Temp\ccpY4rta.s 			page 34


 462              		.loc 1 321 12 is_stmt 0 view .LVU135
 463 0062 0024     		movs	r4, #0
 321:Core/Src/freertos.c ****   {
 464              		.loc 1 321 3 view .LVU136
 465 0064 EDE7     		b	.L26
 466              	.L34:
 467 0066 00BF     		.align	2
 468              	.L33:
 469 0068 00000000 		.word	tcpModbusSocket
 470 006c 00000000 		.word	modbusBufRxTxTCP
 471 0070 00000000 		.word	cbckModbusTcpServer
 472              	.LBE14:
 473              		.cfi_endproc
 474              	.LFE581:
 476              		.section	.text.cbckModbusTcpServer,"ax",%progbits
 477              		.align	1
 478              		.global	cbckModbusTcpServer
 479              		.syntax unified
 480              		.thumb
 481              		.thumb_func
 483              	cbckModbusTcpServer:
 484              	.LVL40:
 485              	.LFB582:
 337:Core/Src/freertos.c ****   socket->exchangeState = state_res_inProc;
 486              		.loc 1 337 50 is_stmt 1 view -0
 487              		.cfi_startproc
 488              		@ args = 0, pretend = 0, frame = 0
 489              		@ frame_needed = 0, uses_anonymous_args = 0
 337:Core/Src/freertos.c ****   socket->exchangeState = state_res_inProc;
 490              		.loc 1 337 50 is_stmt 0 view .LVU138
 491 0000 10B5     		push	{r4, lr}
 492              	.LCFI3:
 493              		.cfi_def_cfa_offset 8
 494              		.cfi_offset 4, -8
 495              		.cfi_offset 14, -4
 496 0002 0446     		mov	r4, r0
 338:Core/Src/freertos.c ****   socket->txFrameSize = ModbusSS_ParseRxData(&modbusSS_tcp);
 497              		.loc 1 338 3 is_stmt 1 view .LVU139
 338:Core/Src/freertos.c ****   socket->txFrameSize = ModbusSS_ParseRxData(&modbusSS_tcp);
 498              		.loc 1 338 25 is_stmt 0 view .LVU140
 499 0004 0323     		movs	r3, #3
 500 0006 C374     		strb	r3, [r0, #19]
 339:Core/Src/freertos.c ****   return 0;
 501              		.loc 1 339 3 is_stmt 1 view .LVU141
 339:Core/Src/freertos.c ****   return 0;
 502              		.loc 1 339 25 is_stmt 0 view .LVU142
 503 0008 0248     		ldr	r0, .L37
 504              	.LVL41:
 339:Core/Src/freertos.c ****   return 0;
 505              		.loc 1 339 25 view .LVU143
 506 000a FFF7FEFF 		bl	ModbusSS_ParseRxData
 507              	.LVL42:
 339:Core/Src/freertos.c ****   return 0;
 508              		.loc 1 339 23 view .LVU144
 509 000e A082     		strh	r0, [r4, #20]	@ movhi
 340:Core/Src/freertos.c **** }
 510              		.loc 1 340 3 is_stmt 1 view .LVU145
ARM GAS  C:\Users\VIDCOM~1\AppData\Local\Temp\ccpY4rta.s 			page 35


 341:Core/Src/freertos.c **** 
 511              		.loc 1 341 1 is_stmt 0 view .LVU146
 512 0010 0020     		movs	r0, #0
 513 0012 10BD     		pop	{r4, pc}
 514              	.LVL43:
 515              	.L38:
 341:Core/Src/freertos.c **** 
 516              		.loc 1 341 1 view .LVU147
 517              		.align	2
 518              	.L37:
 519 0014 00000000 		.word	modbusSS_tcp
 520              		.cfi_endproc
 521              	.LFE582:
 523              		.section	.text.modbusHoldingReq,"ax",%progbits
 524              		.align	1
 525              		.global	modbusHoldingReq
 526              		.syntax unified
 527              		.thumb
 528              		.thumb_func
 530              	modbusHoldingReq:
 531              	.LVL44:
 532              	.LFB583:
 343:Core/Src/freertos.c **** 
 533              		.loc 1 343 80 is_stmt 1 view -0
 534              		.cfi_startproc
 535              		@ args = 0, pretend = 0, frame = 0
 536              		@ frame_needed = 0, uses_anonymous_args = 0
 343:Core/Src/freertos.c **** 
 537              		.loc 1 343 80 is_stmt 0 view .LVU149
 538 0000 F8B5     		push	{r3, r4, r5, r6, r7, lr}
 539              	.LCFI4:
 540              		.cfi_def_cfa_offset 24
 541              		.cfi_offset 3, -24
 542              		.cfi_offset 4, -20
 543              		.cfi_offset 5, -16
 544              		.cfi_offset 6, -12
 545              		.cfi_offset 7, -8
 546              		.cfi_offset 14, -4
 547 0002 0E46     		mov	r6, r1
 548 0004 1746     		mov	r7, r2
 345:Core/Src/freertos.c ****   if (table == &modbusTableHolding1)
 549              		.loc 1 345 3 is_stmt 1 view .LVU150
 550              	.LVL45:
 551              	.LBB15:
 552              	.LBI15:
 862:Drivers/STM32F1xx_HAL_Driver/Inc/stm32f1xx_ll_gpio.h **** {
 553              		.loc 2 862 22 view .LVU151
 554              	.LBB16:
 864:Drivers/STM32F1xx_HAL_Driver/Inc/stm32f1xx_ll_gpio.h ****   uint32_t pinmask = ((PinMask >> GPIO_PIN_MASK_POS) & 0x0000FFFFU);
 555              		.loc 2 864 3 view .LVU152
 864:Drivers/STM32F1xx_HAL_Driver/Inc/stm32f1xx_ll_gpio.h ****   uint32_t pinmask = ((PinMask >> GPIO_PIN_MASK_POS) & 0x0000FFFFU);
 556              		.loc 2 864 12 is_stmt 0 view .LVU153
 557 0006 2C49     		ldr	r1, .L54
 558              	.LVL46:
 864:Drivers/STM32F1xx_HAL_Driver/Inc/stm32f1xx_ll_gpio.h ****   uint32_t pinmask = ((PinMask >> GPIO_PIN_MASK_POS) & 0x0000FFFFU);
 559              		.loc 2 864 12 view .LVU154
 560 0008 CB68     		ldr	r3, [r1, #12]
ARM GAS  C:\Users\VIDCOM~1\AppData\Local\Temp\ccpY4rta.s 			page 36


 561              	.LVL47:
 865:Drivers/STM32F1xx_HAL_Driver/Inc/stm32f1xx_ll_gpio.h ****   WRITE_REG(GPIOx->BSRR, ((odr & pinmask) << 16u) | (~odr & pinmask));
 562              		.loc 2 865 3 is_stmt 1 view .LVU155
 563              		.loc 2 866 3 view .LVU156
 564 000a 1A04     		lsls	r2, r3, #16
 565              	.LVL48:
 566              		.loc 2 866 3 is_stmt 0 view .LVU157
 567 000c 02F48012 		and	r2, r2, #1048576
 568 0010 DB43     		mvns	r3, r3
 569              	.LVL49:
 570              		.loc 2 866 3 view .LVU158
 571 0012 03F01003 		and	r3, r3, #16
 572              	.LVL50:
 573              		.loc 2 866 3 view .LVU159
 574 0016 1343     		orrs	r3, r3, r2
 575 0018 0B61     		str	r3, [r1, #16]
 576              	.LVL51:
 577              		.loc 2 866 3 view .LVU160
 578              	.LBE16:
 579              	.LBE15:
 346:Core/Src/freertos.c ****   {
 580              		.loc 1 346 3 is_stmt 1 view .LVU161
 346:Core/Src/freertos.c ****   {
 581              		.loc 1 346 6 is_stmt 0 view .LVU162
 582 001a 284B     		ldr	r3, .L54+4
 583 001c 9842     		cmp	r0, r3
 584 001e 00D0     		beq	.L53
 585              	.LVL52:
 586              	.L39:
 382:Core/Src/freertos.c **** 
 587              		.loc 1 382 1 view .LVU163
 588 0020 F8BD     		pop	{r3, r4, r5, r6, r7, pc}
 589              	.LVL53:
 590              	.L53:
 382:Core/Src/freertos.c **** 
 591              		.loc 1 382 1 view .LVU164
 592 0022 0546     		mov	r5, r0
 348:Core/Src/freertos.c ****     {
 593              		.loc 1 348 5 is_stmt 1 view .LVU165
 594              	.LBB17:
 348:Core/Src/freertos.c ****     {
 595              		.loc 1 348 10 view .LVU166
 596              	.LVL54:
 348:Core/Src/freertos.c ****     {
 597              		.loc 1 348 14 is_stmt 0 view .LVU167
 598 0024 3446     		mov	r4, r6
 348:Core/Src/freertos.c ****     {
 599              		.loc 1 348 5 view .LVU168
 600 0026 07E0     		b	.L41
 601              	.LVL55:
 602              	.L49:
 354:Core/Src/freertos.c ****         asm("NOP");
 603              		.loc 1 354 9 is_stmt 1 view .LVU169
 604 0028 254B     		ldr	r3, .L54+8
 605 002a 1A88     		ldrh	r2, [r3]
 606 002c A1B2     		uxth	r1, r4
 607 002e 2846     		mov	r0, r5
ARM GAS  C:\Users\VIDCOM~1\AppData\Local\Temp\ccpY4rta.s 			page 37


 608 0030 FFF7FEFF 		bl	ModbusSS_SetWord
 609              	.LVL56:
 355:Core/Src/freertos.c ****         break;
 610              		.loc 1 355 9 view .LVU170
 611              		.syntax unified
 612              	@ 355 "Core/Src/freertos.c" 1
 613 0034 00BF     		NOP
 614              	@ 0 "" 2
 356:Core/Src/freertos.c ****       case MBP_reg_2:
 615              		.loc 1 356 9 view .LVU171
 616              		.thumb
 617              		.syntax unified
 618              	.L42:
 348:Core/Src/freertos.c ****     {
 619              		.loc 1 348 44 discriminator 2 view .LVU172
 620 0036 0134     		adds	r4, r4, #1
 621              	.LVL57:
 622              	.L41:
 348:Core/Src/freertos.c ****     {
 623              		.loc 1 348 25 discriminator 1 view .LVU173
 348:Core/Src/freertos.c ****     {
 624              		.loc 1 348 31 is_stmt 0 discriminator 1 view .LVU174
 625 0038 BB19     		adds	r3, r7, r6
 348:Core/Src/freertos.c ****     {
 626              		.loc 1 348 25 discriminator 1 view .LVU175
 627 003a A342     		cmp	r3, r4
 628 003c F0DD     		ble	.L39
 350:Core/Src/freertos.c ****       switch (r)
 629              		.loc 1 350 7 is_stmt 1 view .LVU176
 630              		.syntax unified
 631              	@ 350 "Core/Src/freertos.c" 1
 632 003e 00BF     		NOP
 633              	@ 0 "" 2
 351:Core/Src/freertos.c ****       {
 634              		.loc 1 351 7 view .LVU177
 635              		.thumb
 636              		.syntax unified
 637 0040 A4F58073 		sub	r3, r4, #256
 638 0044 052B     		cmp	r3, #5
 639 0046 F6D8     		bhi	.L42
 640 0048 01A2     		adr	r2, .L44
 641 004a 52F823F0 		ldr	pc, [r2, r3, lsl #2]
 642 004e 00BF     		.p2align 2
 643              	.L44:
 644 0050 29000000 		.word	.L49+1
 645 0054 69000000 		.word	.L48+1
 646 0058 79000000 		.word	.L47+1
 647 005c 89000000 		.word	.L46+1
 648 0060 99000000 		.word	.L45+1
 649 0064 A9000000 		.word	.L43+1
 650              		.p2align 1
 651              	.L48:
 358:Core/Src/freertos.c ****         asm("NOP");
 652              		.loc 1 358 9 view .LVU178
 653 0068 164B     		ldr	r3, .L54+12
 654 006a 1A88     		ldrh	r2, [r3]
 655 006c A1B2     		uxth	r1, r4
ARM GAS  C:\Users\VIDCOM~1\AppData\Local\Temp\ccpY4rta.s 			page 38


 656 006e 2846     		mov	r0, r5
 657 0070 FFF7FEFF 		bl	ModbusSS_SetWord
 658              	.LVL58:
 359:Core/Src/freertos.c ****         break;
 659              		.loc 1 359 9 view .LVU179
 660              		.syntax unified
 661              	@ 359 "Core/Src/freertos.c" 1
 662 0074 00BF     		NOP
 663              	@ 0 "" 2
 360:Core/Src/freertos.c ****       case MBP_reg_3:
 664              		.loc 1 360 9 view .LVU180
 665              		.thumb
 666              		.syntax unified
 667 0076 DEE7     		b	.L42
 668              	.L47:
 362:Core/Src/freertos.c ****         asm("NOP");
 669              		.loc 1 362 9 view .LVU181
 670 0078 134B     		ldr	r3, .L54+16
 671 007a 1A88     		ldrh	r2, [r3]
 672 007c A1B2     		uxth	r1, r4
 673 007e 2846     		mov	r0, r5
 674 0080 FFF7FEFF 		bl	ModbusSS_SetWord
 675              	.LVL59:
 363:Core/Src/freertos.c ****         break;
 676              		.loc 1 363 9 view .LVU182
 677              		.syntax unified
 678              	@ 363 "Core/Src/freertos.c" 1
 679 0084 00BF     		NOP
 680              	@ 0 "" 2
 364:Core/Src/freertos.c ****       case MBP_reg_4:
 681              		.loc 1 364 9 view .LVU183
 682              		.thumb
 683              		.syntax unified
 684 0086 D6E7     		b	.L42
 685              	.L46:
 366:Core/Src/freertos.c ****         asm("NOP");
 686              		.loc 1 366 9 view .LVU184
 687 0088 104B     		ldr	r3, .L54+20
 688 008a 1A88     		ldrh	r2, [r3]
 689 008c A1B2     		uxth	r1, r4
 690 008e 2846     		mov	r0, r5
 691 0090 FFF7FEFF 		bl	ModbusSS_SetWord
 692              	.LVL60:
 367:Core/Src/freertos.c ****         break;
 693              		.loc 1 367 9 view .LVU185
 694              		.syntax unified
 695              	@ 367 "Core/Src/freertos.c" 1
 696 0094 00BF     		NOP
 697              	@ 0 "" 2
 368:Core/Src/freertos.c ****       case MBP_reg_5:
 698              		.loc 1 368 9 view .LVU186
 699              		.thumb
 700              		.syntax unified
 701 0096 CEE7     		b	.L42
 702              	.L45:
 370:Core/Src/freertos.c ****         asm("NOP");
 703              		.loc 1 370 9 view .LVU187
ARM GAS  C:\Users\VIDCOM~1\AppData\Local\Temp\ccpY4rta.s 			page 39


 704 0098 0D4B     		ldr	r3, .L54+24
 705 009a 1A88     		ldrh	r2, [r3]
 706 009c A1B2     		uxth	r1, r4
 707 009e 2846     		mov	r0, r5
 708 00a0 FFF7FEFF 		bl	ModbusSS_SetWord
 709              	.LVL61:
 371:Core/Src/freertos.c ****         break;
 710              		.loc 1 371 9 view .LVU188
 711              		.syntax unified
 712              	@ 371 "Core/Src/freertos.c" 1
 713 00a4 00BF     		NOP
 714              	@ 0 "" 2
 372:Core/Src/freertos.c ****       case MBP_reg_6:
 715              		.loc 1 372 9 view .LVU189
 716              		.thumb
 717              		.syntax unified
 718 00a6 C6E7     		b	.L42
 719              	.L43:
 374:Core/Src/freertos.c ****         asm("NOP");
 720              		.loc 1 374 9 view .LVU190
 721 00a8 0A4B     		ldr	r3, .L54+28
 722 00aa 1A88     		ldrh	r2, [r3]
 723 00ac A1B2     		uxth	r1, r4
 724 00ae 2846     		mov	r0, r5
 725 00b0 FFF7FEFF 		bl	ModbusSS_SetWord
 726              	.LVL62:
 375:Core/Src/freertos.c ****         break;
 727              		.loc 1 375 9 view .LVU191
 728              		.syntax unified
 729              	@ 375 "Core/Src/freertos.c" 1
 730 00b4 00BF     		NOP
 731              	@ 0 "" 2
 376:Core/Src/freertos.c ****       default:
 732              		.loc 1 376 9 view .LVU192
 733              		.thumb
 734              		.syntax unified
 735 00b6 BEE7     		b	.L42
 736              	.L55:
 737              		.align	2
 738              	.L54:
 739 00b8 000C0140 		.word	1073810432
 740 00bc 00000000 		.word	modbusTableHolding1
 741 00c0 00000000 		.word	mdb_1
 742 00c4 00000000 		.word	mdb_2
 743 00c8 00000000 		.word	mdb_3
 744 00cc 00000000 		.word	mdb_4
 745 00d0 00000000 		.word	mdb_5
 746 00d4 00000000 		.word	mdb_err_cnt
 747              	.LBE17:
 748              		.cfi_endproc
 749              	.LFE583:
 751              		.section	.text.MX_FREERTOS_Init,"ax",%progbits
 752              		.align	1
 753              		.global	MX_FREERTOS_Init
 754              		.syntax unified
 755              		.thumb
 756              		.thumb_func
ARM GAS  C:\Users\VIDCOM~1\AppData\Local\Temp\ccpY4rta.s 			page 40


 758              	MX_FREERTOS_Init:
 759              	.LFB578:
 167:Core/Src/freertos.c ****   /* USER CODE BEGIN Init */
 760              		.loc 1 167 29 view -0
 761              		.cfi_startproc
 762              		@ args = 0, pretend = 0, frame = 0
 763              		@ frame_needed = 0, uses_anonymous_args = 0
 764 0000 08B5     		push	{r3, lr}
 765              	.LCFI5:
 766              		.cfi_def_cfa_offset 8
 767              		.cfi_offset 3, -8
 768              		.cfi_offset 14, -4
 190:Core/Src/freertos.c **** 
 769              		.loc 1 190 3 view .LVU194
 190:Core/Src/freertos.c **** 
 770              		.loc 1 190 23 is_stmt 0 view .LVU195
 771 0002 0B4A     		ldr	r2, .L58
 772 0004 0021     		movs	r1, #0
 773 0006 0B48     		ldr	r0, .L58+4
 774 0008 FFF7FEFF 		bl	osThreadNew
 775              	.LVL63:
 190:Core/Src/freertos.c **** 
 776              		.loc 1 190 21 view .LVU196
 777 000c 0A4B     		ldr	r3, .L58+8
 778 000e 1860     		str	r0, [r3]
 193:Core/Src/freertos.c ****   taskMdbHandle = osThreadNew(taskMdbEntry, NULL, &taskMdb_attributes);
 779              		.loc 1 193 3 is_stmt 1 view .LVU197
 193:Core/Src/freertos.c ****   taskMdbHandle = osThreadNew(taskMdbEntry, NULL, &taskMdb_attributes);
 780              		.loc 1 193 19 is_stmt 0 view .LVU198
 781 0010 0A4A     		ldr	r2, .L58+12
 782 0012 0021     		movs	r1, #0
 783 0014 0A48     		ldr	r0, .L58+16
 784 0016 FFF7FEFF 		bl	osThreadNew
 785              	.LVL64:
 193:Core/Src/freertos.c ****   taskMdbHandle = osThreadNew(taskMdbEntry, NULL, &taskMdb_attributes);
 786              		.loc 1 193 17 view .LVU199
 787 001a 0A4B     		ldr	r3, .L58+20
 788 001c 1860     		str	r0, [r3]
 194:Core/Src/freertos.c **** 
 789              		.loc 1 194 3 is_stmt 1 view .LVU200
 194:Core/Src/freertos.c **** 
 790              		.loc 1 194 19 is_stmt 0 view .LVU201
 791 001e 0A4A     		ldr	r2, .L58+24
 792 0020 0021     		movs	r1, #0
 793 0022 0A48     		ldr	r0, .L58+28
 794 0024 FFF7FEFF 		bl	osThreadNew
 795              	.LVL65:
 194:Core/Src/freertos.c **** 
 796              		.loc 1 194 17 view .LVU202
 797 0028 094B     		ldr	r3, .L58+32
 798 002a 1860     		str	r0, [r3]
 196:Core/Src/freertos.c ****   /* USER CODE END RTOS_THREADS */
 799              		.loc 1 196 3 is_stmt 1 view .LVU203
 800              		.syntax unified
 801              	@ 196 "Core/Src/freertos.c" 1
 802 002c 00BF     		NOP
 803              	@ 0 "" 2
ARM GAS  C:\Users\VIDCOM~1\AppData\Local\Temp\ccpY4rta.s 			page 41


 203:Core/Src/freertos.c **** 
 804              		.loc 1 203 1 is_stmt 0 view .LVU204
 805              		.thumb
 806              		.syntax unified
 807 002e 08BD     		pop	{r3, pc}
 808              	.L59:
 809              		.align	2
 810              	.L58:
 811 0030 00000000 		.word	defaultTask_attributes
 812 0034 00000000 		.word	StartDefaultTask
 813 0038 00000000 		.word	defaultTaskHandle
 814 003c 00000000 		.word	taskNet_attributes
 815 0040 00000000 		.word	taskNetEntry
 816 0044 00000000 		.word	taskNetHandle
 817 0048 00000000 		.word	taskMdb_attributes
 818 004c 00000000 		.word	taskMdbEntry
 819 0050 00000000 		.word	taskMdbHandle
 820              		.cfi_endproc
 821              	.LFE578:
 823              		.section	.text.HAL_UART_RxCpltCallback,"ax",%progbits
 824              		.align	1
 825              		.global	HAL_UART_RxCpltCallback
 826              		.syntax unified
 827              		.thumb
 828              		.thumb_func
 830              	HAL_UART_RxCpltCallback:
 831              	.LVL66:
 832              	.LFB584:
 385:Core/Src/freertos.c ****   for (uint8_t i = 0; i < MDB_RTU_RX_COUNT_BYTE; i++)
 833              		.loc 1 385 1 is_stmt 1 view -0
 834              		.cfi_startproc
 835              		@ args = 0, pretend = 0, frame = 0
 836              		@ frame_needed = 0, uses_anonymous_args = 0
 837              		@ link register save eliminated.
 385:Core/Src/freertos.c ****   for (uint8_t i = 0; i < MDB_RTU_RX_COUNT_BYTE; i++)
 838              		.loc 1 385 1 is_stmt 0 view .LVU206
 839 0000 F0B4     		push	{r4, r5, r6, r7}
 840              	.LCFI6:
 841              		.cfi_def_cfa_offset 16
 842              		.cfi_offset 4, -16
 843              		.cfi_offset 5, -12
 844              		.cfi_offset 6, -8
 845              		.cfi_offset 7, -4
 386:Core/Src/freertos.c ****   {
 846              		.loc 1 386 3 is_stmt 1 view .LVU207
 847              	.LBB18:
 386:Core/Src/freertos.c ****   {
 848              		.loc 1 386 8 view .LVU208
 849              	.LVL67:
 386:Core/Src/freertos.c ****   {
 850              		.loc 1 386 16 is_stmt 0 view .LVU209
 851 0002 0023     		movs	r3, #0
 386:Core/Src/freertos.c ****   {
 852              		.loc 1 386 3 view .LVU210
 853 0004 05E0     		b	.L61
 854              	.LVL68:
 855              	.L62:
ARM GAS  C:\Users\VIDCOM~1\AppData\Local\Temp\ccpY4rta.s 			page 42


 388:Core/Src/freertos.c ****   }
 856              		.loc 1 388 5 is_stmt 1 discriminator 3 view .LVU211
 388:Core/Src/freertos.c ****   }
 857              		.loc 1 388 35 is_stmt 0 discriminator 3 view .LVU212
 858 0006 1F4A     		ldr	r2, .L64
 859 0008 D15C     		ldrb	r1, [r2, r3]	@ zero_extendqisi2
 388:Core/Src/freertos.c ****   }
 860              		.loc 1 388 16 discriminator 3 view .LVU213
 861 000a 1F4A     		ldr	r2, .L64+4
 862 000c D154     		strb	r1, [r2, r3]
 386:Core/Src/freertos.c ****   {
 863              		.loc 1 386 51 is_stmt 1 discriminator 3 view .LVU214
 864 000e 0133     		adds	r3, r3, #1
 865              	.LVL69:
 386:Core/Src/freertos.c ****   {
 866              		.loc 1 386 51 is_stmt 0 discriminator 3 view .LVU215
 867 0010 DBB2     		uxtb	r3, r3
 868              	.LVL70:
 869              	.L61:
 386:Core/Src/freertos.c ****   {
 870              		.loc 1 386 25 is_stmt 1 discriminator 1 view .LVU216
 871 0012 0E2B     		cmp	r3, #14
 872 0014 F7D9     		bls	.L62
 873              	.LBE18:
 395:Core/Src/freertos.c ****   mdb_2 = 0;
 874              		.loc 1 395 3 view .LVU217
 395:Core/Src/freertos.c ****   mdb_2 = 0;
 875              		.loc 1 395 9 is_stmt 0 view .LVU218
 876 0016 1D4F     		ldr	r7, .L64+8
 877 0018 0022     		movs	r2, #0
 878 001a 3A80     		strh	r2, [r7]	@ movhi
 396:Core/Src/freertos.c ****   mdb_3 = 0;
 879              		.loc 1 396 3 is_stmt 1 view .LVU219
 396:Core/Src/freertos.c ****   mdb_3 = 0;
 880              		.loc 1 396 9 is_stmt 0 view .LVU220
 881 001c 1C4E     		ldr	r6, .L64+12
 882 001e 3280     		strh	r2, [r6]	@ movhi
 397:Core/Src/freertos.c ****   mdb_4 = 0;
 883              		.loc 1 397 3 is_stmt 1 view .LVU221
 397:Core/Src/freertos.c ****   mdb_4 = 0;
 884              		.loc 1 397 9 is_stmt 0 view .LVU222
 885 0020 1C4D     		ldr	r5, .L64+16
 886 0022 2A80     		strh	r2, [r5]	@ movhi
 398:Core/Src/freertos.c ****   mdb_5 = 0;
 887              		.loc 1 398 3 is_stmt 1 view .LVU223
 398:Core/Src/freertos.c ****   mdb_5 = 0;
 888              		.loc 1 398 9 is_stmt 0 view .LVU224
 889 0024 1C4C     		ldr	r4, .L64+20
 890 0026 2280     		strh	r2, [r4]	@ movhi
 399:Core/Src/freertos.c **** 
 891              		.loc 1 399 3 is_stmt 1 view .LVU225
 399:Core/Src/freertos.c **** 
 892              		.loc 1 399 9 is_stmt 0 view .LVU226
 893 0028 1C48     		ldr	r0, .L64+24
 894              	.LVL71:
 399:Core/Src/freertos.c **** 
 895              		.loc 1 399 9 view .LVU227
ARM GAS  C:\Users\VIDCOM~1\AppData\Local\Temp\ccpY4rta.s 			page 43


 896 002a 0280     		strh	r2, [r0]	@ movhi
 401:Core/Src/freertos.c ****   mdb_1 |= mdb_buf[4];
 897              		.loc 1 401 3 is_stmt 1 view .LVU228
 401:Core/Src/freertos.c ****   mdb_1 |= mdb_buf[4];
 898              		.loc 1 401 19 is_stmt 0 view .LVU229
 899 002c 164B     		ldr	r3, .L64+4
 900              	.LVL72:
 401:Core/Src/freertos.c ****   mdb_1 |= mdb_buf[4];
 901              		.loc 1 401 19 view .LVU230
 902 002e D978     		ldrb	r1, [r3, #3]	@ zero_extendqisi2
 903 0030 0902     		lsls	r1, r1, #8
 401:Core/Src/freertos.c ****   mdb_1 |= mdb_buf[4];
 904              		.loc 1 401 9 view .LVU231
 905 0032 3980     		strh	r1, [r7]	@ movhi
 402:Core/Src/freertos.c **** 
 906              		.loc 1 402 3 is_stmt 1 view .LVU232
 402:Core/Src/freertos.c **** 
 907              		.loc 1 402 19 is_stmt 0 view .LVU233
 908 0034 93F804C0 		ldrb	ip, [r3, #4]	@ zero_extendqisi2
 402:Core/Src/freertos.c **** 
 909              		.loc 1 402 9 view .LVU234
 910 0038 4CEA0101 		orr	r1, ip, r1
 911 003c 3980     		strh	r1, [r7]	@ movhi
 404:Core/Src/freertos.c ****   mdb_2 |= mdb_buf[6];
 912              		.loc 1 404 3 is_stmt 1 view .LVU235
 404:Core/Src/freertos.c ****   mdb_2 |= mdb_buf[6];
 913              		.loc 1 404 19 is_stmt 0 view .LVU236
 914 003e 5979     		ldrb	r1, [r3, #5]	@ zero_extendqisi2
 915 0040 0902     		lsls	r1, r1, #8
 404:Core/Src/freertos.c ****   mdb_2 |= mdb_buf[6];
 916              		.loc 1 404 9 view .LVU237
 917 0042 3180     		strh	r1, [r6]	@ movhi
 405:Core/Src/freertos.c **** 
 918              		.loc 1 405 3 is_stmt 1 view .LVU238
 405:Core/Src/freertos.c **** 
 919              		.loc 1 405 19 is_stmt 0 view .LVU239
 920 0044 93F806C0 		ldrb	ip, [r3, #6]	@ zero_extendqisi2
 405:Core/Src/freertos.c **** 
 921              		.loc 1 405 9 view .LVU240
 922 0048 4CEA0101 		orr	r1, ip, r1
 923 004c 3180     		strh	r1, [r6]	@ movhi
 407:Core/Src/freertos.c ****   mdb_3 |= mdb_buf[8];
 924              		.loc 1 407 3 is_stmt 1 view .LVU241
 407:Core/Src/freertos.c ****   mdb_3 |= mdb_buf[8];
 925              		.loc 1 407 19 is_stmt 0 view .LVU242
 926 004e D979     		ldrb	r1, [r3, #7]	@ zero_extendqisi2
 927 0050 0902     		lsls	r1, r1, #8
 407:Core/Src/freertos.c ****   mdb_3 |= mdb_buf[8];
 928              		.loc 1 407 9 view .LVU243
 929 0052 2980     		strh	r1, [r5]	@ movhi
 408:Core/Src/freertos.c **** 
 930              		.loc 1 408 3 is_stmt 1 view .LVU244
 408:Core/Src/freertos.c **** 
 931              		.loc 1 408 19 is_stmt 0 view .LVU245
 932 0054 93F808C0 		ldrb	ip, [r3, #8]	@ zero_extendqisi2
 408:Core/Src/freertos.c **** 
 933              		.loc 1 408 9 view .LVU246
ARM GAS  C:\Users\VIDCOM~1\AppData\Local\Temp\ccpY4rta.s 			page 44


 934 0058 4CEA0101 		orr	r1, ip, r1
 935 005c 2980     		strh	r1, [r5]	@ movhi
 410:Core/Src/freertos.c ****   mdb_4 |= mdb_buf[10];
 936              		.loc 1 410 3 is_stmt 1 view .LVU247
 410:Core/Src/freertos.c ****   mdb_4 |= mdb_buf[10];
 937              		.loc 1 410 19 is_stmt 0 view .LVU248
 938 005e 597A     		ldrb	r1, [r3, #9]	@ zero_extendqisi2
 939 0060 0902     		lsls	r1, r1, #8
 410:Core/Src/freertos.c ****   mdb_4 |= mdb_buf[10];
 940              		.loc 1 410 9 view .LVU249
 941 0062 2180     		strh	r1, [r4]	@ movhi
 411:Core/Src/freertos.c ****   
 942              		.loc 1 411 3 is_stmt 1 view .LVU250
 411:Core/Src/freertos.c ****   
 943              		.loc 1 411 19 is_stmt 0 view .LVU251
 944 0064 93F80AC0 		ldrb	ip, [r3, #10]	@ zero_extendqisi2
 411:Core/Src/freertos.c ****   
 945              		.loc 1 411 9 view .LVU252
 946 0068 4CEA0101 		orr	r1, ip, r1
 947 006c 2180     		strh	r1, [r4]	@ movhi
 413:Core/Src/freertos.c ****   mdb_5 |= mdb_buf[12];
 948              		.loc 1 413 3 is_stmt 1 view .LVU253
 413:Core/Src/freertos.c ****   mdb_5 |= mdb_buf[12];
 949              		.loc 1 413 19 is_stmt 0 view .LVU254
 950 006e D97A     		ldrb	r1, [r3, #11]	@ zero_extendqisi2
 951 0070 0902     		lsls	r1, r1, #8
 413:Core/Src/freertos.c ****   mdb_5 |= mdb_buf[12];
 952              		.loc 1 413 9 view .LVU255
 953 0072 0180     		strh	r1, [r0]	@ movhi
 414:Core/Src/freertos.c **** 
 954              		.loc 1 414 3 is_stmt 1 view .LVU256
 414:Core/Src/freertos.c **** 
 955              		.loc 1 414 19 is_stmt 0 view .LVU257
 956 0074 1B7B     		ldrb	r3, [r3, #12]	@ zero_extendqisi2
 414:Core/Src/freertos.c **** 
 957              		.loc 1 414 9 view .LVU258
 958 0076 0B43     		orrs	r3, r3, r1
 959 0078 0380     		strh	r3, [r0]	@ movhi
 416:Core/Src/freertos.c ****   mdb_wait_rx_flag = flagReset;
 960              		.loc 1 416 3 is_stmt 1 view .LVU259
 961              		.syntax unified
 962              	@ 416 "Core/Src/freertos.c" 1
 963 007a 00BF     		NOP
 964              	@ 0 "" 2
 417:Core/Src/freertos.c **** }
 965              		.loc 1 417 3 view .LVU260
 417:Core/Src/freertos.c **** }
 966              		.loc 1 417 20 is_stmt 0 view .LVU261
 967              		.thumb
 968              		.syntax unified
 969 007c 084B     		ldr	r3, .L64+28
 970 007e 1A70     		strb	r2, [r3]
 418:Core/Src/freertos.c **** 
 971              		.loc 1 418 1 view .LVU262
 972 0080 F0BC     		pop	{r4, r5, r6, r7}
 973              	.LCFI7:
 974              		.cfi_restore 7
ARM GAS  C:\Users\VIDCOM~1\AppData\Local\Temp\ccpY4rta.s 			page 45


 975              		.cfi_restore 6
 976              		.cfi_restore 5
 977              		.cfi_restore 4
 978              		.cfi_def_cfa_offset 0
 979 0082 7047     		bx	lr
 980              	.L65:
 981              		.align	2
 982              	.L64:
 983 0084 00000000 		.word	modbusBufRxRtu485
 984 0088 00000000 		.word	mdb_buf
 985 008c 00000000 		.word	mdb_1
 986 0090 00000000 		.word	mdb_2
 987 0094 00000000 		.word	mdb_3
 988 0098 00000000 		.word	mdb_4
 989 009c 00000000 		.word	mdb_5
 990 00a0 00000000 		.word	mdb_wait_rx_flag
 991              		.cfi_endproc
 992              	.LFE584:
 994              		.section	.bss.crc.0,"aw",%nobits
 995              		.align	1
 998              	crc.0:
 999 0000 0000     		.space	2
 1000              		.section	.bss.mdb_req_time.1,"aw",%nobits
 1001              		.align	1
 1004              	mdb_req_time.1:
 1005 0000 0000     		.space	2
 1006              		.section	.bss.mdb_respons_timeout.2,"aw",%nobits
 1007              		.align	1
 1010              	mdb_respons_timeout.2:
 1011 0000 0000     		.space	2
 1012              		.global	defaultTask_attributes
 1013              		.section	.rodata.str1.4,"aMS",%progbits,1
 1014              		.align	2
 1015              	.LC0:
 1016 0000 64656661 		.ascii	"defaultTask\000"
 1016      756C7454 
 1016      61736B00 
 1017              		.section	.rodata.defaultTask_attributes,"a"
 1018              		.align	2
 1021              	defaultTask_attributes:
 1022 0000 00000000 		.word	.LC0
 1023 0004 00000000 		.space	16
 1023      00000000 
 1023      00000000 
 1023      00000000 
 1024 0014 00040000 		.word	1024
 1025 0018 18000000 		.word	24
 1026 001c 00000000 		.space	8
 1026      00000000 
 1027              		.global	defaultTaskHandle
 1028              		.section	.bss.defaultTaskHandle,"aw",%nobits
 1029              		.align	2
 1032              	defaultTaskHandle:
 1033 0000 00000000 		.space	4
 1034              		.global	taskMdb_attributes
 1035              		.section	.rodata.str1.4
 1036              		.align	2
ARM GAS  C:\Users\VIDCOM~1\AppData\Local\Temp\ccpY4rta.s 			page 46


 1037              	.LC1:
 1038 000c 7461736B 		.ascii	"taskMdb\000"
 1038      4D646200 
 1039              		.section	.rodata.taskMdb_attributes,"a"
 1040              		.align	2
 1043              	taskMdb_attributes:
 1044 0000 0C000000 		.word	.LC1
 1045 0004 00000000 		.space	16
 1045      00000000 
 1045      00000000 
 1045      00000000 
 1046 0014 00040000 		.word	1024
 1047 0018 18000000 		.word	24
 1048 001c 00000000 		.space	8
 1048      00000000 
 1049              		.global	taskMdbHandle
 1050              		.section	.bss.taskMdbHandle,"aw",%nobits
 1051              		.align	2
 1054              	taskMdbHandle:
 1055 0000 00000000 		.space	4
 1056              		.global	taskNet_attributes
 1057              		.section	.rodata.str1.4
 1058              		.align	2
 1059              	.LC2:
 1060 0014 7461736B 		.ascii	"taskNet\000"
 1060      4E657400 
 1061              		.section	.rodata.taskNet_attributes,"a"
 1062              		.align	2
 1065              	taskNet_attributes:
 1066 0000 14000000 		.word	.LC2
 1067 0004 00000000 		.space	16
 1067      00000000 
 1067      00000000 
 1067      00000000 
 1068 0014 00040000 		.word	1024
 1069 0018 18000000 		.word	24
 1070 001c 00000000 		.space	8
 1070      00000000 
 1071              		.global	taskNetHandle
 1072              		.section	.bss.taskNetHandle,"aw",%nobits
 1073              		.align	2
 1076              	taskNetHandle:
 1077 0000 00000000 		.space	4
 1078              		.global	modbusSS_tcp
 1079              		.section	.data.modbusSS_tcp,"aw"
 1080              		.align	2
 1083              	modbusSS_tcp:
 1084 0000 00000000 		.space	12
 1084      00000000 
 1084      00000000 
 1085 000c 00000000 		.word	modbusHoldingReq
 1086 0010 01       		.byte	1
 1087 0011 000000   		.space	3
 1088 0014 00000000 		.word	modbusBufRxTxTCP
 1089 0018 00000000 		.word	modbusTables
 1090 001c 01       		.byte	1
 1091 001d 01       		.byte	1
ARM GAS  C:\Users\VIDCOM~1\AppData\Local\Temp\ccpY4rta.s 			page 47


 1092 001e 0000     		.space	2
 1093              		.global	modbusTables
 1094              		.section	.data.modbusTables,"aw"
 1095              		.align	2
 1098              	modbusTables:
 1099 0000 00000000 		.word	modbusTableHolding1
 1100              		.global	modbusTableHolding1
 1101              		.section	.data.modbusTableHolding1,"aw"
 1102              		.align	2
 1105              	modbusTableHolding1:
 1106 0000 0001     		.short	256
 1107 0002 0600     		.short	6
 1108 0004 00       		.byte	0
 1109 0005 000000   		.space	3
 1110 0008 00000000 		.word	modbusHoldingBuf
 1111              		.global	mdb_err_cnt
 1112              		.section	.bss.mdb_err_cnt,"aw",%nobits
 1113              		.align	1
 1116              	mdb_err_cnt:
 1117 0000 0000     		.space	2
 1118              		.global	mdb_5
 1119              		.section	.bss.mdb_5,"aw",%nobits
 1120              		.align	1
 1123              	mdb_5:
 1124 0000 0000     		.space	2
 1125              		.global	mdb_4
 1126              		.section	.bss.mdb_4,"aw",%nobits
 1127              		.align	1
 1130              	mdb_4:
 1131 0000 0000     		.space	2
 1132              		.global	mdb_3
 1133              		.section	.bss.mdb_3,"aw",%nobits
 1134              		.align	1
 1137              	mdb_3:
 1138 0000 0000     		.space	2
 1139              		.global	mdb_2
 1140              		.section	.bss.mdb_2,"aw",%nobits
 1141              		.align	1
 1144              	mdb_2:
 1145 0000 0000     		.space	2
 1146              		.global	mdb_1
 1147              		.section	.bss.mdb_1,"aw",%nobits
 1148              		.align	1
 1151              	mdb_1:
 1152 0000 0000     		.space	2
 1153              		.global	mdb_buf
 1154              		.section	.bss.mdb_buf,"aw",%nobits
 1155              		.align	2
 1158              	mdb_buf:
 1159 0000 00000000 		.space	30
 1159      00000000 
 1159      00000000 
 1159      00000000 
 1159      00000000 
 1160              		.global	mdb_wait_rx_flag
 1161              		.section	.bss.mdb_wait_rx_flag,"aw",%nobits
 1164              	mdb_wait_rx_flag:
ARM GAS  C:\Users\VIDCOM~1\AppData\Local\Temp\ccpY4rta.s 			page 48


 1165 0000 00       		.space	1
 1166              		.global	modbusBufRxRtu485
 1167              		.section	.bss.modbusBufRxRtu485,"aw",%nobits
 1168              		.align	2
 1171              	modbusBufRxRtu485:
 1172 0000 00000000 		.space	30
 1172      00000000 
 1172      00000000 
 1172      00000000 
 1172      00000000 
 1173              		.global	modbusBufTxRtu485
 1174              		.section	.bss.modbusBufTxRtu485,"aw",%nobits
 1175              		.align	2
 1178              	modbusBufTxRtu485:
 1179 0000 00000000 		.space	30
 1179      00000000 
 1179      00000000 
 1179      00000000 
 1179      00000000 
 1180              		.global	modbusHoldingBuf
 1181              		.section	.bss.modbusHoldingBuf,"aw",%nobits
 1182              		.align	2
 1185              	modbusHoldingBuf:
 1186 0000 00000000 		.space	12
 1186      00000000 
 1186      00000000 
 1187              		.global	modbusBufRxTxTCP
 1188              		.section	.bss.modbusBufRxTxTCP,"aw",%nobits
 1189              		.align	2
 1192              	modbusBufRxTxTCP:
 1193 0000 00000000 		.space	260
 1193      00000000 
 1193      00000000 
 1193      00000000 
 1193      00000000 
 1194              		.global	tcpModbusSocket
 1195              		.section	.bss.tcpModbusSocket,"aw",%nobits
 1196              		.align	2
 1199              	tcpModbusSocket:
 1200 0000 00000000 		.space	208
 1200      00000000 
 1200      00000000 
 1200      00000000 
 1200      00000000 
 1201              		.text
 1202              	.Letext0:
 1203              		.file 3 "c:\\vscode\\vscodestmtools\\arm-none-eabi-gcc\\12.2.1-1.2.1\\.content\\arm-none-eabi\\inc
 1204              		.file 4 "c:\\vscode\\vscodestmtools\\arm-none-eabi-gcc\\12.2.1-1.2.1\\.content\\arm-none-eabi\\inc
 1205              		.file 5 "Drivers/CMSIS/Device/ST/STM32F1xx/Include/stm32f103xb.h"
 1206              		.file 6 "Drivers/CMSIS/Device/ST/STM32F1xx/Include/stm32f1xx.h"
 1207              		.file 7 "Drivers/STM32F1xx_HAL_Driver/Inc/stm32f1xx_hal_def.h"
 1208              		.file 8 "Drivers/STM32F1xx_HAL_Driver/Inc/stm32f1xx_hal_dma.h"
 1209              		.file 9 "Drivers/STM32F1xx_HAL_Driver/Inc/stm32f1xx_hal_uart.h"
 1210              		.file 10 "Drivers/STM32F1xx_HAL_Driver/Inc/stm32f1xx_ll_tim.h"
 1211              		.file 11 "Drivers/STM32F1xx_HAL_Driver/Inc/stm32f1xx_ll_dma.h"
 1212              		.file 12 "Middlewares/Third_Party/FreeRTOS/Source/CMSIS_RTOS_V2/cmsis_os2.h"
 1213              		.file 13 "Drivers/Ethernet/Eth.h"
ARM GAS  C:\Users\VIDCOM~1\AppData\Local\Temp\ccpY4rta.s 			page 49


 1214              		.file 14 "Drivers/ModbusSS/ModbusSS.h"
 1215              		.file 15 "Drivers/ModbusSS/ModbusProtocol.h"
 1216              		.file 16 "Core/Inc/usart.h"
 1217              		.file 17 "Core/Inc/main.h"
ARM GAS  C:\Users\VIDCOM~1\AppData\Local\Temp\ccpY4rta.s 			page 50


DEFINED SYMBOLS
                            *ABS*:0000000000000000 freertos.c
C:\Users\VIDCOM~1\AppData\Local\Temp\ccpY4rta.s:19     .text._Crc16_mdb:0000000000000000 $t
C:\Users\VIDCOM~1\AppData\Local\Temp\ccpY4rta.s:24     .text._Crc16_mdb:0000000000000000 _Crc16_mdb
C:\Users\VIDCOM~1\AppData\Local\Temp\ccpY4rta.s:112    .text.StartDefaultTask:0000000000000000 $t
C:\Users\VIDCOM~1\AppData\Local\Temp\ccpY4rta.s:118    .text.StartDefaultTask:0000000000000000 StartDefaultTask
C:\Users\VIDCOM~1\AppData\Local\Temp\ccpY4rta.s:152    .text.taskMdbEntry:0000000000000000 $t
C:\Users\VIDCOM~1\AppData\Local\Temp\ccpY4rta.s:158    .text.taskMdbEntry:0000000000000000 taskMdbEntry
C:\Users\VIDCOM~1\AppData\Local\Temp\ccpY4rta.s:335    .text.taskMdbEntry:00000000000000ac $d
C:\Users\VIDCOM~1\AppData\Local\Temp\ccpY4rta.s:1010   .bss.mdb_respons_timeout.2:0000000000000000 mdb_respons_timeout.2
C:\Users\VIDCOM~1\AppData\Local\Temp\ccpY4rta.s:1164   .bss.mdb_wait_rx_flag:0000000000000000 mdb_wait_rx_flag
C:\Users\VIDCOM~1\AppData\Local\Temp\ccpY4rta.s:1116   .bss.mdb_err_cnt:0000000000000000 mdb_err_cnt
C:\Users\VIDCOM~1\AppData\Local\Temp\ccpY4rta.s:1004   .bss.mdb_req_time.1:0000000000000000 mdb_req_time.1
C:\Users\VIDCOM~1\AppData\Local\Temp\ccpY4rta.s:1178   .bss.modbusBufTxRtu485:0000000000000000 modbusBufTxRtu485
C:\Users\VIDCOM~1\AppData\Local\Temp\ccpY4rta.s:998    .bss.crc.0:0000000000000000 crc.0
C:\Users\VIDCOM~1\AppData\Local\Temp\ccpY4rta.s:1171   .bss.modbusBufRxRtu485:0000000000000000 modbusBufRxRtu485
C:\Users\VIDCOM~1\AppData\Local\Temp\ccpY4rta.s:349    .text.taskNetEntry:0000000000000000 $t
C:\Users\VIDCOM~1\AppData\Local\Temp\ccpY4rta.s:355    .text.taskNetEntry:0000000000000000 taskNetEntry
C:\Users\VIDCOM~1\AppData\Local\Temp\ccpY4rta.s:469    .text.taskNetEntry:0000000000000068 $d
C:\Users\VIDCOM~1\AppData\Local\Temp\ccpY4rta.s:1199   .bss.tcpModbusSocket:0000000000000000 tcpModbusSocket
C:\Users\VIDCOM~1\AppData\Local\Temp\ccpY4rta.s:1192   .bss.modbusBufRxTxTCP:0000000000000000 modbusBufRxTxTCP
C:\Users\VIDCOM~1\AppData\Local\Temp\ccpY4rta.s:483    .text.cbckModbusTcpServer:0000000000000000 cbckModbusTcpServer
C:\Users\VIDCOM~1\AppData\Local\Temp\ccpY4rta.s:477    .text.cbckModbusTcpServer:0000000000000000 $t
C:\Users\VIDCOM~1\AppData\Local\Temp\ccpY4rta.s:519    .text.cbckModbusTcpServer:0000000000000014 $d
C:\Users\VIDCOM~1\AppData\Local\Temp\ccpY4rta.s:1083   .data.modbusSS_tcp:0000000000000000 modbusSS_tcp
C:\Users\VIDCOM~1\AppData\Local\Temp\ccpY4rta.s:524    .text.modbusHoldingReq:0000000000000000 $t
C:\Users\VIDCOM~1\AppData\Local\Temp\ccpY4rta.s:530    .text.modbusHoldingReq:0000000000000000 modbusHoldingReq
C:\Users\VIDCOM~1\AppData\Local\Temp\ccpY4rta.s:644    .text.modbusHoldingReq:0000000000000050 $d
C:\Users\VIDCOM~1\AppData\Local\Temp\ccpY4rta.s:650    .text.modbusHoldingReq:0000000000000068 $t
C:\Users\VIDCOM~1\AppData\Local\Temp\ccpY4rta.s:739    .text.modbusHoldingReq:00000000000000b8 $d
C:\Users\VIDCOM~1\AppData\Local\Temp\ccpY4rta.s:1105   .data.modbusTableHolding1:0000000000000000 modbusTableHolding1
C:\Users\VIDCOM~1\AppData\Local\Temp\ccpY4rta.s:1151   .bss.mdb_1:0000000000000000 mdb_1
C:\Users\VIDCOM~1\AppData\Local\Temp\ccpY4rta.s:1144   .bss.mdb_2:0000000000000000 mdb_2
C:\Users\VIDCOM~1\AppData\Local\Temp\ccpY4rta.s:1137   .bss.mdb_3:0000000000000000 mdb_3
C:\Users\VIDCOM~1\AppData\Local\Temp\ccpY4rta.s:1130   .bss.mdb_4:0000000000000000 mdb_4
C:\Users\VIDCOM~1\AppData\Local\Temp\ccpY4rta.s:1123   .bss.mdb_5:0000000000000000 mdb_5
C:\Users\VIDCOM~1\AppData\Local\Temp\ccpY4rta.s:752    .text.MX_FREERTOS_Init:0000000000000000 $t
C:\Users\VIDCOM~1\AppData\Local\Temp\ccpY4rta.s:758    .text.MX_FREERTOS_Init:0000000000000000 MX_FREERTOS_Init
C:\Users\VIDCOM~1\AppData\Local\Temp\ccpY4rta.s:811    .text.MX_FREERTOS_Init:0000000000000030 $d
C:\Users\VIDCOM~1\AppData\Local\Temp\ccpY4rta.s:1021   .rodata.defaultTask_attributes:0000000000000000 defaultTask_attributes
C:\Users\VIDCOM~1\AppData\Local\Temp\ccpY4rta.s:1032   .bss.defaultTaskHandle:0000000000000000 defaultTaskHandle
C:\Users\VIDCOM~1\AppData\Local\Temp\ccpY4rta.s:1065   .rodata.taskNet_attributes:0000000000000000 taskNet_attributes
C:\Users\VIDCOM~1\AppData\Local\Temp\ccpY4rta.s:1076   .bss.taskNetHandle:0000000000000000 taskNetHandle
C:\Users\VIDCOM~1\AppData\Local\Temp\ccpY4rta.s:1043   .rodata.taskMdb_attributes:0000000000000000 taskMdb_attributes
C:\Users\VIDCOM~1\AppData\Local\Temp\ccpY4rta.s:1054   .bss.taskMdbHandle:0000000000000000 taskMdbHandle
C:\Users\VIDCOM~1\AppData\Local\Temp\ccpY4rta.s:824    .text.HAL_UART_RxCpltCallback:0000000000000000 $t
C:\Users\VIDCOM~1\AppData\Local\Temp\ccpY4rta.s:830    .text.HAL_UART_RxCpltCallback:0000000000000000 HAL_UART_RxCpltCallback
C:\Users\VIDCOM~1\AppData\Local\Temp\ccpY4rta.s:983    .text.HAL_UART_RxCpltCallback:0000000000000084 $d
C:\Users\VIDCOM~1\AppData\Local\Temp\ccpY4rta.s:1158   .bss.mdb_buf:0000000000000000 mdb_buf
C:\Users\VIDCOM~1\AppData\Local\Temp\ccpY4rta.s:995    .bss.crc.0:0000000000000000 $d
C:\Users\VIDCOM~1\AppData\Local\Temp\ccpY4rta.s:1001   .bss.mdb_req_time.1:0000000000000000 $d
C:\Users\VIDCOM~1\AppData\Local\Temp\ccpY4rta.s:1007   .bss.mdb_respons_timeout.2:0000000000000000 $d
C:\Users\VIDCOM~1\AppData\Local\Temp\ccpY4rta.s:1014   .rodata.str1.4:0000000000000000 $d
C:\Users\VIDCOM~1\AppData\Local\Temp\ccpY4rta.s:1018   .rodata.defaultTask_attributes:0000000000000000 $d
C:\Users\VIDCOM~1\AppData\Local\Temp\ccpY4rta.s:1029   .bss.defaultTaskHandle:0000000000000000 $d
C:\Users\VIDCOM~1\AppData\Local\Temp\ccpY4rta.s:1040   .rodata.taskMdb_attributes:0000000000000000 $d
C:\Users\VIDCOM~1\AppData\Local\Temp\ccpY4rta.s:1051   .bss.taskMdbHandle:0000000000000000 $d
ARM GAS  C:\Users\VIDCOM~1\AppData\Local\Temp\ccpY4rta.s 			page 51


C:\Users\VIDCOM~1\AppData\Local\Temp\ccpY4rta.s:1062   .rodata.taskNet_attributes:0000000000000000 $d
C:\Users\VIDCOM~1\AppData\Local\Temp\ccpY4rta.s:1073   .bss.taskNetHandle:0000000000000000 $d
C:\Users\VIDCOM~1\AppData\Local\Temp\ccpY4rta.s:1080   .data.modbusSS_tcp:0000000000000000 $d
C:\Users\VIDCOM~1\AppData\Local\Temp\ccpY4rta.s:1098   .data.modbusTables:0000000000000000 modbusTables
C:\Users\VIDCOM~1\AppData\Local\Temp\ccpY4rta.s:1095   .data.modbusTables:0000000000000000 $d
C:\Users\VIDCOM~1\AppData\Local\Temp\ccpY4rta.s:1102   .data.modbusTableHolding1:0000000000000000 $d
C:\Users\VIDCOM~1\AppData\Local\Temp\ccpY4rta.s:1185   .bss.modbusHoldingBuf:0000000000000000 modbusHoldingBuf
C:\Users\VIDCOM~1\AppData\Local\Temp\ccpY4rta.s:1113   .bss.mdb_err_cnt:0000000000000000 $d
C:\Users\VIDCOM~1\AppData\Local\Temp\ccpY4rta.s:1120   .bss.mdb_5:0000000000000000 $d
C:\Users\VIDCOM~1\AppData\Local\Temp\ccpY4rta.s:1127   .bss.mdb_4:0000000000000000 $d
C:\Users\VIDCOM~1\AppData\Local\Temp\ccpY4rta.s:1134   .bss.mdb_3:0000000000000000 $d
C:\Users\VIDCOM~1\AppData\Local\Temp\ccpY4rta.s:1141   .bss.mdb_2:0000000000000000 $d
C:\Users\VIDCOM~1\AppData\Local\Temp\ccpY4rta.s:1148   .bss.mdb_1:0000000000000000 $d
C:\Users\VIDCOM~1\AppData\Local\Temp\ccpY4rta.s:1155   .bss.mdb_buf:0000000000000000 $d
C:\Users\VIDCOM~1\AppData\Local\Temp\ccpY4rta.s:1165   .bss.mdb_wait_rx_flag:0000000000000000 $d
C:\Users\VIDCOM~1\AppData\Local\Temp\ccpY4rta.s:1168   .bss.modbusBufRxRtu485:0000000000000000 $d
C:\Users\VIDCOM~1\AppData\Local\Temp\ccpY4rta.s:1175   .bss.modbusBufTxRtu485:0000000000000000 $d
C:\Users\VIDCOM~1\AppData\Local\Temp\ccpY4rta.s:1182   .bss.modbusHoldingBuf:0000000000000000 $d
C:\Users\VIDCOM~1\AppData\Local\Temp\ccpY4rta.s:1189   .bss.modbusBufRxTxTCP:0000000000000000 $d
C:\Users\VIDCOM~1\AppData\Local\Temp\ccpY4rta.s:1196   .bss.tcpModbusSocket:0000000000000000 $d

UNDEFINED SYMBOLS
osDelay
HAL_UART_AbortReceive_IT
HAL_UART_Transmit
HAL_UART_Receive_IT
huart1
Eth_f_Init
Error_Handler
Eth_f_runTcpSrv
ModbusSS_ParseRxData
ModbusSS_SetWord
osThreadNew
