ARM GAS  C:\Users\VIDCOM~1\AppData\Local\Temp\cciRpnMV.s 			page 1


   1              		.cpu cortex-m3
   2              		.arch armv7-m
   3              		.fpu softvfp
   4              		.eabi_attribute 20, 1
   5              		.eabi_attribute 21, 1
   6              		.eabi_attribute 23, 3
   7              		.eabi_attribute 24, 1
   8              		.eabi_attribute 25, 1
   9              		.eabi_attribute 26, 1
  10              		.eabi_attribute 30, 1
  11              		.eabi_attribute 34, 1
  12              		.eabi_attribute 18, 4
  13              		.file	"wizchip_conf.c"
  14              		.text
  15              	.Ltext0:
  16              		.cfi_sections	.debug_frame
  17              		.file 1 "ioLibrary_Driver-master/Ethernet/wizchip_conf.c"
  18              		.section	.text.wizchip_cris_enter,"ax",%progbits
  19              		.align	1
  20              		.global	wizchip_cris_enter
  21              		.syntax unified
  22              		.thumb
  23              		.thumb_func
  25              	wizchip_cris_enter:
  26              	.LFB0:
   1:ioLibrary_Driver-master/Ethernet/wizchip_conf.c **** //****************************************************************************/ 
   2:ioLibrary_Driver-master/Ethernet/wizchip_conf.c **** //!
   3:ioLibrary_Driver-master/Ethernet/wizchip_conf.c **** //! \file wizchip_conf.c
   4:ioLibrary_Driver-master/Ethernet/wizchip_conf.c **** //! \brief WIZCHIP Config Header File.
   5:ioLibrary_Driver-master/Ethernet/wizchip_conf.c **** //! \version 1.0.1
   6:ioLibrary_Driver-master/Ethernet/wizchip_conf.c **** //! \date 2013/10/21
   7:ioLibrary_Driver-master/Ethernet/wizchip_conf.c **** //! \par  Revision history
   8:ioLibrary_Driver-master/Ethernet/wizchip_conf.c **** //!       <2015/02/05> Notice
   9:ioLibrary_Driver-master/Ethernet/wizchip_conf.c **** //!        The version history is not updated after this point.
  10:ioLibrary_Driver-master/Ethernet/wizchip_conf.c **** //!        Download the latest version directly from GitHub. Please visit the our GitHub repository
  11:ioLibrary_Driver-master/Ethernet/wizchip_conf.c **** //!        >> https://github.com/Wiznet/ioLibrary_Driver
  12:ioLibrary_Driver-master/Ethernet/wizchip_conf.c **** //!       <2014/05/01> V1.0.1  Refer to M20140501
  13:ioLibrary_Driver-master/Ethernet/wizchip_conf.c **** //!        1. Explicit type casting in wizchip_bus_readdata() & wizchip_bus_writedata()
  14:ioLibrary_Driver-master/Ethernet/wizchip_conf.c **** //            Issued by Mathias ClauBen.
  15:ioLibrary_Driver-master/Ethernet/wizchip_conf.c **** //!           uint32_t type converts into ptrdiff_t first. And then recoverting it into uint8_t*
  16:ioLibrary_Driver-master/Ethernet/wizchip_conf.c **** //!           For remove the warning when pointer type size is not 32bit.
  17:ioLibrary_Driver-master/Ethernet/wizchip_conf.c **** //!           If ptrdiff_t doesn't support in your complier, You should must replace ptrdiff_t into
  18:ioLibrary_Driver-master/Ethernet/wizchip_conf.c **** //!       <2013/10/21> 1st Release
  19:ioLibrary_Driver-master/Ethernet/wizchip_conf.c **** //! \author MidnightCow
  20:ioLibrary_Driver-master/Ethernet/wizchip_conf.c **** //! \copyright
  21:ioLibrary_Driver-master/Ethernet/wizchip_conf.c **** //!
  22:ioLibrary_Driver-master/Ethernet/wizchip_conf.c **** //! Copyright (c)  2013, WIZnet Co., LTD.
  23:ioLibrary_Driver-master/Ethernet/wizchip_conf.c **** //! All rights reserved.
  24:ioLibrary_Driver-master/Ethernet/wizchip_conf.c **** //! 
  25:ioLibrary_Driver-master/Ethernet/wizchip_conf.c **** //! Redistribution and use in source and binary forms, with or without 
  26:ioLibrary_Driver-master/Ethernet/wizchip_conf.c **** //! modification, are permitted provided that the following conditions 
  27:ioLibrary_Driver-master/Ethernet/wizchip_conf.c **** //! are met: 
  28:ioLibrary_Driver-master/Ethernet/wizchip_conf.c **** //! 
  29:ioLibrary_Driver-master/Ethernet/wizchip_conf.c **** //!     * Redistributions of source code must retain the above copyright 
  30:ioLibrary_Driver-master/Ethernet/wizchip_conf.c **** //! notice, this list of conditions and the following disclaimer. 
  31:ioLibrary_Driver-master/Ethernet/wizchip_conf.c **** //!     * Redistributions in binary form must reproduce the above copyright
  32:ioLibrary_Driver-master/Ethernet/wizchip_conf.c **** //! notice, this list of conditions and the following disclaimer in the
ARM GAS  C:\Users\VIDCOM~1\AppData\Local\Temp\cciRpnMV.s 			page 2


  33:ioLibrary_Driver-master/Ethernet/wizchip_conf.c **** //! documentation and/or other materials provided with the distribution. 
  34:ioLibrary_Driver-master/Ethernet/wizchip_conf.c **** //!     * Neither the name of the <ORGANIZATION> nor the names of its 
  35:ioLibrary_Driver-master/Ethernet/wizchip_conf.c **** //! contributors may be used to endorse or promote products derived 
  36:ioLibrary_Driver-master/Ethernet/wizchip_conf.c **** //! from this software without specific prior written permission. 
  37:ioLibrary_Driver-master/Ethernet/wizchip_conf.c **** //! 
  38:ioLibrary_Driver-master/Ethernet/wizchip_conf.c **** //! THIS SOFTWARE IS PROVIDED BY THE COPYRIGHT HOLDERS AND CONTRIBUTORS "AS IS"
  39:ioLibrary_Driver-master/Ethernet/wizchip_conf.c **** //! AND ANY EXPRESS OR IMPLIED WARRANTIES, INCLUDING, BUT NOT LIMITED TO, THE 
  40:ioLibrary_Driver-master/Ethernet/wizchip_conf.c **** //! IMPLIED WARRANTIES OF MERCHANTABILITY AND FITNESS FOR A PARTICULAR PURPOSE
  41:ioLibrary_Driver-master/Ethernet/wizchip_conf.c **** //! ARE DISCLAIMED. IN NO EVENT SHALL THE COPYRIGHT OWNER OR CONTRIBUTORS BE 
  42:ioLibrary_Driver-master/Ethernet/wizchip_conf.c **** //! LIABLE FOR ANY DIRECT, INDIRECT, INCIDENTAL, SPECIAL, EXEMPLARY, OR 
  43:ioLibrary_Driver-master/Ethernet/wizchip_conf.c **** //! CONSEQUENTIAL DAMAGES (INCLUDING, BUT NOT LIMITED TO, PROCUREMENT OF 
  44:ioLibrary_Driver-master/Ethernet/wizchip_conf.c **** //! SUBSTITUTE GOODS OR SERVICES; LOSS OF USE, DATA, OR PROFITS; OR BUSINESS
  45:ioLibrary_Driver-master/Ethernet/wizchip_conf.c **** //! INTERRUPTION) HOWEVER CAUSED AND ON ANY THEORY OF LIABILITY, WHETHER IN 
  46:ioLibrary_Driver-master/Ethernet/wizchip_conf.c **** //! CONTRACT, STRICT LIABILITY, OR TORT (INCLUDING NEGLIGENCE OR OTHERWISE) 
  47:ioLibrary_Driver-master/Ethernet/wizchip_conf.c **** //! ARISING IN ANY WAY OUT OF THE USE OF THIS SOFTWARE, EVEN IF ADVISED OF 
  48:ioLibrary_Driver-master/Ethernet/wizchip_conf.c **** //! THE POSSIBILITY OF SUCH DAMAGE.
  49:ioLibrary_Driver-master/Ethernet/wizchip_conf.c **** //
  50:ioLibrary_Driver-master/Ethernet/wizchip_conf.c **** //*****************************************************************************/
  51:ioLibrary_Driver-master/Ethernet/wizchip_conf.c **** //A20140501 : for use the type - ptrdiff_t
  52:ioLibrary_Driver-master/Ethernet/wizchip_conf.c **** #include <stddef.h>
  53:ioLibrary_Driver-master/Ethernet/wizchip_conf.c **** //
  54:ioLibrary_Driver-master/Ethernet/wizchip_conf.c **** 
  55:ioLibrary_Driver-master/Ethernet/wizchip_conf.c **** #include "wizchip_conf.h"
  56:ioLibrary_Driver-master/Ethernet/wizchip_conf.c **** 
  57:ioLibrary_Driver-master/Ethernet/wizchip_conf.c **** /////////////
  58:ioLibrary_Driver-master/Ethernet/wizchip_conf.c **** //M20150401 : Remove ; in the default callback function such as wizchip_cris_enter(), wizchip_cs_se
  59:ioLibrary_Driver-master/Ethernet/wizchip_conf.c **** /////////////
  60:ioLibrary_Driver-master/Ethernet/wizchip_conf.c **** 
  61:ioLibrary_Driver-master/Ethernet/wizchip_conf.c **** /**
  62:ioLibrary_Driver-master/Ethernet/wizchip_conf.c ****  * @brief Default function to enable interrupt.
  63:ioLibrary_Driver-master/Ethernet/wizchip_conf.c ****  * @note This function help not to access wrong address. If you do not describe this function or re
  64:ioLibrary_Driver-master/Ethernet/wizchip_conf.c ****  * null function is called.
  65:ioLibrary_Driver-master/Ethernet/wizchip_conf.c ****  */
  66:ioLibrary_Driver-master/Ethernet/wizchip_conf.c **** //void 	  wizchip_cris_enter(void)           {};
  67:ioLibrary_Driver-master/Ethernet/wizchip_conf.c **** void 	  wizchip_cris_enter(void)           {}
  27              		.loc 1 67 44 view -0
  28              		.cfi_startproc
  29              		@ args = 0, pretend = 0, frame = 0
  30              		@ frame_needed = 0, uses_anonymous_args = 0
  31              		@ link register save eliminated.
  32              		.loc 1 67 45 view .LVU1
  33 0000 7047     		bx	lr
  34              		.cfi_endproc
  35              	.LFE0:
  37              		.section	.text.wizchip_cris_exit,"ax",%progbits
  38              		.align	1
  39              		.global	wizchip_cris_exit
  40              		.syntax unified
  41              		.thumb
  42              		.thumb_func
  44              	wizchip_cris_exit:
  45              	.LFB1:
  68:ioLibrary_Driver-master/Ethernet/wizchip_conf.c **** 
  69:ioLibrary_Driver-master/Ethernet/wizchip_conf.c **** /**
  70:ioLibrary_Driver-master/Ethernet/wizchip_conf.c ****  * @brief Default function to disable interrupt.
  71:ioLibrary_Driver-master/Ethernet/wizchip_conf.c ****  * @note This function help not to access wrong address. If you do not describe this function or re
  72:ioLibrary_Driver-master/Ethernet/wizchip_conf.c ****  * null function is called.
ARM GAS  C:\Users\VIDCOM~1\AppData\Local\Temp\cciRpnMV.s 			page 3


  73:ioLibrary_Driver-master/Ethernet/wizchip_conf.c ****  */
  74:ioLibrary_Driver-master/Ethernet/wizchip_conf.c **** //void 	  wizchip_cris_exit(void)          {};
  75:ioLibrary_Driver-master/Ethernet/wizchip_conf.c **** void 	  wizchip_cris_exit(void)          {}
  46              		.loc 1 75 42 view -0
  47              		.cfi_startproc
  48              		@ args = 0, pretend = 0, frame = 0
  49              		@ frame_needed = 0, uses_anonymous_args = 0
  50              		@ link register save eliminated.
  51              		.loc 1 75 43 view .LVU3
  52 0000 7047     		bx	lr
  53              		.cfi_endproc
  54              	.LFE1:
  56              		.section	.text.wizchip_cs_select,"ax",%progbits
  57              		.align	1
  58              		.global	wizchip_cs_select
  59              		.syntax unified
  60              		.thumb
  61              		.thumb_func
  63              	wizchip_cs_select:
  64              	.LFB2:
  76:ioLibrary_Driver-master/Ethernet/wizchip_conf.c **** 
  77:ioLibrary_Driver-master/Ethernet/wizchip_conf.c **** /**
  78:ioLibrary_Driver-master/Ethernet/wizchip_conf.c ****  * @brief Default function to select chip.
  79:ioLibrary_Driver-master/Ethernet/wizchip_conf.c ****  * @note This function help not to access wrong address. If you do not describe this function or re
  80:ioLibrary_Driver-master/Ethernet/wizchip_conf.c ****  * null function is called.
  81:ioLibrary_Driver-master/Ethernet/wizchip_conf.c ****  */
  82:ioLibrary_Driver-master/Ethernet/wizchip_conf.c **** //void 	wizchip_cs_select(void)            {};
  83:ioLibrary_Driver-master/Ethernet/wizchip_conf.c **** void 	wizchip_cs_select(void)            {}
  65              		.loc 1 83 42 view -0
  66              		.cfi_startproc
  67              		@ args = 0, pretend = 0, frame = 0
  68              		@ frame_needed = 0, uses_anonymous_args = 0
  69              		@ link register save eliminated.
  70              		.loc 1 83 43 view .LVU5
  71 0000 7047     		bx	lr
  72              		.cfi_endproc
  73              	.LFE2:
  75              		.section	.text.wizchip_cs_deselect,"ax",%progbits
  76              		.align	1
  77              		.global	wizchip_cs_deselect
  78              		.syntax unified
  79              		.thumb
  80              		.thumb_func
  82              	wizchip_cs_deselect:
  83              	.LFB3:
  84:ioLibrary_Driver-master/Ethernet/wizchip_conf.c **** 
  85:ioLibrary_Driver-master/Ethernet/wizchip_conf.c **** /**
  86:ioLibrary_Driver-master/Ethernet/wizchip_conf.c ****  * @brief Default function to deselect chip.
  87:ioLibrary_Driver-master/Ethernet/wizchip_conf.c ****  * @note This function help not to access wrong address. If you do not describe this function or re
  88:ioLibrary_Driver-master/Ethernet/wizchip_conf.c ****  * null function is called.
  89:ioLibrary_Driver-master/Ethernet/wizchip_conf.c ****  */
  90:ioLibrary_Driver-master/Ethernet/wizchip_conf.c **** //void 	wizchip_cs_deselect(void)          {};
  91:ioLibrary_Driver-master/Ethernet/wizchip_conf.c **** void 	wizchip_cs_deselect(void)          {}
  84              		.loc 1 91 42 view -0
  85              		.cfi_startproc
  86              		@ args = 0, pretend = 0, frame = 0
  87              		@ frame_needed = 0, uses_anonymous_args = 0
ARM GAS  C:\Users\VIDCOM~1\AppData\Local\Temp\cciRpnMV.s 			page 4


  88              		@ link register save eliminated.
  89              		.loc 1 91 43 view .LVU7
  90 0000 7047     		bx	lr
  91              		.cfi_endproc
  92              	.LFE3:
  94              		.section	.text.wizchip_bus_readdata,"ax",%progbits
  95              		.align	1
  96              		.global	wizchip_bus_readdata
  97              		.syntax unified
  98              		.thumb
  99              		.thumb_func
 101              	wizchip_bus_readdata:
 102              	.LVL0:
 103              	.LFB4:
  92:ioLibrary_Driver-master/Ethernet/wizchip_conf.c **** 
  93:ioLibrary_Driver-master/Ethernet/wizchip_conf.c **** /**
  94:ioLibrary_Driver-master/Ethernet/wizchip_conf.c ****  * @brief Default function to read in direct or indirect interface.
  95:ioLibrary_Driver-master/Ethernet/wizchip_conf.c ****  * @note This function help not to access wrong address. If you do not describe this function or re
  96:ioLibrary_Driver-master/Ethernet/wizchip_conf.c ****  * null function is called.
  97:ioLibrary_Driver-master/Ethernet/wizchip_conf.c ****  */
  98:ioLibrary_Driver-master/Ethernet/wizchip_conf.c ****  //M20150601 : Rename the function for integrating with W5300
  99:ioLibrary_Driver-master/Ethernet/wizchip_conf.c **** //uint8_t wizchip_bus_readbyte(uint32_t AddrSel) { return * ((volatile uint8_t *)((ptrdiff_t) AddrS
 100:ioLibrary_Driver-master/Ethernet/wizchip_conf.c **** iodata_t wizchip_bus_readdata(uint32_t AddrSel) { return * ((volatile iodata_t *)((ptrdiff_t) AddrS
 104              		.loc 1 100 49 view -0
 105              		.cfi_startproc
 106              		@ args = 0, pretend = 0, frame = 0
 107              		@ frame_needed = 0, uses_anonymous_args = 0
 108              		@ link register save eliminated.
 109              		.loc 1 100 51 view .LVU9
 110              		.loc 1 100 58 is_stmt 0 view .LVU10
 111 0000 0078     		ldrb	r0, [r0]	@ zero_extendqisi2
 112              	.LVL1:
 113              		.loc 1 100 106 view .LVU11
 114 0002 7047     		bx	lr
 115              		.cfi_endproc
 116              	.LFE4:
 118              		.section	.text.wizchip_bus_writedata,"ax",%progbits
 119              		.align	1
 120              		.global	wizchip_bus_writedata
 121              		.syntax unified
 122              		.thumb
 123              		.thumb_func
 125              	wizchip_bus_writedata:
 126              	.LVL2:
 127              	.LFB5:
 101:ioLibrary_Driver-master/Ethernet/wizchip_conf.c **** 
 102:ioLibrary_Driver-master/Ethernet/wizchip_conf.c **** /**
 103:ioLibrary_Driver-master/Ethernet/wizchip_conf.c ****  * @brief Default function to write in direct or indirect interface.
 104:ioLibrary_Driver-master/Ethernet/wizchip_conf.c ****  * @note This function help not to access wrong address. If you do not describe this function or re
 105:ioLibrary_Driver-master/Ethernet/wizchip_conf.c ****  * null function is called.
 106:ioLibrary_Driver-master/Ethernet/wizchip_conf.c ****  */
 107:ioLibrary_Driver-master/Ethernet/wizchip_conf.c **** //M20150601 : Rename the function for integrating with W5300
 108:ioLibrary_Driver-master/Ethernet/wizchip_conf.c **** //void 	wizchip_bus_writebyte(uint32_t AddrSel, uint8_t wb)  { *((volatile uint8_t*)((ptrdiff_t)Add
 109:ioLibrary_Driver-master/Ethernet/wizchip_conf.c **** void 	wizchip_bus_writedata(uint32_t AddrSel, iodata_t wb)  { *((volatile iodata_t*)((ptrdiff_t)Add
 128              		.loc 1 109 61 is_stmt 1 view -0
 129              		.cfi_startproc
 130              		@ args = 0, pretend = 0, frame = 0
ARM GAS  C:\Users\VIDCOM~1\AppData\Local\Temp\cciRpnMV.s 			page 5


 131              		@ frame_needed = 0, uses_anonymous_args = 0
 132              		@ link register save eliminated.
 133              		.loc 1 109 63 view .LVU13
 134              		.loc 1 109 107 is_stmt 0 view .LVU14
 135 0000 0170     		strb	r1, [r0]
 136              		.loc 1 109 113 view .LVU15
 137 0002 7047     		bx	lr
 138              		.cfi_endproc
 139              	.LFE5:
 141              		.section	.text.wizchip_spi_readbyte,"ax",%progbits
 142              		.align	1
 143              		.global	wizchip_spi_readbyte
 144              		.syntax unified
 145              		.thumb
 146              		.thumb_func
 148              	wizchip_spi_readbyte:
 149              	.LFB6:
 110:ioLibrary_Driver-master/Ethernet/wizchip_conf.c **** 
 111:ioLibrary_Driver-master/Ethernet/wizchip_conf.c **** /**
 112:ioLibrary_Driver-master/Ethernet/wizchip_conf.c ****  * @brief Default function to read in SPI interface.
 113:ioLibrary_Driver-master/Ethernet/wizchip_conf.c ****  * @note This function help not to access wrong address. If you do not describe this function or re
 114:ioLibrary_Driver-master/Ethernet/wizchip_conf.c ****  * null function is called.
 115:ioLibrary_Driver-master/Ethernet/wizchip_conf.c ****  */
 116:ioLibrary_Driver-master/Ethernet/wizchip_conf.c **** //uint8_t wizchip_spi_readbyte(void)        {return 0;};
 117:ioLibrary_Driver-master/Ethernet/wizchip_conf.c **** uint8_t wizchip_spi_readbyte(void)        {return 0;}
 150              		.loc 1 117 43 is_stmt 1 view -0
 151              		.cfi_startproc
 152              		@ args = 0, pretend = 0, frame = 0
 153              		@ frame_needed = 0, uses_anonymous_args = 0
 154              		@ link register save eliminated.
 155              		.loc 1 117 44 view .LVU17
 156              		.loc 1 117 53 is_stmt 0 view .LVU18
 157 0000 0020     		movs	r0, #0
 158 0002 7047     		bx	lr
 159              		.cfi_endproc
 160              	.LFE6:
 162              		.section	.text.wizchip_spi_writebyte,"ax",%progbits
 163              		.align	1
 164              		.global	wizchip_spi_writebyte
 165              		.syntax unified
 166              		.thumb
 167              		.thumb_func
 169              	wizchip_spi_writebyte:
 170              	.LVL3:
 171              	.LFB7:
 118:ioLibrary_Driver-master/Ethernet/wizchip_conf.c **** 
 119:ioLibrary_Driver-master/Ethernet/wizchip_conf.c **** /**
 120:ioLibrary_Driver-master/Ethernet/wizchip_conf.c ****  * @brief Default function to write in SPI interface.
 121:ioLibrary_Driver-master/Ethernet/wizchip_conf.c ****  * @note This function help not to access wrong address. If you do not describe this function or re
 122:ioLibrary_Driver-master/Ethernet/wizchip_conf.c ****  * null function is called.
 123:ioLibrary_Driver-master/Ethernet/wizchip_conf.c ****  */
 124:ioLibrary_Driver-master/Ethernet/wizchip_conf.c **** //void 	wizchip_spi_writebyte(uint8_t wb) {};
 125:ioLibrary_Driver-master/Ethernet/wizchip_conf.c **** void 	wizchip_spi_writebyte(uint8_t wb) {}
 172              		.loc 1 125 41 is_stmt 1 view -0
 173              		.cfi_startproc
 174              		@ args = 0, pretend = 0, frame = 0
 175              		@ frame_needed = 0, uses_anonymous_args = 0
ARM GAS  C:\Users\VIDCOM~1\AppData\Local\Temp\cciRpnMV.s 			page 6


 176              		@ link register save eliminated.
 177              		.loc 1 125 42 view .LVU20
 178 0000 7047     		bx	lr
 179              		.cfi_endproc
 180              	.LFE7:
 182              		.section	.text.wizchip_spi_readburst,"ax",%progbits
 183              		.align	1
 184              		.global	wizchip_spi_readburst
 185              		.syntax unified
 186              		.thumb
 187              		.thumb_func
 189              	wizchip_spi_readburst:
 190              	.LVL4:
 191              	.LFB8:
 126:ioLibrary_Driver-master/Ethernet/wizchip_conf.c **** 
 127:ioLibrary_Driver-master/Ethernet/wizchip_conf.c **** /**
 128:ioLibrary_Driver-master/Ethernet/wizchip_conf.c ****  * @brief Default function to burst read in SPI interface.
 129:ioLibrary_Driver-master/Ethernet/wizchip_conf.c ****  * @note This function help not to access wrong address. If you do not describe this function or re
 130:ioLibrary_Driver-master/Ethernet/wizchip_conf.c ****  * null function is called.
 131:ioLibrary_Driver-master/Ethernet/wizchip_conf.c ****  */
 132:ioLibrary_Driver-master/Ethernet/wizchip_conf.c **** //void 	wizchip_spi_readburst(uint8_t* pBuf, uint16_t len) 	{}; 
 133:ioLibrary_Driver-master/Ethernet/wizchip_conf.c **** void 	wizchip_spi_readburst(uint8_t* pBuf, uint16_t len) 	{}
 192              		.loc 1 133 59 view -0
 193              		.cfi_startproc
 194              		@ args = 0, pretend = 0, frame = 0
 195              		@ frame_needed = 0, uses_anonymous_args = 0
 196              		@ link register save eliminated.
 197              		.loc 1 133 60 view .LVU22
 198 0000 7047     		bx	lr
 199              		.cfi_endproc
 200              	.LFE8:
 202              		.section	.text.wizchip_spi_writeburst,"ax",%progbits
 203              		.align	1
 204              		.global	wizchip_spi_writeburst
 205              		.syntax unified
 206              		.thumb
 207              		.thumb_func
 209              	wizchip_spi_writeburst:
 210              	.LVL5:
 211              	.LFB9:
 134:ioLibrary_Driver-master/Ethernet/wizchip_conf.c **** 
 135:ioLibrary_Driver-master/Ethernet/wizchip_conf.c **** /**
 136:ioLibrary_Driver-master/Ethernet/wizchip_conf.c ****  * @brief Default function to burst write in SPI interface.
 137:ioLibrary_Driver-master/Ethernet/wizchip_conf.c ****  * @note This function help not to access wrong address. If you do not describe this function or re
 138:ioLibrary_Driver-master/Ethernet/wizchip_conf.c ****  * null function is called.
 139:ioLibrary_Driver-master/Ethernet/wizchip_conf.c ****  */
 140:ioLibrary_Driver-master/Ethernet/wizchip_conf.c **** //void 	wizchip_spi_writeburst(uint8_t* pBuf, uint16_t len) {};
 141:ioLibrary_Driver-master/Ethernet/wizchip_conf.c **** void 	wizchip_spi_writeburst(uint8_t* pBuf, uint16_t len) {}
 212              		.loc 1 141 59 view -0
 213              		.cfi_startproc
 214              		@ args = 0, pretend = 0, frame = 0
 215              		@ frame_needed = 0, uses_anonymous_args = 0
 216              		@ link register save eliminated.
 217              		.loc 1 141 60 view .LVU24
 218 0000 7047     		bx	lr
 219              		.cfi_endproc
 220              	.LFE9:
ARM GAS  C:\Users\VIDCOM~1\AppData\Local\Temp\cciRpnMV.s 			page 7


 222              		.section	.text.reg_wizchip_cris_cbfunc,"ax",%progbits
 223              		.align	1
 224              		.global	reg_wizchip_cris_cbfunc
 225              		.syntax unified
 226              		.thumb
 227              		.thumb_func
 229              	reg_wizchip_cris_cbfunc:
 230              	.LVL6:
 231              	.LFB10:
 142:ioLibrary_Driver-master/Ethernet/wizchip_conf.c **** 
 143:ioLibrary_Driver-master/Ethernet/wizchip_conf.c **** /**
 144:ioLibrary_Driver-master/Ethernet/wizchip_conf.c ****  * @\ref _WIZCHIP instance
 145:ioLibrary_Driver-master/Ethernet/wizchip_conf.c ****  */
 146:ioLibrary_Driver-master/Ethernet/wizchip_conf.c **** //
 147:ioLibrary_Driver-master/Ethernet/wizchip_conf.c **** //M20150401 : For a compiler didnot support a member of structure
 148:ioLibrary_Driver-master/Ethernet/wizchip_conf.c **** //            Replace the assignment of struct members with the assingment of array
 149:ioLibrary_Driver-master/Ethernet/wizchip_conf.c **** //
 150:ioLibrary_Driver-master/Ethernet/wizchip_conf.c **** /*
 151:ioLibrary_Driver-master/Ethernet/wizchip_conf.c **** _WIZCHIP  WIZCHIP =
 152:ioLibrary_Driver-master/Ethernet/wizchip_conf.c ****       {
 153:ioLibrary_Driver-master/Ethernet/wizchip_conf.c ****       .id                  = _WIZCHIP_ID_,
 154:ioLibrary_Driver-master/Ethernet/wizchip_conf.c ****       .if_mode             = _WIZCHIP_IO_MODE_,
 155:ioLibrary_Driver-master/Ethernet/wizchip_conf.c ****       .CRIS._enter         = wizchip_cris_enter,
 156:ioLibrary_Driver-master/Ethernet/wizchip_conf.c ****       .CRIS._exit          = wizchip_cris_exit,
 157:ioLibrary_Driver-master/Ethernet/wizchip_conf.c ****       .CS._select          = wizchip_cs_select,
 158:ioLibrary_Driver-master/Ethernet/wizchip_conf.c ****       .CS._deselect        = wizchip_cs_deselect,
 159:ioLibrary_Driver-master/Ethernet/wizchip_conf.c ****       .IF.BUS._read_byte   = wizchip_bus_readbyte,
 160:ioLibrary_Driver-master/Ethernet/wizchip_conf.c ****       .IF.BUS._write_byte  = wizchip_bus_writebyte
 161:ioLibrary_Driver-master/Ethernet/wizchip_conf.c **** //    .IF.SPI._read_byte   = wizchip_spi_readbyte,
 162:ioLibrary_Driver-master/Ethernet/wizchip_conf.c **** //    .IF.SPI._write_byte  = wizchip_spi_writebyte
 163:ioLibrary_Driver-master/Ethernet/wizchip_conf.c ****       };
 164:ioLibrary_Driver-master/Ethernet/wizchip_conf.c **** */      
 165:ioLibrary_Driver-master/Ethernet/wizchip_conf.c **** _WIZCHIP  WIZCHIP =
 166:ioLibrary_Driver-master/Ethernet/wizchip_conf.c **** {
 167:ioLibrary_Driver-master/Ethernet/wizchip_conf.c ****     _WIZCHIP_IO_MODE_,
 168:ioLibrary_Driver-master/Ethernet/wizchip_conf.c ****     _WIZCHIP_ID_ ,
 169:ioLibrary_Driver-master/Ethernet/wizchip_conf.c ****     {
 170:ioLibrary_Driver-master/Ethernet/wizchip_conf.c ****         wizchip_cris_enter,
 171:ioLibrary_Driver-master/Ethernet/wizchip_conf.c ****         wizchip_cris_exit
 172:ioLibrary_Driver-master/Ethernet/wizchip_conf.c ****     },
 173:ioLibrary_Driver-master/Ethernet/wizchip_conf.c ****     {
 174:ioLibrary_Driver-master/Ethernet/wizchip_conf.c ****         wizchip_cs_select,
 175:ioLibrary_Driver-master/Ethernet/wizchip_conf.c ****         wizchip_cs_deselect
 176:ioLibrary_Driver-master/Ethernet/wizchip_conf.c ****     },
 177:ioLibrary_Driver-master/Ethernet/wizchip_conf.c ****     {
 178:ioLibrary_Driver-master/Ethernet/wizchip_conf.c ****         {
 179:ioLibrary_Driver-master/Ethernet/wizchip_conf.c ****             //M20150601 : Rename the function 
 180:ioLibrary_Driver-master/Ethernet/wizchip_conf.c ****             //wizchip_bus_readbyte,
 181:ioLibrary_Driver-master/Ethernet/wizchip_conf.c ****             //wizchip_bus_writebyte
 182:ioLibrary_Driver-master/Ethernet/wizchip_conf.c ****             wizchip_bus_readdata,
 183:ioLibrary_Driver-master/Ethernet/wizchip_conf.c ****             wizchip_bus_writedata
 184:ioLibrary_Driver-master/Ethernet/wizchip_conf.c ****         },
 185:ioLibrary_Driver-master/Ethernet/wizchip_conf.c **** 
 186:ioLibrary_Driver-master/Ethernet/wizchip_conf.c ****     }
 187:ioLibrary_Driver-master/Ethernet/wizchip_conf.c **** };
 188:ioLibrary_Driver-master/Ethernet/wizchip_conf.c **** 
 189:ioLibrary_Driver-master/Ethernet/wizchip_conf.c **** 
ARM GAS  C:\Users\VIDCOM~1\AppData\Local\Temp\cciRpnMV.s 			page 8


 190:ioLibrary_Driver-master/Ethernet/wizchip_conf.c **** static uint8_t    _DNS_[4];      // DNS server ip address
 191:ioLibrary_Driver-master/Ethernet/wizchip_conf.c **** static dhcp_mode  _DHCP_;        // DHCP mode
 192:ioLibrary_Driver-master/Ethernet/wizchip_conf.c **** 
 193:ioLibrary_Driver-master/Ethernet/wizchip_conf.c **** void reg_wizchip_cris_cbfunc(void(*cris_en)(void), void(*cris_ex)(void))
 194:ioLibrary_Driver-master/Ethernet/wizchip_conf.c **** {
 232              		.loc 1 194 1 view -0
 233              		.cfi_startproc
 234              		@ args = 0, pretend = 0, frame = 0
 235              		@ frame_needed = 0, uses_anonymous_args = 0
 236              		@ link register save eliminated.
 195:ioLibrary_Driver-master/Ethernet/wizchip_conf.c ****    if(!cris_en || !cris_ex)
 237              		.loc 1 195 4 view .LVU26
 238              		.loc 1 195 6 is_stmt 0 view .LVU27
 239 0000 20B1     		cbz	r0, .L12
 240              		.loc 1 195 16 discriminator 1 view .LVU28
 241 0002 19B1     		cbz	r1, .L12
 196:ioLibrary_Driver-master/Ethernet/wizchip_conf.c ****    {
 197:ioLibrary_Driver-master/Ethernet/wizchip_conf.c ****       WIZCHIP.CRIS._enter = wizchip_cris_enter;
 198:ioLibrary_Driver-master/Ethernet/wizchip_conf.c ****       WIZCHIP.CRIS._exit  = wizchip_cris_exit;
 199:ioLibrary_Driver-master/Ethernet/wizchip_conf.c ****    }
 200:ioLibrary_Driver-master/Ethernet/wizchip_conf.c ****    else
 201:ioLibrary_Driver-master/Ethernet/wizchip_conf.c ****    {
 202:ioLibrary_Driver-master/Ethernet/wizchip_conf.c ****       WIZCHIP.CRIS._enter = cris_en;
 242              		.loc 1 202 7 is_stmt 1 view .LVU29
 243              		.loc 1 202 27 is_stmt 0 view .LVU30
 244 0004 044A     		ldr	r2, .L15
 245 0006 D060     		str	r0, [r2, #12]
 203:ioLibrary_Driver-master/Ethernet/wizchip_conf.c ****       WIZCHIP.CRIS._exit  = cris_ex;
 246              		.loc 1 203 7 is_stmt 1 view .LVU31
 247              		.loc 1 203 27 is_stmt 0 view .LVU32
 248 0008 1161     		str	r1, [r2, #16]
 204:ioLibrary_Driver-master/Ethernet/wizchip_conf.c ****    }
 205:ioLibrary_Driver-master/Ethernet/wizchip_conf.c **** }
 249              		.loc 1 205 1 view .LVU33
 250 000a 7047     		bx	lr
 251              	.L12:
 197:ioLibrary_Driver-master/Ethernet/wizchip_conf.c ****       WIZCHIP.CRIS._exit  = wizchip_cris_exit;
 252              		.loc 1 197 7 is_stmt 1 view .LVU34
 197:ioLibrary_Driver-master/Ethernet/wizchip_conf.c ****       WIZCHIP.CRIS._exit  = wizchip_cris_exit;
 253              		.loc 1 197 27 is_stmt 0 view .LVU35
 254 000c 024B     		ldr	r3, .L15
 255 000e 034A     		ldr	r2, .L15+4
 256 0010 DA60     		str	r2, [r3, #12]
 198:ioLibrary_Driver-master/Ethernet/wizchip_conf.c ****    }
 257              		.loc 1 198 7 is_stmt 1 view .LVU36
 198:ioLibrary_Driver-master/Ethernet/wizchip_conf.c ****    }
 258              		.loc 1 198 27 is_stmt 0 view .LVU37
 259 0012 034A     		ldr	r2, .L15+8
 260 0014 1A61     		str	r2, [r3, #16]
 261 0016 7047     		bx	lr
 262              	.L16:
 263              		.align	2
 264              	.L15:
 265 0018 00000000 		.word	WIZCHIP
 266 001c 00000000 		.word	wizchip_cris_enter
 267 0020 00000000 		.word	wizchip_cris_exit
 268              		.cfi_endproc
ARM GAS  C:\Users\VIDCOM~1\AppData\Local\Temp\cciRpnMV.s 			page 9


 269              	.LFE10:
 271              		.section	.text.reg_wizchip_cs_cbfunc,"ax",%progbits
 272              		.align	1
 273              		.global	reg_wizchip_cs_cbfunc
 274              		.syntax unified
 275              		.thumb
 276              		.thumb_func
 278              	reg_wizchip_cs_cbfunc:
 279              	.LVL7:
 280              	.LFB11:
 206:ioLibrary_Driver-master/Ethernet/wizchip_conf.c **** 
 207:ioLibrary_Driver-master/Ethernet/wizchip_conf.c **** void reg_wizchip_cs_cbfunc(void(*cs_sel)(void), void(*cs_desel)(void))
 208:ioLibrary_Driver-master/Ethernet/wizchip_conf.c **** {
 281              		.loc 1 208 1 is_stmt 1 view -0
 282              		.cfi_startproc
 283              		@ args = 0, pretend = 0, frame = 0
 284              		@ frame_needed = 0, uses_anonymous_args = 0
 285              		@ link register save eliminated.
 209:ioLibrary_Driver-master/Ethernet/wizchip_conf.c ****    if(!cs_sel || !cs_desel)
 286              		.loc 1 209 4 view .LVU39
 287              		.loc 1 209 6 is_stmt 0 view .LVU40
 288 0000 20B1     		cbz	r0, .L18
 289              		.loc 1 209 15 discriminator 1 view .LVU41
 290 0002 19B1     		cbz	r1, .L18
 210:ioLibrary_Driver-master/Ethernet/wizchip_conf.c ****    {
 211:ioLibrary_Driver-master/Ethernet/wizchip_conf.c ****       WIZCHIP.CS._select   = wizchip_cs_select;
 212:ioLibrary_Driver-master/Ethernet/wizchip_conf.c ****       WIZCHIP.CS._deselect = wizchip_cs_deselect;
 213:ioLibrary_Driver-master/Ethernet/wizchip_conf.c ****    }
 214:ioLibrary_Driver-master/Ethernet/wizchip_conf.c ****    else
 215:ioLibrary_Driver-master/Ethernet/wizchip_conf.c ****    {
 216:ioLibrary_Driver-master/Ethernet/wizchip_conf.c ****       WIZCHIP.CS._select   = cs_sel;
 291              		.loc 1 216 7 is_stmt 1 view .LVU42
 292              		.loc 1 216 28 is_stmt 0 view .LVU43
 293 0004 044A     		ldr	r2, .L21
 294 0006 5061     		str	r0, [r2, #20]
 217:ioLibrary_Driver-master/Ethernet/wizchip_conf.c ****       WIZCHIP.CS._deselect = cs_desel;
 295              		.loc 1 217 7 is_stmt 1 view .LVU44
 296              		.loc 1 217 28 is_stmt 0 view .LVU45
 297 0008 9161     		str	r1, [r2, #24]
 218:ioLibrary_Driver-master/Ethernet/wizchip_conf.c ****    }
 219:ioLibrary_Driver-master/Ethernet/wizchip_conf.c **** }
 298              		.loc 1 219 1 view .LVU46
 299 000a 7047     		bx	lr
 300              	.L18:
 211:ioLibrary_Driver-master/Ethernet/wizchip_conf.c ****       WIZCHIP.CS._deselect = wizchip_cs_deselect;
 301              		.loc 1 211 7 is_stmt 1 view .LVU47
 211:ioLibrary_Driver-master/Ethernet/wizchip_conf.c ****       WIZCHIP.CS._deselect = wizchip_cs_deselect;
 302              		.loc 1 211 28 is_stmt 0 view .LVU48
 303 000c 024B     		ldr	r3, .L21
 304 000e 034A     		ldr	r2, .L21+4
 305 0010 5A61     		str	r2, [r3, #20]
 212:ioLibrary_Driver-master/Ethernet/wizchip_conf.c ****    }
 306              		.loc 1 212 7 is_stmt 1 view .LVU49
 212:ioLibrary_Driver-master/Ethernet/wizchip_conf.c ****    }
 307              		.loc 1 212 28 is_stmt 0 view .LVU50
 308 0012 034A     		ldr	r2, .L21+8
 309 0014 9A61     		str	r2, [r3, #24]
ARM GAS  C:\Users\VIDCOM~1\AppData\Local\Temp\cciRpnMV.s 			page 10


 310 0016 7047     		bx	lr
 311              	.L22:
 312              		.align	2
 313              	.L21:
 314 0018 00000000 		.word	WIZCHIP
 315 001c 00000000 		.word	wizchip_cs_select
 316 0020 00000000 		.word	wizchip_cs_deselect
 317              		.cfi_endproc
 318              	.LFE11:
 320              		.section	.text.reg_wizchip_bus_cbfunc,"ax",%progbits
 321              		.align	1
 322              		.global	reg_wizchip_bus_cbfunc
 323              		.syntax unified
 324              		.thumb
 325              		.thumb_func
 327              	reg_wizchip_bus_cbfunc:
 328              	.LFB12:
 220:ioLibrary_Driver-master/Ethernet/wizchip_conf.c **** 
 221:ioLibrary_Driver-master/Ethernet/wizchip_conf.c **** //M20150515 : For integrating with W5300
 222:ioLibrary_Driver-master/Ethernet/wizchip_conf.c **** //void reg_wizchip_bus_cbfunc(uint8_t(*bus_rb)(uint32_t addr), void (*bus_wb)(uint32_t addr, uint8_
 223:ioLibrary_Driver-master/Ethernet/wizchip_conf.c **** void reg_wizchip_bus_cbfunc(iodata_t(*bus_rb)(uint32_t addr), void (*bus_wb)(uint32_t addr, iodata_
 224:ioLibrary_Driver-master/Ethernet/wizchip_conf.c **** {
 329              		.loc 1 224 1 is_stmt 1 view -0
 330              		.cfi_startproc
 331              		@ args = 0, pretend = 0, frame = 0
 332              		@ frame_needed = 0, uses_anonymous_args = 0
 333              		@ link register save eliminated.
 334              	.LVL8:
 335              	.L24:
 225:ioLibrary_Driver-master/Ethernet/wizchip_conf.c ****    while(!(WIZCHIP.if_mode & _WIZCHIP_IO_MODE_BUS_));
 336              		.loc 1 225 10 discriminator 1 view .LVU52
 337              		.loc 1 225 19 is_stmt 0 discriminator 1 view .LVU53
 338 0000 084B     		ldr	r3, .L28
 339 0002 1B88     		ldrh	r3, [r3]
 340              		.loc 1 225 10 discriminator 1 view .LVU54
 341 0004 13F4807F 		tst	r3, #256
 342 0008 FAD0     		beq	.L24
 226:ioLibrary_Driver-master/Ethernet/wizchip_conf.c ****    //M20150601 : Rename call back function for integrating with W5300
 227:ioLibrary_Driver-master/Ethernet/wizchip_conf.c ****    /*
 228:ioLibrary_Driver-master/Ethernet/wizchip_conf.c ****    if(!bus_rb || !bus_wb)
 229:ioLibrary_Driver-master/Ethernet/wizchip_conf.c ****    {
 230:ioLibrary_Driver-master/Ethernet/wizchip_conf.c ****       WIZCHIP.IF.BUS._read_byte   = wizchip_bus_readbyte;
 231:ioLibrary_Driver-master/Ethernet/wizchip_conf.c ****       WIZCHIP.IF.BUS._write_byte  = wizchip_bus_writebyte;
 232:ioLibrary_Driver-master/Ethernet/wizchip_conf.c ****    }
 233:ioLibrary_Driver-master/Ethernet/wizchip_conf.c ****    else
 234:ioLibrary_Driver-master/Ethernet/wizchip_conf.c ****    {
 235:ioLibrary_Driver-master/Ethernet/wizchip_conf.c ****       WIZCHIP.IF.BUS._read_byte   = bus_rb;
 236:ioLibrary_Driver-master/Ethernet/wizchip_conf.c ****       WIZCHIP.IF.BUS._write_byte  = bus_wb;
 237:ioLibrary_Driver-master/Ethernet/wizchip_conf.c ****    }
 238:ioLibrary_Driver-master/Ethernet/wizchip_conf.c ****    */
 239:ioLibrary_Driver-master/Ethernet/wizchip_conf.c ****    if(!bus_rb || !bus_wb)
 343              		.loc 1 239 4 is_stmt 1 view .LVU55
 344              		.loc 1 239 6 is_stmt 0 view .LVU56
 345 000a 20B1     		cbz	r0, .L25
 346              		.loc 1 239 15 discriminator 1 view .LVU57
 347 000c 19B1     		cbz	r1, .L25
 240:ioLibrary_Driver-master/Ethernet/wizchip_conf.c ****    {
ARM GAS  C:\Users\VIDCOM~1\AppData\Local\Temp\cciRpnMV.s 			page 11


 241:ioLibrary_Driver-master/Ethernet/wizchip_conf.c ****       WIZCHIP.IF.BUS._read_data   = wizchip_bus_readdata;
 242:ioLibrary_Driver-master/Ethernet/wizchip_conf.c ****       WIZCHIP.IF.BUS._write_data  = wizchip_bus_writedata;
 243:ioLibrary_Driver-master/Ethernet/wizchip_conf.c ****    }
 244:ioLibrary_Driver-master/Ethernet/wizchip_conf.c ****    else
 245:ioLibrary_Driver-master/Ethernet/wizchip_conf.c ****    {
 246:ioLibrary_Driver-master/Ethernet/wizchip_conf.c ****       WIZCHIP.IF.BUS._read_data   = bus_rb;
 348              		.loc 1 246 7 is_stmt 1 view .LVU58
 349              		.loc 1 246 35 is_stmt 0 view .LVU59
 350 000e 054B     		ldr	r3, .L28
 351 0010 D861     		str	r0, [r3, #28]
 247:ioLibrary_Driver-master/Ethernet/wizchip_conf.c ****       WIZCHIP.IF.BUS._write_data  = bus_wb;
 352              		.loc 1 247 7 is_stmt 1 view .LVU60
 353              		.loc 1 247 35 is_stmt 0 view .LVU61
 354 0012 1962     		str	r1, [r3, #32]
 248:ioLibrary_Driver-master/Ethernet/wizchip_conf.c ****    }
 249:ioLibrary_Driver-master/Ethernet/wizchip_conf.c **** }
 355              		.loc 1 249 1 view .LVU62
 356 0014 7047     		bx	lr
 357              	.L25:
 241:ioLibrary_Driver-master/Ethernet/wizchip_conf.c ****       WIZCHIP.IF.BUS._write_data  = wizchip_bus_writedata;
 358              		.loc 1 241 7 is_stmt 1 view .LVU63
 241:ioLibrary_Driver-master/Ethernet/wizchip_conf.c ****       WIZCHIP.IF.BUS._write_data  = wizchip_bus_writedata;
 359              		.loc 1 241 35 is_stmt 0 view .LVU64
 360 0016 034B     		ldr	r3, .L28
 361 0018 034A     		ldr	r2, .L28+4
 362 001a DA61     		str	r2, [r3, #28]
 242:ioLibrary_Driver-master/Ethernet/wizchip_conf.c ****    }
 363              		.loc 1 242 7 is_stmt 1 view .LVU65
 242:ioLibrary_Driver-master/Ethernet/wizchip_conf.c ****    }
 364              		.loc 1 242 35 is_stmt 0 view .LVU66
 365 001c 034A     		ldr	r2, .L28+8
 366 001e 1A62     		str	r2, [r3, #32]
 367 0020 7047     		bx	lr
 368              	.L29:
 369 0022 00BF     		.align	2
 370              	.L28:
 371 0024 00000000 		.word	WIZCHIP
 372 0028 00000000 		.word	wizchip_bus_readdata
 373 002c 00000000 		.word	wizchip_bus_writedata
 374              		.cfi_endproc
 375              	.LFE12:
 377              		.section	.text.reg_wizchip_spi_cbfunc,"ax",%progbits
 378              		.align	1
 379              		.global	reg_wizchip_spi_cbfunc
 380              		.syntax unified
 381              		.thumb
 382              		.thumb_func
 384              	reg_wizchip_spi_cbfunc:
 385              	.LFB13:
 250:ioLibrary_Driver-master/Ethernet/wizchip_conf.c **** 
 251:ioLibrary_Driver-master/Ethernet/wizchip_conf.c **** void reg_wizchip_spi_cbfunc(uint8_t (*spi_rb)(void), void (*spi_wb)(uint8_t wb))
 252:ioLibrary_Driver-master/Ethernet/wizchip_conf.c **** {
 386              		.loc 1 252 1 is_stmt 1 view -0
 387              		.cfi_startproc
 388              		@ args = 0, pretend = 0, frame = 0
 389              		@ frame_needed = 0, uses_anonymous_args = 0
 390              		@ link register save eliminated.
ARM GAS  C:\Users\VIDCOM~1\AppData\Local\Temp\cciRpnMV.s 			page 12


 391              	.LVL9:
 392              	.L31:
 253:ioLibrary_Driver-master/Ethernet/wizchip_conf.c ****    while(!(WIZCHIP.if_mode & _WIZCHIP_IO_MODE_SPI_));
 393              		.loc 1 253 10 discriminator 1 view .LVU68
 394              		.loc 1 253 19 is_stmt 0 discriminator 1 view .LVU69
 395 0000 084B     		ldr	r3, .L35
 396 0002 1B88     		ldrh	r3, [r3]
 397              		.loc 1 253 10 discriminator 1 view .LVU70
 398 0004 13F4007F 		tst	r3, #512
 399 0008 FAD0     		beq	.L31
 254:ioLibrary_Driver-master/Ethernet/wizchip_conf.c ****    
 255:ioLibrary_Driver-master/Ethernet/wizchip_conf.c ****    if(!spi_rb || !spi_wb)
 400              		.loc 1 255 4 is_stmt 1 view .LVU71
 401              		.loc 1 255 6 is_stmt 0 view .LVU72
 402 000a 20B1     		cbz	r0, .L32
 403              		.loc 1 255 15 discriminator 1 view .LVU73
 404 000c 19B1     		cbz	r1, .L32
 256:ioLibrary_Driver-master/Ethernet/wizchip_conf.c ****    {
 257:ioLibrary_Driver-master/Ethernet/wizchip_conf.c ****       WIZCHIP.IF.SPI._read_byte   = wizchip_spi_readbyte;
 258:ioLibrary_Driver-master/Ethernet/wizchip_conf.c ****       WIZCHIP.IF.SPI._write_byte  = wizchip_spi_writebyte;
 259:ioLibrary_Driver-master/Ethernet/wizchip_conf.c ****    }
 260:ioLibrary_Driver-master/Ethernet/wizchip_conf.c ****    else
 261:ioLibrary_Driver-master/Ethernet/wizchip_conf.c ****    {
 262:ioLibrary_Driver-master/Ethernet/wizchip_conf.c ****       WIZCHIP.IF.SPI._read_byte   = spi_rb;
 405              		.loc 1 262 7 is_stmt 1 view .LVU74
 406              		.loc 1 262 35 is_stmt 0 view .LVU75
 407 000e 054B     		ldr	r3, .L35
 408 0010 D861     		str	r0, [r3, #28]
 263:ioLibrary_Driver-master/Ethernet/wizchip_conf.c ****       WIZCHIP.IF.SPI._write_byte  = spi_wb;
 409              		.loc 1 263 7 is_stmt 1 view .LVU76
 410              		.loc 1 263 35 is_stmt 0 view .LVU77
 411 0012 1962     		str	r1, [r3, #32]
 264:ioLibrary_Driver-master/Ethernet/wizchip_conf.c ****    }
 265:ioLibrary_Driver-master/Ethernet/wizchip_conf.c **** }
 412              		.loc 1 265 1 view .LVU78
 413 0014 7047     		bx	lr
 414              	.L32:
 257:ioLibrary_Driver-master/Ethernet/wizchip_conf.c ****       WIZCHIP.IF.SPI._write_byte  = wizchip_spi_writebyte;
 415              		.loc 1 257 7 is_stmt 1 view .LVU79
 257:ioLibrary_Driver-master/Ethernet/wizchip_conf.c ****       WIZCHIP.IF.SPI._write_byte  = wizchip_spi_writebyte;
 416              		.loc 1 257 35 is_stmt 0 view .LVU80
 417 0016 034B     		ldr	r3, .L35
 418 0018 034A     		ldr	r2, .L35+4
 419 001a DA61     		str	r2, [r3, #28]
 258:ioLibrary_Driver-master/Ethernet/wizchip_conf.c ****    }
 420              		.loc 1 258 7 is_stmt 1 view .LVU81
 258:ioLibrary_Driver-master/Ethernet/wizchip_conf.c ****    }
 421              		.loc 1 258 35 is_stmt 0 view .LVU82
 422 001c 034A     		ldr	r2, .L35+8
 423 001e 1A62     		str	r2, [r3, #32]
 424 0020 7047     		bx	lr
 425              	.L36:
 426 0022 00BF     		.align	2
 427              	.L35:
 428 0024 00000000 		.word	WIZCHIP
 429 0028 00000000 		.word	wizchip_spi_readbyte
 430 002c 00000000 		.word	wizchip_spi_writebyte
ARM GAS  C:\Users\VIDCOM~1\AppData\Local\Temp\cciRpnMV.s 			page 13


 431              		.cfi_endproc
 432              	.LFE13:
 434              		.section	.text.reg_wizchip_spiburst_cbfunc,"ax",%progbits
 435              		.align	1
 436              		.global	reg_wizchip_spiburst_cbfunc
 437              		.syntax unified
 438              		.thumb
 439              		.thumb_func
 441              	reg_wizchip_spiburst_cbfunc:
 442              	.LFB14:
 266:ioLibrary_Driver-master/Ethernet/wizchip_conf.c **** 
 267:ioLibrary_Driver-master/Ethernet/wizchip_conf.c **** // 20140626 Eric Added for SPI burst operations
 268:ioLibrary_Driver-master/Ethernet/wizchip_conf.c **** void reg_wizchip_spiburst_cbfunc(void (*spi_rb)(uint8_t* pBuf, uint16_t len), void (*spi_wb)(uint8_
 269:ioLibrary_Driver-master/Ethernet/wizchip_conf.c **** {
 443              		.loc 1 269 1 is_stmt 1 view -0
 444              		.cfi_startproc
 445              		@ args = 0, pretend = 0, frame = 0
 446              		@ frame_needed = 0, uses_anonymous_args = 0
 447              		@ link register save eliminated.
 448              	.LVL10:
 449              	.L38:
 270:ioLibrary_Driver-master/Ethernet/wizchip_conf.c ****    while(!(WIZCHIP.if_mode & _WIZCHIP_IO_MODE_SPI_));
 450              		.loc 1 270 10 discriminator 1 view .LVU84
 451              		.loc 1 270 19 is_stmt 0 discriminator 1 view .LVU85
 452 0000 084B     		ldr	r3, .L42
 453 0002 1B88     		ldrh	r3, [r3]
 454              		.loc 1 270 10 discriminator 1 view .LVU86
 455 0004 13F4007F 		tst	r3, #512
 456 0008 FAD0     		beq	.L38
 271:ioLibrary_Driver-master/Ethernet/wizchip_conf.c **** 
 272:ioLibrary_Driver-master/Ethernet/wizchip_conf.c ****    if(!spi_rb || !spi_wb)
 457              		.loc 1 272 4 is_stmt 1 view .LVU87
 458              		.loc 1 272 6 is_stmt 0 view .LVU88
 459 000a 20B1     		cbz	r0, .L39
 460              		.loc 1 272 15 discriminator 1 view .LVU89
 461 000c 19B1     		cbz	r1, .L39
 273:ioLibrary_Driver-master/Ethernet/wizchip_conf.c ****    {
 274:ioLibrary_Driver-master/Ethernet/wizchip_conf.c ****       WIZCHIP.IF.SPI._read_burst   = wizchip_spi_readburst;
 275:ioLibrary_Driver-master/Ethernet/wizchip_conf.c ****       WIZCHIP.IF.SPI._write_burst  = wizchip_spi_writeburst;
 276:ioLibrary_Driver-master/Ethernet/wizchip_conf.c ****    }
 277:ioLibrary_Driver-master/Ethernet/wizchip_conf.c ****    else
 278:ioLibrary_Driver-master/Ethernet/wizchip_conf.c ****    {
 279:ioLibrary_Driver-master/Ethernet/wizchip_conf.c ****       WIZCHIP.IF.SPI._read_burst   = spi_rb;
 462              		.loc 1 279 7 is_stmt 1 view .LVU90
 463              		.loc 1 279 36 is_stmt 0 view .LVU91
 464 000e 054B     		ldr	r3, .L42
 465 0010 5862     		str	r0, [r3, #36]
 280:ioLibrary_Driver-master/Ethernet/wizchip_conf.c ****       WIZCHIP.IF.SPI._write_burst  = spi_wb;
 466              		.loc 1 280 7 is_stmt 1 view .LVU92
 467              		.loc 1 280 36 is_stmt 0 view .LVU93
 468 0012 9962     		str	r1, [r3, #40]
 281:ioLibrary_Driver-master/Ethernet/wizchip_conf.c ****    }
 282:ioLibrary_Driver-master/Ethernet/wizchip_conf.c **** }
 469              		.loc 1 282 1 view .LVU94
 470 0014 7047     		bx	lr
 471              	.L39:
 274:ioLibrary_Driver-master/Ethernet/wizchip_conf.c ****       WIZCHIP.IF.SPI._write_burst  = wizchip_spi_writeburst;
ARM GAS  C:\Users\VIDCOM~1\AppData\Local\Temp\cciRpnMV.s 			page 14


 472              		.loc 1 274 7 is_stmt 1 view .LVU95
 274:ioLibrary_Driver-master/Ethernet/wizchip_conf.c ****       WIZCHIP.IF.SPI._write_burst  = wizchip_spi_writeburst;
 473              		.loc 1 274 36 is_stmt 0 view .LVU96
 474 0016 034B     		ldr	r3, .L42
 475 0018 034A     		ldr	r2, .L42+4
 476 001a 5A62     		str	r2, [r3, #36]
 275:ioLibrary_Driver-master/Ethernet/wizchip_conf.c ****    }
 477              		.loc 1 275 7 is_stmt 1 view .LVU97
 275:ioLibrary_Driver-master/Ethernet/wizchip_conf.c ****    }
 478              		.loc 1 275 36 is_stmt 0 view .LVU98
 479 001c 034A     		ldr	r2, .L42+8
 480 001e 9A62     		str	r2, [r3, #40]
 481 0020 7047     		bx	lr
 482              	.L43:
 483 0022 00BF     		.align	2
 484              	.L42:
 485 0024 00000000 		.word	WIZCHIP
 486 0028 00000000 		.word	wizchip_spi_readburst
 487 002c 00000000 		.word	wizchip_spi_writeburst
 488              		.cfi_endproc
 489              	.LFE14:
 491              		.section	.text.wizchip_sw_reset,"ax",%progbits
 492              		.align	1
 493              		.global	wizchip_sw_reset
 494              		.syntax unified
 495              		.thumb
 496              		.thumb_func
 498              	wizchip_sw_reset:
 499              	.LFB17:
 283:ioLibrary_Driver-master/Ethernet/wizchip_conf.c **** 
 284:ioLibrary_Driver-master/Ethernet/wizchip_conf.c **** int8_t ctlwizchip(ctlwizchip_type cwtype, void* arg)
 285:ioLibrary_Driver-master/Ethernet/wizchip_conf.c **** {
 286:ioLibrary_Driver-master/Ethernet/wizchip_conf.c **** #if	_WIZCHIP_ == W5100S || _WIZCHIP_ == W5200 || _WIZCHIP_ == W5500
 287:ioLibrary_Driver-master/Ethernet/wizchip_conf.c ****    uint8_t tmp = 0;
 288:ioLibrary_Driver-master/Ethernet/wizchip_conf.c **** #endif
 289:ioLibrary_Driver-master/Ethernet/wizchip_conf.c ****    uint8_t* ptmp[2] = {0,0};
 290:ioLibrary_Driver-master/Ethernet/wizchip_conf.c ****    switch(cwtype)
 291:ioLibrary_Driver-master/Ethernet/wizchip_conf.c ****    {
 292:ioLibrary_Driver-master/Ethernet/wizchip_conf.c ****       case CW_RESET_WIZCHIP:
 293:ioLibrary_Driver-master/Ethernet/wizchip_conf.c ****          wizchip_sw_reset();
 294:ioLibrary_Driver-master/Ethernet/wizchip_conf.c ****          break;
 295:ioLibrary_Driver-master/Ethernet/wizchip_conf.c ****       case CW_INIT_WIZCHIP:
 296:ioLibrary_Driver-master/Ethernet/wizchip_conf.c ****          if(arg != 0) 
 297:ioLibrary_Driver-master/Ethernet/wizchip_conf.c ****          {
 298:ioLibrary_Driver-master/Ethernet/wizchip_conf.c ****             ptmp[0] = (uint8_t*)arg;
 299:ioLibrary_Driver-master/Ethernet/wizchip_conf.c ****             ptmp[1] = ptmp[0] + _WIZCHIP_SOCK_NUM_;
 300:ioLibrary_Driver-master/Ethernet/wizchip_conf.c ****          }
 301:ioLibrary_Driver-master/Ethernet/wizchip_conf.c ****          return wizchip_init(ptmp[0], ptmp[1]);
 302:ioLibrary_Driver-master/Ethernet/wizchip_conf.c ****       case CW_CLR_INTERRUPT:
 303:ioLibrary_Driver-master/Ethernet/wizchip_conf.c ****          wizchip_clrinterrupt(*((intr_kind*)arg));
 304:ioLibrary_Driver-master/Ethernet/wizchip_conf.c ****          break;
 305:ioLibrary_Driver-master/Ethernet/wizchip_conf.c ****       case CW_GET_INTERRUPT:
 306:ioLibrary_Driver-master/Ethernet/wizchip_conf.c ****         *((intr_kind*)arg) = wizchip_getinterrupt();
 307:ioLibrary_Driver-master/Ethernet/wizchip_conf.c ****          break;
 308:ioLibrary_Driver-master/Ethernet/wizchip_conf.c ****       case CW_SET_INTRMASK:
 309:ioLibrary_Driver-master/Ethernet/wizchip_conf.c ****          wizchip_setinterruptmask(*((intr_kind*)arg));
 310:ioLibrary_Driver-master/Ethernet/wizchip_conf.c ****          break;         
ARM GAS  C:\Users\VIDCOM~1\AppData\Local\Temp\cciRpnMV.s 			page 15


 311:ioLibrary_Driver-master/Ethernet/wizchip_conf.c ****       case CW_GET_INTRMASK:
 312:ioLibrary_Driver-master/Ethernet/wizchip_conf.c ****          *((intr_kind*)arg) = wizchip_getinterruptmask();
 313:ioLibrary_Driver-master/Ethernet/wizchip_conf.c ****          break;
 314:ioLibrary_Driver-master/Ethernet/wizchip_conf.c ****    //M20150601 : This can be supported by W5200, W5500
 315:ioLibrary_Driver-master/Ethernet/wizchip_conf.c ****    //#if _WIZCHIP_ > W5100
 316:ioLibrary_Driver-master/Ethernet/wizchip_conf.c ****    #if (_WIZCHIP_ == W5200 || _WIZCHIP_ == W5500)
 317:ioLibrary_Driver-master/Ethernet/wizchip_conf.c ****       case CW_SET_INTRTIME:
 318:ioLibrary_Driver-master/Ethernet/wizchip_conf.c ****          setINTLEVEL(*(uint16_t*)arg);
 319:ioLibrary_Driver-master/Ethernet/wizchip_conf.c ****          break;
 320:ioLibrary_Driver-master/Ethernet/wizchip_conf.c ****       case CW_GET_INTRTIME:
 321:ioLibrary_Driver-master/Ethernet/wizchip_conf.c ****          *(uint16_t*)arg = getINTLEVEL();
 322:ioLibrary_Driver-master/Ethernet/wizchip_conf.c ****          break;
 323:ioLibrary_Driver-master/Ethernet/wizchip_conf.c ****    #endif
 324:ioLibrary_Driver-master/Ethernet/wizchip_conf.c ****       case CW_GET_ID:
 325:ioLibrary_Driver-master/Ethernet/wizchip_conf.c ****          ((uint8_t*)arg)[0] = WIZCHIP.id[0];
 326:ioLibrary_Driver-master/Ethernet/wizchip_conf.c ****          ((uint8_t*)arg)[1] = WIZCHIP.id[1];
 327:ioLibrary_Driver-master/Ethernet/wizchip_conf.c ****          ((uint8_t*)arg)[2] = WIZCHIP.id[2];
 328:ioLibrary_Driver-master/Ethernet/wizchip_conf.c ****          ((uint8_t*)arg)[3] = WIZCHIP.id[3];
 329:ioLibrary_Driver-master/Ethernet/wizchip_conf.c ****          ((uint8_t*)arg)[4] = WIZCHIP.id[4];
 330:ioLibrary_Driver-master/Ethernet/wizchip_conf.c ****          ((uint8_t*)arg)[5] = WIZCHIP.id[5];
 331:ioLibrary_Driver-master/Ethernet/wizchip_conf.c ****          ((uint8_t*)arg)[6] = 0;
 332:ioLibrary_Driver-master/Ethernet/wizchip_conf.c ****          break;
 333:ioLibrary_Driver-master/Ethernet/wizchip_conf.c ****    #if _WIZCHIP_ == W5100S || _WIZCHIP_ == W5500
 334:ioLibrary_Driver-master/Ethernet/wizchip_conf.c ****       case CW_RESET_PHY:
 335:ioLibrary_Driver-master/Ethernet/wizchip_conf.c ****          wizphy_reset();
 336:ioLibrary_Driver-master/Ethernet/wizchip_conf.c ****          break;
 337:ioLibrary_Driver-master/Ethernet/wizchip_conf.c ****       case CW_SET_PHYCONF:
 338:ioLibrary_Driver-master/Ethernet/wizchip_conf.c ****          wizphy_setphyconf((wiz_PhyConf*)arg);
 339:ioLibrary_Driver-master/Ethernet/wizchip_conf.c ****          break;
 340:ioLibrary_Driver-master/Ethernet/wizchip_conf.c ****       case CW_GET_PHYCONF:
 341:ioLibrary_Driver-master/Ethernet/wizchip_conf.c ****          wizphy_getphyconf((wiz_PhyConf*)arg);
 342:ioLibrary_Driver-master/Ethernet/wizchip_conf.c ****          break;
 343:ioLibrary_Driver-master/Ethernet/wizchip_conf.c ****       case CW_GET_PHYSTATUS:
 344:ioLibrary_Driver-master/Ethernet/wizchip_conf.c ****          break;
 345:ioLibrary_Driver-master/Ethernet/wizchip_conf.c ****       case CW_SET_PHYPOWMODE:
 346:ioLibrary_Driver-master/Ethernet/wizchip_conf.c ****          return wizphy_setphypmode(*(uint8_t*)arg);
 347:ioLibrary_Driver-master/Ethernet/wizchip_conf.c ****    #endif
 348:ioLibrary_Driver-master/Ethernet/wizchip_conf.c ****    #if _WIZCHIP_ == W5100S || _WIZCHIP_ == W5200 || _WIZCHIP_ == W5500
 349:ioLibrary_Driver-master/Ethernet/wizchip_conf.c ****       case CW_GET_PHYPOWMODE:
 350:ioLibrary_Driver-master/Ethernet/wizchip_conf.c ****          tmp = wizphy_getphypmode();
 351:ioLibrary_Driver-master/Ethernet/wizchip_conf.c ****          if((int8_t)tmp == -1) return -1;
 352:ioLibrary_Driver-master/Ethernet/wizchip_conf.c ****          *(uint8_t*)arg = tmp;
 353:ioLibrary_Driver-master/Ethernet/wizchip_conf.c ****          break;
 354:ioLibrary_Driver-master/Ethernet/wizchip_conf.c ****       case CW_GET_PHYLINK:
 355:ioLibrary_Driver-master/Ethernet/wizchip_conf.c ****          tmp = wizphy_getphylink();
 356:ioLibrary_Driver-master/Ethernet/wizchip_conf.c ****          if((int8_t)tmp == -1) return -1;
 357:ioLibrary_Driver-master/Ethernet/wizchip_conf.c ****          *(uint8_t*)arg = tmp;
 358:ioLibrary_Driver-master/Ethernet/wizchip_conf.c ****          break;
 359:ioLibrary_Driver-master/Ethernet/wizchip_conf.c ****    #endif      
 360:ioLibrary_Driver-master/Ethernet/wizchip_conf.c ****       default:
 361:ioLibrary_Driver-master/Ethernet/wizchip_conf.c ****          return -1;
 362:ioLibrary_Driver-master/Ethernet/wizchip_conf.c ****    }
 363:ioLibrary_Driver-master/Ethernet/wizchip_conf.c ****    return 0;
 364:ioLibrary_Driver-master/Ethernet/wizchip_conf.c **** }
 365:ioLibrary_Driver-master/Ethernet/wizchip_conf.c **** 
 366:ioLibrary_Driver-master/Ethernet/wizchip_conf.c **** 
 367:ioLibrary_Driver-master/Ethernet/wizchip_conf.c **** int8_t ctlnetwork(ctlnetwork_type cntype, void* arg)
ARM GAS  C:\Users\VIDCOM~1\AppData\Local\Temp\cciRpnMV.s 			page 16


 368:ioLibrary_Driver-master/Ethernet/wizchip_conf.c **** {
 369:ioLibrary_Driver-master/Ethernet/wizchip_conf.c ****    
 370:ioLibrary_Driver-master/Ethernet/wizchip_conf.c ****    switch(cntype)
 371:ioLibrary_Driver-master/Ethernet/wizchip_conf.c ****    {
 372:ioLibrary_Driver-master/Ethernet/wizchip_conf.c ****       case CN_SET_NETINFO:
 373:ioLibrary_Driver-master/Ethernet/wizchip_conf.c ****          wizchip_setnetinfo((wiz_NetInfo*)arg);
 374:ioLibrary_Driver-master/Ethernet/wizchip_conf.c ****          break;
 375:ioLibrary_Driver-master/Ethernet/wizchip_conf.c ****       case CN_GET_NETINFO:
 376:ioLibrary_Driver-master/Ethernet/wizchip_conf.c ****          wizchip_getnetinfo((wiz_NetInfo*)arg);
 377:ioLibrary_Driver-master/Ethernet/wizchip_conf.c ****          break;
 378:ioLibrary_Driver-master/Ethernet/wizchip_conf.c ****       case CN_SET_NETMODE:
 379:ioLibrary_Driver-master/Ethernet/wizchip_conf.c ****          return wizchip_setnetmode(*(netmode_type*)arg);
 380:ioLibrary_Driver-master/Ethernet/wizchip_conf.c ****       case CN_GET_NETMODE:
 381:ioLibrary_Driver-master/Ethernet/wizchip_conf.c ****          *(netmode_type*)arg = wizchip_getnetmode();
 382:ioLibrary_Driver-master/Ethernet/wizchip_conf.c ****          break;
 383:ioLibrary_Driver-master/Ethernet/wizchip_conf.c ****       case CN_SET_TIMEOUT:
 384:ioLibrary_Driver-master/Ethernet/wizchip_conf.c ****          wizchip_settimeout((wiz_NetTimeout*)arg);
 385:ioLibrary_Driver-master/Ethernet/wizchip_conf.c ****          break;
 386:ioLibrary_Driver-master/Ethernet/wizchip_conf.c ****       case CN_GET_TIMEOUT:
 387:ioLibrary_Driver-master/Ethernet/wizchip_conf.c ****          wizchip_gettimeout((wiz_NetTimeout*)arg);
 388:ioLibrary_Driver-master/Ethernet/wizchip_conf.c ****          break;
 389:ioLibrary_Driver-master/Ethernet/wizchip_conf.c ****       default:
 390:ioLibrary_Driver-master/Ethernet/wizchip_conf.c ****          return -1;
 391:ioLibrary_Driver-master/Ethernet/wizchip_conf.c ****    }
 392:ioLibrary_Driver-master/Ethernet/wizchip_conf.c ****    return 0;
 393:ioLibrary_Driver-master/Ethernet/wizchip_conf.c **** }
 394:ioLibrary_Driver-master/Ethernet/wizchip_conf.c **** 
 395:ioLibrary_Driver-master/Ethernet/wizchip_conf.c **** void wizchip_sw_reset(void)
 396:ioLibrary_Driver-master/Ethernet/wizchip_conf.c **** {
 500              		.loc 1 396 1 is_stmt 1 view -0
 501              		.cfi_startproc
 502              		@ args = 0, pretend = 0, frame = 24
 503              		@ frame_needed = 0, uses_anonymous_args = 0
 504 0000 00B5     		push	{lr}
 505              	.LCFI0:
 506              		.cfi_def_cfa_offset 4
 507              		.cfi_offset 14, -4
 508 0002 87B0     		sub	sp, sp, #28
 509              	.LCFI1:
 510              		.cfi_def_cfa_offset 32
 397:ioLibrary_Driver-master/Ethernet/wizchip_conf.c ****    uint8_t gw[4], sn[4], sip[4];
 511              		.loc 1 397 4 view .LVU100
 398:ioLibrary_Driver-master/Ethernet/wizchip_conf.c ****    uint8_t mac[6];
 512              		.loc 1 398 4 view .LVU101
 399:ioLibrary_Driver-master/Ethernet/wizchip_conf.c **** //A20150601
 400:ioLibrary_Driver-master/Ethernet/wizchip_conf.c **** #if _WIZCHIP_IO_MODE_  == _WIZCHIP_IO_MODE_BUS_INDIR_
 401:ioLibrary_Driver-master/Ethernet/wizchip_conf.c ****    uint16_t mr = (uint16_t)getMR();
 402:ioLibrary_Driver-master/Ethernet/wizchip_conf.c ****    setMR(mr | MR_IND);
 403:ioLibrary_Driver-master/Ethernet/wizchip_conf.c **** #endif
 404:ioLibrary_Driver-master/Ethernet/wizchip_conf.c **** //
 405:ioLibrary_Driver-master/Ethernet/wizchip_conf.c ****    getSHAR(mac);
 513              		.loc 1 405 4 view .LVU102
 514 0004 0622     		movs	r2, #6
 515 0006 01A9     		add	r1, sp, #4
 516 0008 4FF41060 		mov	r0, #2304
 517 000c FFF7FEFF 		bl	WIZCHIP_READ_BUF
 518              	.LVL11:
ARM GAS  C:\Users\VIDCOM~1\AppData\Local\Temp\cciRpnMV.s 			page 17


 406:ioLibrary_Driver-master/Ethernet/wizchip_conf.c ****    getGAR(gw);  getSUBR(sn);  getSIPR(sip);
 519              		.loc 1 406 4 view .LVU103
 520 0010 0422     		movs	r2, #4
 521 0012 05A9     		add	r1, sp, #20
 522 0014 4FF48070 		mov	r0, #256
 523 0018 FFF7FEFF 		bl	WIZCHIP_READ_BUF
 524              	.LVL12:
 525              		.loc 1 406 17 view .LVU104
 526 001c 0422     		movs	r2, #4
 527 001e 04A9     		add	r1, sp, #16
 528 0020 4FF4A060 		mov	r0, #1280
 529 0024 FFF7FEFF 		bl	WIZCHIP_READ_BUF
 530              	.LVL13:
 531              		.loc 1 406 31 view .LVU105
 532 0028 0422     		movs	r2, #4
 533 002a 03A9     		add	r1, sp, #12
 534 002c 4FF47060 		mov	r0, #3840
 535 0030 FFF7FEFF 		bl	WIZCHIP_READ_BUF
 536              	.LVL14:
 407:ioLibrary_Driver-master/Ethernet/wizchip_conf.c ****    setMR(MR_RST);
 537              		.loc 1 407 4 view .LVU106
 538 0034 8021     		movs	r1, #128
 539 0036 0020     		movs	r0, #0
 540 0038 FFF7FEFF 		bl	WIZCHIP_WRITE
 541              	.LVL15:
 408:ioLibrary_Driver-master/Ethernet/wizchip_conf.c ****    getMR(); // for delay
 542              		.loc 1 408 4 view .LVU107
 543 003c 0020     		movs	r0, #0
 544 003e FFF7FEFF 		bl	WIZCHIP_READ
 545              	.LVL16:
 409:ioLibrary_Driver-master/Ethernet/wizchip_conf.c **** //A2015051 : For indirect bus mode 
 410:ioLibrary_Driver-master/Ethernet/wizchip_conf.c **** #if _WIZCHIP_IO_MODE_  == _WIZCHIP_IO_MODE_BUS_INDIR_
 411:ioLibrary_Driver-master/Ethernet/wizchip_conf.c ****    setMR(mr | MR_IND);
 412:ioLibrary_Driver-master/Ethernet/wizchip_conf.c **** #endif
 413:ioLibrary_Driver-master/Ethernet/wizchip_conf.c **** //
 414:ioLibrary_Driver-master/Ethernet/wizchip_conf.c ****    setSHAR(mac);
 546              		.loc 1 414 4 view .LVU108
 547 0042 0622     		movs	r2, #6
 548 0044 01A9     		add	r1, sp, #4
 549 0046 4FF41060 		mov	r0, #2304
 550 004a FFF7FEFF 		bl	WIZCHIP_WRITE_BUF
 551              	.LVL17:
 415:ioLibrary_Driver-master/Ethernet/wizchip_conf.c ****    setGAR(gw);
 552              		.loc 1 415 4 view .LVU109
 553 004e 0422     		movs	r2, #4
 554 0050 05A9     		add	r1, sp, #20
 555 0052 4FF48070 		mov	r0, #256
 556 0056 FFF7FEFF 		bl	WIZCHIP_WRITE_BUF
 557              	.LVL18:
 416:ioLibrary_Driver-master/Ethernet/wizchip_conf.c ****    setSUBR(sn);
 558              		.loc 1 416 4 view .LVU110
 559 005a 0422     		movs	r2, #4
 560 005c 04A9     		add	r1, sp, #16
 561 005e 4FF4A060 		mov	r0, #1280
 562 0062 FFF7FEFF 		bl	WIZCHIP_WRITE_BUF
 563              	.LVL19:
 417:ioLibrary_Driver-master/Ethernet/wizchip_conf.c ****    setSIPR(sip);
ARM GAS  C:\Users\VIDCOM~1\AppData\Local\Temp\cciRpnMV.s 			page 18


 564              		.loc 1 417 4 view .LVU111
 565 0066 0422     		movs	r2, #4
 566 0068 03A9     		add	r1, sp, #12
 567 006a 4FF47060 		mov	r0, #3840
 568 006e FFF7FEFF 		bl	WIZCHIP_WRITE_BUF
 569              	.LVL20:
 418:ioLibrary_Driver-master/Ethernet/wizchip_conf.c **** }
 570              		.loc 1 418 1 is_stmt 0 view .LVU112
 571 0072 07B0     		add	sp, sp, #28
 572              	.LCFI2:
 573              		.cfi_def_cfa_offset 4
 574              		@ sp needed
 575 0074 5DF804FB 		ldr	pc, [sp], #4
 576              		.cfi_endproc
 577              	.LFE17:
 579              		.section	.text.wizchip_init,"ax",%progbits
 580              		.align	1
 581              		.global	wizchip_init
 582              		.syntax unified
 583              		.thumb
 584              		.thumb_func
 586              	wizchip_init:
 587              	.LVL21:
 588              	.LFB18:
 419:ioLibrary_Driver-master/Ethernet/wizchip_conf.c **** 
 420:ioLibrary_Driver-master/Ethernet/wizchip_conf.c **** int8_t wizchip_init(uint8_t* txsize, uint8_t* rxsize)
 421:ioLibrary_Driver-master/Ethernet/wizchip_conf.c **** {
 589              		.loc 1 421 1 is_stmt 1 view -0
 590              		.cfi_startproc
 591              		@ args = 0, pretend = 0, frame = 0
 592              		@ frame_needed = 0, uses_anonymous_args = 0
 593              		.loc 1 421 1 is_stmt 0 view .LVU114
 594 0000 70B5     		push	{r4, r5, r6, lr}
 595              	.LCFI3:
 596              		.cfi_def_cfa_offset 16
 597              		.cfi_offset 4, -16
 598              		.cfi_offset 5, -12
 599              		.cfi_offset 6, -8
 600              		.cfi_offset 14, -4
 601 0002 0546     		mov	r5, r0
 602 0004 0E46     		mov	r6, r1
 422:ioLibrary_Driver-master/Ethernet/wizchip_conf.c ****    int8_t i;
 603              		.loc 1 422 4 is_stmt 1 view .LVU115
 423:ioLibrary_Driver-master/Ethernet/wizchip_conf.c **** #if _WIZCHIP_ < W5200
 424:ioLibrary_Driver-master/Ethernet/wizchip_conf.c ****    int8_t j;
 425:ioLibrary_Driver-master/Ethernet/wizchip_conf.c **** #endif
 426:ioLibrary_Driver-master/Ethernet/wizchip_conf.c ****    int8_t tmp = 0;
 604              		.loc 1 426 4 view .LVU116
 605              	.LVL22:
 427:ioLibrary_Driver-master/Ethernet/wizchip_conf.c ****    wizchip_sw_reset();
 606              		.loc 1 427 4 view .LVU117
 607 0006 FFF7FEFF 		bl	wizchip_sw_reset
 608              	.LVL23:
 428:ioLibrary_Driver-master/Ethernet/wizchip_conf.c ****    if(txsize)
 609              		.loc 1 428 4 view .LVU118
 610              		.loc 1 428 6 is_stmt 0 view .LVU119
 611 000a CDB1     		cbz	r5, .L48
ARM GAS  C:\Users\VIDCOM~1\AppData\Local\Temp\cciRpnMV.s 			page 19


 429:ioLibrary_Driver-master/Ethernet/wizchip_conf.c ****    {
 430:ioLibrary_Driver-master/Ethernet/wizchip_conf.c ****       tmp = 0;
 612              		.loc 1 430 11 view .LVU120
 613 000c 0022     		movs	r2, #0
 431:ioLibrary_Driver-master/Ethernet/wizchip_conf.c **** //M20150601 : For integrating with W5300
 432:ioLibrary_Driver-master/Ethernet/wizchip_conf.c **** #if _WIZCHIP_ == W5300
 433:ioLibrary_Driver-master/Ethernet/wizchip_conf.c **** 		for(i = 0 ; i < _WIZCHIP_SOCK_NUM_; i++)
 434:ioLibrary_Driver-master/Ethernet/wizchip_conf.c **** 		{
 435:ioLibrary_Driver-master/Ethernet/wizchip_conf.c **** 			if(txsize[i] > 64) return -1;   //No use 64KB even if W5300 support max 64KB memory allocation
 436:ioLibrary_Driver-master/Ethernet/wizchip_conf.c **** 			tmp += txsize[i];
 437:ioLibrary_Driver-master/Ethernet/wizchip_conf.c **** 			if(tmp > 128) return -1;
 438:ioLibrary_Driver-master/Ethernet/wizchip_conf.c **** 		}
 439:ioLibrary_Driver-master/Ethernet/wizchip_conf.c **** 		if(tmp % 8) return -1;
 440:ioLibrary_Driver-master/Ethernet/wizchip_conf.c **** #else
 441:ioLibrary_Driver-master/Ethernet/wizchip_conf.c **** 		for(i = 0 ; i < _WIZCHIP_SOCK_NUM_; i++)
 614              		.loc 1 441 9 view .LVU121
 615 000e 1346     		mov	r3, r2
 616              	.LVL24:
 617              	.L47:
 618              		.loc 1 441 17 is_stmt 1 discriminator 1 view .LVU122
 619 0010 072B     		cmp	r3, #7
 620 0012 07DC     		bgt	.L62
 442:ioLibrary_Driver-master/Ethernet/wizchip_conf.c **** 		{
 443:ioLibrary_Driver-master/Ethernet/wizchip_conf.c **** 			tmp += txsize[i];
 621              		.loc 1 443 4 view .LVU123
 622              		.loc 1 443 17 is_stmt 0 view .LVU124
 623 0014 E95C     		ldrb	r1, [r5, r3]	@ zero_extendqisi2
 624              		.loc 1 443 8 view .LVU125
 625 0016 0A44     		add	r2, r2, r1
 626              	.LVL25:
 627              		.loc 1 443 8 view .LVU126
 628 0018 52B2     		sxtb	r2, r2
 629              	.LVL26:
 444:ioLibrary_Driver-master/Ethernet/wizchip_conf.c **** 
 445:ioLibrary_Driver-master/Ethernet/wizchip_conf.c **** #if _WIZCHIP_ < W5200	//2016.10.28 peter add condition for w5100 and w5100s
 446:ioLibrary_Driver-master/Ethernet/wizchip_conf.c **** 			if(tmp > 8) return -1;
 447:ioLibrary_Driver-master/Ethernet/wizchip_conf.c **** #else
 448:ioLibrary_Driver-master/Ethernet/wizchip_conf.c **** 			if(tmp > 16) return -1;
 630              		.loc 1 448 4 is_stmt 1 view .LVU127
 631              		.loc 1 448 6 is_stmt 0 view .LVU128
 632 001a 102A     		cmp	r2, #16
 633 001c 2FDC     		bgt	.L58
 441:ioLibrary_Driver-master/Ethernet/wizchip_conf.c **** 		{
 634              		.loc 1 441 40 is_stmt 1 discriminator 2 view .LVU129
 635 001e 0133     		adds	r3, r3, #1
 636              	.LVL27:
 441:ioLibrary_Driver-master/Ethernet/wizchip_conf.c **** 		{
 637              		.loc 1 441 40 is_stmt 0 discriminator 2 view .LVU130
 638 0020 5BB2     		sxtb	r3, r3
 639              	.LVL28:
 441:ioLibrary_Driver-master/Ethernet/wizchip_conf.c **** 		{
 640              		.loc 1 441 40 discriminator 2 view .LVU131
 641 0022 F5E7     		b	.L47
 642              	.L62:
 449:ioLibrary_Driver-master/Ethernet/wizchip_conf.c **** #endif
 450:ioLibrary_Driver-master/Ethernet/wizchip_conf.c **** 		}
 451:ioLibrary_Driver-master/Ethernet/wizchip_conf.c **** #endif
ARM GAS  C:\Users\VIDCOM~1\AppData\Local\Temp\cciRpnMV.s 			page 20


 452:ioLibrary_Driver-master/Ethernet/wizchip_conf.c **** 		for(i = 0 ; i < _WIZCHIP_SOCK_NUM_; i++)
 643              		.loc 1 452 9 view .LVU132
 644 0024 0024     		movs	r4, #0
 645 0026 09E0     		b	.L51
 646              	.LVL29:
 647              	.L52:
 453:ioLibrary_Driver-master/Ethernet/wizchip_conf.c **** 		{
 454:ioLibrary_Driver-master/Ethernet/wizchip_conf.c **** #if _WIZCHIP_ < W5200	//2016.10.28 peter add condition for w5100
 455:ioLibrary_Driver-master/Ethernet/wizchip_conf.c **** 			j = 0;
 456:ioLibrary_Driver-master/Ethernet/wizchip_conf.c **** 			while((txsize[i] >> j != 1)&&(txsize[i] !=0)){j++;}
 457:ioLibrary_Driver-master/Ethernet/wizchip_conf.c **** 			setSn_TXBUF_SIZE(i, j);
 458:ioLibrary_Driver-master/Ethernet/wizchip_conf.c **** #else
 459:ioLibrary_Driver-master/Ethernet/wizchip_conf.c **** 			setSn_TXBUF_SIZE(i, txsize[i]);
 648              		.loc 1 459 4 is_stmt 1 discriminator 3 view .LVU133
 649 0028 A000     		lsls	r0, r4, #2
 650 002a 0130     		adds	r0, r0, #1
 651 002c C000     		lsls	r0, r0, #3
 652 002e 295D     		ldrb	r1, [r5, r4]	@ zero_extendqisi2
 653 0030 00F5F850 		add	r0, r0, #7936
 654 0034 FFF7FEFF 		bl	WIZCHIP_WRITE
 655              	.LVL30:
 452:ioLibrary_Driver-master/Ethernet/wizchip_conf.c **** 		{
 656              		.loc 1 452 40 discriminator 3 view .LVU134
 657 0038 0134     		adds	r4, r4, #1
 658              	.LVL31:
 452:ioLibrary_Driver-master/Ethernet/wizchip_conf.c **** 		{
 659              		.loc 1 452 40 is_stmt 0 discriminator 3 view .LVU135
 660 003a 64B2     		sxtb	r4, r4
 661              	.LVL32:
 662              	.L51:
 452:ioLibrary_Driver-master/Ethernet/wizchip_conf.c **** 		{
 663              		.loc 1 452 17 is_stmt 1 discriminator 1 view .LVU136
 664 003c 072C     		cmp	r4, #7
 665 003e F3DD     		ble	.L52
 666              	.LVL33:
 667              	.L48:
 460:ioLibrary_Driver-master/Ethernet/wizchip_conf.c **** #endif
 461:ioLibrary_Driver-master/Ethernet/wizchip_conf.c **** 		}	
 462:ioLibrary_Driver-master/Ethernet/wizchip_conf.c ****    }
 463:ioLibrary_Driver-master/Ethernet/wizchip_conf.c **** 
 464:ioLibrary_Driver-master/Ethernet/wizchip_conf.c ****    if(rxsize)
 668              		.loc 1 464 4 view .LVU137
 669              		.loc 1 464 6 is_stmt 0 view .LVU138
 670 0040 5EB1     		cbz	r6, .L63
 465:ioLibrary_Driver-master/Ethernet/wizchip_conf.c ****    {
 466:ioLibrary_Driver-master/Ethernet/wizchip_conf.c ****       tmp = 0;
 671              		.loc 1 466 11 view .LVU139
 672 0042 0022     		movs	r2, #0
 467:ioLibrary_Driver-master/Ethernet/wizchip_conf.c **** #if _WIZCHIP_ == W5300
 468:ioLibrary_Driver-master/Ethernet/wizchip_conf.c ****       for(i = 0 ; i < _WIZCHIP_SOCK_NUM_; i++)
 469:ioLibrary_Driver-master/Ethernet/wizchip_conf.c **** 		{
 470:ioLibrary_Driver-master/Ethernet/wizchip_conf.c **** 			if(rxsize[i] > 64) return -1;   //No use 64KB even if W5300 support max 64KB memory allocation
 471:ioLibrary_Driver-master/Ethernet/wizchip_conf.c **** 			tmp += rxsize[i];
 472:ioLibrary_Driver-master/Ethernet/wizchip_conf.c **** 			if(tmp > 128) return -1;
 473:ioLibrary_Driver-master/Ethernet/wizchip_conf.c **** 		}
 474:ioLibrary_Driver-master/Ethernet/wizchip_conf.c **** 		if(tmp % 8) return -1;
 475:ioLibrary_Driver-master/Ethernet/wizchip_conf.c **** #else
ARM GAS  C:\Users\VIDCOM~1\AppData\Local\Temp\cciRpnMV.s 			page 21


 476:ioLibrary_Driver-master/Ethernet/wizchip_conf.c **** 		for(i = 0 ; i < _WIZCHIP_SOCK_NUM_; i++)
 673              		.loc 1 476 9 view .LVU140
 674 0044 1346     		mov	r3, r2
 675              	.L53:
 676              	.LVL34:
 677              		.loc 1 476 17 is_stmt 1 discriminator 1 view .LVU141
 678 0046 072B     		cmp	r3, #7
 679 0048 09DC     		bgt	.L64
 477:ioLibrary_Driver-master/Ethernet/wizchip_conf.c **** 		{
 478:ioLibrary_Driver-master/Ethernet/wizchip_conf.c **** 			tmp += rxsize[i];
 680              		.loc 1 478 4 view .LVU142
 681              		.loc 1 478 17 is_stmt 0 view .LVU143
 682 004a F15C     		ldrb	r1, [r6, r3]	@ zero_extendqisi2
 683              		.loc 1 478 8 view .LVU144
 684 004c 0A44     		add	r2, r2, r1
 685              	.LVL35:
 686              		.loc 1 478 8 view .LVU145
 687 004e 52B2     		sxtb	r2, r2
 688              	.LVL36:
 479:ioLibrary_Driver-master/Ethernet/wizchip_conf.c **** #if _WIZCHIP_ < W5200	//2016.10.28 peter add condition for w5100 and w5100s
 480:ioLibrary_Driver-master/Ethernet/wizchip_conf.c **** 			if(tmp > 8) return -1;
 481:ioLibrary_Driver-master/Ethernet/wizchip_conf.c **** #else
 482:ioLibrary_Driver-master/Ethernet/wizchip_conf.c **** 			if(tmp > 16) return -1;
 689              		.loc 1 482 4 is_stmt 1 view .LVU146
 690              		.loc 1 482 6 is_stmt 0 view .LVU147
 691 0050 102A     		cmp	r2, #16
 692 0052 17DC     		bgt	.L60
 476:ioLibrary_Driver-master/Ethernet/wizchip_conf.c **** 		{
 693              		.loc 1 476 40 is_stmt 1 discriminator 2 view .LVU148
 694 0054 0133     		adds	r3, r3, #1
 695              	.LVL37:
 476:ioLibrary_Driver-master/Ethernet/wizchip_conf.c **** 		{
 696              		.loc 1 476 40 is_stmt 0 discriminator 2 view .LVU149
 697 0056 5BB2     		sxtb	r3, r3
 698              	.LVL38:
 476:ioLibrary_Driver-master/Ethernet/wizchip_conf.c **** 		{
 699              		.loc 1 476 40 discriminator 2 view .LVU150
 700 0058 F5E7     		b	.L53
 701              	.LVL39:
 702              	.L63:
 483:ioLibrary_Driver-master/Ethernet/wizchip_conf.c **** #endif
 484:ioLibrary_Driver-master/Ethernet/wizchip_conf.c **** 		}
 485:ioLibrary_Driver-master/Ethernet/wizchip_conf.c **** #endif
 486:ioLibrary_Driver-master/Ethernet/wizchip_conf.c **** 		for(i = 0 ; i < _WIZCHIP_SOCK_NUM_; i++)
 487:ioLibrary_Driver-master/Ethernet/wizchip_conf.c **** 		{
 488:ioLibrary_Driver-master/Ethernet/wizchip_conf.c **** #if _WIZCHIP_ < W5200	// add condition for w5100
 489:ioLibrary_Driver-master/Ethernet/wizchip_conf.c **** 			j = 0;
 490:ioLibrary_Driver-master/Ethernet/wizchip_conf.c **** 			while((rxsize[i] >> j != 1)&&(txsize[i] !=0)){j++;}
 491:ioLibrary_Driver-master/Ethernet/wizchip_conf.c **** 			setSn_RXBUF_SIZE(i, j);
 492:ioLibrary_Driver-master/Ethernet/wizchip_conf.c **** #else
 493:ioLibrary_Driver-master/Ethernet/wizchip_conf.c **** 			setSn_RXBUF_SIZE(i, rxsize[i]);
 494:ioLibrary_Driver-master/Ethernet/wizchip_conf.c **** #endif
 495:ioLibrary_Driver-master/Ethernet/wizchip_conf.c **** 		}
 496:ioLibrary_Driver-master/Ethernet/wizchip_conf.c ****    }
 497:ioLibrary_Driver-master/Ethernet/wizchip_conf.c ****    return 0;
 703              		.loc 1 497 11 view .LVU151
 704 005a 0020     		movs	r0, #0
ARM GAS  C:\Users\VIDCOM~1\AppData\Local\Temp\cciRpnMV.s 			page 22


 705 005c 0EE0     		b	.L49
 706              	.LVL40:
 707              	.L64:
 486:ioLibrary_Driver-master/Ethernet/wizchip_conf.c **** 		{
 708              		.loc 1 486 9 view .LVU152
 709 005e 0024     		movs	r4, #0
 710 0060 09E0     		b	.L55
 711              	.LVL41:
 712              	.L56:
 493:ioLibrary_Driver-master/Ethernet/wizchip_conf.c **** #endif
 713              		.loc 1 493 4 is_stmt 1 discriminator 3 view .LVU153
 714 0062 A000     		lsls	r0, r4, #2
 715 0064 0130     		adds	r0, r0, #1
 716 0066 C000     		lsls	r0, r0, #3
 717 0068 315D     		ldrb	r1, [r6, r4]	@ zero_extendqisi2
 718 006a 00F5F050 		add	r0, r0, #7680
 719 006e FFF7FEFF 		bl	WIZCHIP_WRITE
 720              	.LVL42:
 486:ioLibrary_Driver-master/Ethernet/wizchip_conf.c **** 		{
 721              		.loc 1 486 40 discriminator 3 view .LVU154
 722 0072 0134     		adds	r4, r4, #1
 723              	.LVL43:
 486:ioLibrary_Driver-master/Ethernet/wizchip_conf.c **** 		{
 724              		.loc 1 486 40 is_stmt 0 discriminator 3 view .LVU155
 725 0074 64B2     		sxtb	r4, r4
 726              	.LVL44:
 727              	.L55:
 486:ioLibrary_Driver-master/Ethernet/wizchip_conf.c **** 		{
 728              		.loc 1 486 17 is_stmt 1 discriminator 1 view .LVU156
 729 0076 072C     		cmp	r4, #7
 730 0078 F3DD     		ble	.L56
 731              		.loc 1 497 11 is_stmt 0 view .LVU157
 732 007a 0020     		movs	r0, #0
 733              	.LVL45:
 734              	.L49:
 498:ioLibrary_Driver-master/Ethernet/wizchip_conf.c **** }
 735              		.loc 1 498 1 view .LVU158
 736 007c 70BD     		pop	{r4, r5, r6, pc}
 737              	.LVL46:
 738              	.L58:
 448:ioLibrary_Driver-master/Ethernet/wizchip_conf.c **** #endif
 739              		.loc 1 448 24 view .LVU159
 740 007e 4FF0FF30 		mov	r0, #-1
 741 0082 FBE7     		b	.L49
 742              	.L60:
 482:ioLibrary_Driver-master/Ethernet/wizchip_conf.c **** #endif
 743              		.loc 1 482 24 view .LVU160
 744 0084 4FF0FF30 		mov	r0, #-1
 745 0088 F8E7     		b	.L49
 746              		.cfi_endproc
 747              	.LFE18:
 749              		.section	.text.wizchip_clrinterrupt,"ax",%progbits
 750              		.align	1
 751              		.global	wizchip_clrinterrupt
 752              		.syntax unified
 753              		.thumb
 754              		.thumb_func
ARM GAS  C:\Users\VIDCOM~1\AppData\Local\Temp\cciRpnMV.s 			page 23


 756              	wizchip_clrinterrupt:
 757              	.LVL47:
 758              	.LFB19:
 499:ioLibrary_Driver-master/Ethernet/wizchip_conf.c **** 
 500:ioLibrary_Driver-master/Ethernet/wizchip_conf.c **** void wizchip_clrinterrupt(intr_kind intr)
 501:ioLibrary_Driver-master/Ethernet/wizchip_conf.c **** {
 759              		.loc 1 501 1 is_stmt 1 view -0
 760              		.cfi_startproc
 761              		@ args = 0, pretend = 0, frame = 0
 762              		@ frame_needed = 0, uses_anonymous_args = 0
 763              		.loc 1 501 1 is_stmt 0 view .LVU162
 764 0000 38B5     		push	{r3, r4, r5, lr}
 765              	.LCFI4:
 766              		.cfi_def_cfa_offset 16
 767              		.cfi_offset 3, -16
 768              		.cfi_offset 4, -12
 769              		.cfi_offset 5, -8
 770              		.cfi_offset 14, -4
 502:ioLibrary_Driver-master/Ethernet/wizchip_conf.c ****    uint8_t ir  = (uint8_t)intr;
 771              		.loc 1 502 4 is_stmt 1 view .LVU163
 772              	.LVL48:
 503:ioLibrary_Driver-master/Ethernet/wizchip_conf.c ****    uint8_t sir = (uint8_t)((uint16_t)intr >> 8);
 773              		.loc 1 503 4 view .LVU164
 774              		.loc 1 503 12 is_stmt 0 view .LVU165
 775 0002 050A     		lsrs	r5, r0, #8
 776              	.LVL49:
 504:ioLibrary_Driver-master/Ethernet/wizchip_conf.c **** #if _WIZCHIP_ < W5500
 505:ioLibrary_Driver-master/Ethernet/wizchip_conf.c ****    ir |= (1<<4); // IK_WOL
 506:ioLibrary_Driver-master/Ethernet/wizchip_conf.c **** #endif
 507:ioLibrary_Driver-master/Ethernet/wizchip_conf.c **** #if _WIZCHIP_ == W5200
 508:ioLibrary_Driver-master/Ethernet/wizchip_conf.c ****    ir |= (1 << 6);
 509:ioLibrary_Driver-master/Ethernet/wizchip_conf.c **** #endif
 510:ioLibrary_Driver-master/Ethernet/wizchip_conf.c ****    
 511:ioLibrary_Driver-master/Ethernet/wizchip_conf.c **** #if _WIZCHIP_ < W5200
 512:ioLibrary_Driver-master/Ethernet/wizchip_conf.c ****    sir &= 0x0F;
 513:ioLibrary_Driver-master/Ethernet/wizchip_conf.c **** #endif
 514:ioLibrary_Driver-master/Ethernet/wizchip_conf.c **** 
 515:ioLibrary_Driver-master/Ethernet/wizchip_conf.c **** #if _WIZCHIP_ <= W5100S
 516:ioLibrary_Driver-master/Ethernet/wizchip_conf.c ****    ir |= sir;
 517:ioLibrary_Driver-master/Ethernet/wizchip_conf.c ****    setIR(ir);
 518:ioLibrary_Driver-master/Ethernet/wizchip_conf.c **** //A20150601 : For integrating with W5300
 519:ioLibrary_Driver-master/Ethernet/wizchip_conf.c **** #elif _WIZCHIP_ == W5300
 520:ioLibrary_Driver-master/Ethernet/wizchip_conf.c ****    setIR( ((((uint16_t)ir) << 8) | (((uint16_t)sir) & 0x00FF)) );
 521:ioLibrary_Driver-master/Ethernet/wizchip_conf.c **** #else
 522:ioLibrary_Driver-master/Ethernet/wizchip_conf.c ****    setIR(ir);
 777              		.loc 1 522 4 is_stmt 1 view .LVU166
 778 0004 00F0F001 		and	r1, r0, #240
 779 0008 4FF4A850 		mov	r0, #5376
 780              	.LVL50:
 781              		.loc 1 522 4 is_stmt 0 view .LVU167
 782 000c FFF7FEFF 		bl	WIZCHIP_WRITE
 783              	.LVL51:
 523:ioLibrary_Driver-master/Ethernet/wizchip_conf.c **** //M20200227 : For clear
 524:ioLibrary_Driver-master/Ethernet/wizchip_conf.c ****    //setSIR(sir);
 525:ioLibrary_Driver-master/Ethernet/wizchip_conf.c ****    for(ir=0; ir<8; ir++){
 784              		.loc 1 525 4 is_stmt 1 view .LVU168
 785              		.loc 1 525 10 is_stmt 0 view .LVU169
ARM GAS  C:\Users\VIDCOM~1\AppData\Local\Temp\cciRpnMV.s 			page 24


 786 0010 0024     		movs	r4, #0
 787              		.loc 1 525 4 view .LVU170
 788 0012 01E0     		b	.L66
 789              	.LVL52:
 790              	.L67:
 791              		.loc 1 525 22 is_stmt 1 discriminator 2 view .LVU171
 792 0014 0134     		adds	r4, r4, #1
 793              	.LVL53:
 794              		.loc 1 525 22 is_stmt 0 discriminator 2 view .LVU172
 795 0016 E4B2     		uxtb	r4, r4
 796              	.LVL54:
 797              	.L66:
 798              		.loc 1 525 16 is_stmt 1 discriminator 1 view .LVU173
 799 0018 072C     		cmp	r4, #7
 800 001a 0DD8     		bhi	.L70
 526:ioLibrary_Driver-master/Ethernet/wizchip_conf.c ****        if(sir & (0x01 <<ir) ) setSn_IR(ir, 0xff);
 801              		.loc 1 526 8 view .LVU174
 802              		.loc 1 526 11 is_stmt 0 view .LVU175
 803 001c 45FA04F3 		asr	r3, r5, r4
 804              		.loc 1 526 10 view .LVU176
 805 0020 13F0010F 		tst	r3, #1
 806 0024 F6D0     		beq	.L67
 807              		.loc 1 526 31 is_stmt 1 discriminator 1 view .LVU177
 808 0026 A000     		lsls	r0, r4, #2
 809 0028 0130     		adds	r0, r0, #1
 810 002a C000     		lsls	r0, r0, #3
 811 002c 1F21     		movs	r1, #31
 812 002e 00F50070 		add	r0, r0, #512
 813 0032 FFF7FEFF 		bl	WIZCHIP_WRITE
 814              	.LVL55:
 815 0036 EDE7     		b	.L67
 816              	.L70:
 527:ioLibrary_Driver-master/Ethernet/wizchip_conf.c ****    }
 528:ioLibrary_Driver-master/Ethernet/wizchip_conf.c **** 
 529:ioLibrary_Driver-master/Ethernet/wizchip_conf.c **** #endif   
 530:ioLibrary_Driver-master/Ethernet/wizchip_conf.c **** }
 817              		.loc 1 530 1 is_stmt 0 view .LVU178
 818 0038 38BD     		pop	{r3, r4, r5, pc}
 819              		.loc 1 530 1 view .LVU179
 820              		.cfi_endproc
 821              	.LFE19:
 823              		.section	.text.wizchip_getinterrupt,"ax",%progbits
 824              		.align	1
 825              		.global	wizchip_getinterrupt
 826              		.syntax unified
 827              		.thumb
 828              		.thumb_func
 830              	wizchip_getinterrupt:
 831              	.LFB20:
 531:ioLibrary_Driver-master/Ethernet/wizchip_conf.c **** 
 532:ioLibrary_Driver-master/Ethernet/wizchip_conf.c **** intr_kind wizchip_getinterrupt(void)
 533:ioLibrary_Driver-master/Ethernet/wizchip_conf.c **** {
 832              		.loc 1 533 1 is_stmt 1 view -0
 833              		.cfi_startproc
 834              		@ args = 0, pretend = 0, frame = 0
 835              		@ frame_needed = 0, uses_anonymous_args = 0
 836 0000 10B5     		push	{r4, lr}
ARM GAS  C:\Users\VIDCOM~1\AppData\Local\Temp\cciRpnMV.s 			page 25


 837              	.LCFI5:
 838              		.cfi_def_cfa_offset 8
 839              		.cfi_offset 4, -8
 840              		.cfi_offset 14, -4
 534:ioLibrary_Driver-master/Ethernet/wizchip_conf.c ****    uint8_t ir  = 0;
 841              		.loc 1 534 4 view .LVU181
 842              	.LVL56:
 535:ioLibrary_Driver-master/Ethernet/wizchip_conf.c ****    uint8_t sir = 0;
 843              		.loc 1 535 4 view .LVU182
 536:ioLibrary_Driver-master/Ethernet/wizchip_conf.c ****    uint16_t ret = 0;
 844              		.loc 1 536 4 view .LVU183
 537:ioLibrary_Driver-master/Ethernet/wizchip_conf.c **** #if _WIZCHIP_ <= W5100S
 538:ioLibrary_Driver-master/Ethernet/wizchip_conf.c ****    ir = getIR();
 539:ioLibrary_Driver-master/Ethernet/wizchip_conf.c ****    sir = ir & 0x0F;
 540:ioLibrary_Driver-master/Ethernet/wizchip_conf.c **** //A20150601 : For integrating with W5300
 541:ioLibrary_Driver-master/Ethernet/wizchip_conf.c **** #elif _WIZCHIP_  == W5300
 542:ioLibrary_Driver-master/Ethernet/wizchip_conf.c ****    ret = getIR();
 543:ioLibrary_Driver-master/Ethernet/wizchip_conf.c ****    ir = (uint8_t)(ret >> 8);
 544:ioLibrary_Driver-master/Ethernet/wizchip_conf.c ****    sir = (uint8_t)ret;
 545:ioLibrary_Driver-master/Ethernet/wizchip_conf.c **** #else
 546:ioLibrary_Driver-master/Ethernet/wizchip_conf.c ****    ir  = getIR();
 845              		.loc 1 546 4 view .LVU184
 846              		.loc 1 546 10 is_stmt 0 view .LVU185
 847 0002 4FF4A850 		mov	r0, #5376
 848 0006 FFF7FEFF 		bl	WIZCHIP_READ
 849              	.LVL57:
 850              		.loc 1 546 8 view .LVU186
 851 000a 00F0F004 		and	r4, r0, #240
 852              	.LVL58:
 547:ioLibrary_Driver-master/Ethernet/wizchip_conf.c ****    sir = getSIR();
 853              		.loc 1 547 4 is_stmt 1 view .LVU187
 854              		.loc 1 547 10 is_stmt 0 view .LVU188
 855 000e 4FF4B850 		mov	r0, #5888
 856 0012 FFF7FEFF 		bl	WIZCHIP_READ
 857              	.LVL59:
 548:ioLibrary_Driver-master/Ethernet/wizchip_conf.c **** #endif         
 549:ioLibrary_Driver-master/Ethernet/wizchip_conf.c **** 
 550:ioLibrary_Driver-master/Ethernet/wizchip_conf.c **** //M20150601 : For Integrating with W5300
 551:ioLibrary_Driver-master/Ethernet/wizchip_conf.c **** //#if _WIZCHIP_ < W5500
 552:ioLibrary_Driver-master/Ethernet/wizchip_conf.c **** #if _WIZCHIP_ < W5200
 553:ioLibrary_Driver-master/Ethernet/wizchip_conf.c ****    ir &= ~(1<<4); // IK_WOL
 554:ioLibrary_Driver-master/Ethernet/wizchip_conf.c **** #endif
 555:ioLibrary_Driver-master/Ethernet/wizchip_conf.c **** #if _WIZCHIP_ == W5200
 556:ioLibrary_Driver-master/Ethernet/wizchip_conf.c ****    ir &= ~(1 << 6);
 557:ioLibrary_Driver-master/Ethernet/wizchip_conf.c **** #endif
 558:ioLibrary_Driver-master/Ethernet/wizchip_conf.c ****   ret = sir;
 858              		.loc 1 558 3 is_stmt 1 view .LVU189
 559:ioLibrary_Driver-master/Ethernet/wizchip_conf.c ****   ret = (ret << 8) + ir;
 859              		.loc 1 559 3 view .LVU190
 860              		.loc 1 559 14 is_stmt 0 view .LVU191
 861 0016 0002     		lsls	r0, r0, #8
 862              	.LVL60:
 863              		.loc 1 559 14 view .LVU192
 864 0018 80B2     		uxth	r0, r0
 865              		.loc 1 559 7 view .LVU193
 866 001a 2044     		add	r0, r0, r4
 867 001c 80B2     		uxth	r0, r0
ARM GAS  C:\Users\VIDCOM~1\AppData\Local\Temp\cciRpnMV.s 			page 26


 868              	.LVL61:
 560:ioLibrary_Driver-master/Ethernet/wizchip_conf.c ****   return (intr_kind)ret;
 869              		.loc 1 560 3 is_stmt 1 view .LVU194
 561:ioLibrary_Driver-master/Ethernet/wizchip_conf.c **** }
 870              		.loc 1 561 1 is_stmt 0 view .LVU195
 871 001e 10BD     		pop	{r4, pc}
 872              		.loc 1 561 1 view .LVU196
 873              		.cfi_endproc
 874              	.LFE20:
 876              		.section	.text.wizchip_setinterruptmask,"ax",%progbits
 877              		.align	1
 878              		.global	wizchip_setinterruptmask
 879              		.syntax unified
 880              		.thumb
 881              		.thumb_func
 883              	wizchip_setinterruptmask:
 884              	.LVL62:
 885              	.LFB21:
 562:ioLibrary_Driver-master/Ethernet/wizchip_conf.c **** 
 563:ioLibrary_Driver-master/Ethernet/wizchip_conf.c **** void wizchip_setinterruptmask(intr_kind intr)
 564:ioLibrary_Driver-master/Ethernet/wizchip_conf.c **** {
 886              		.loc 1 564 1 is_stmt 1 view -0
 887              		.cfi_startproc
 888              		@ args = 0, pretend = 0, frame = 0
 889              		@ frame_needed = 0, uses_anonymous_args = 0
 890              		.loc 1 564 1 is_stmt 0 view .LVU198
 891 0000 10B5     		push	{r4, lr}
 892              	.LCFI6:
 893              		.cfi_def_cfa_offset 8
 894              		.cfi_offset 4, -8
 895              		.cfi_offset 14, -4
 565:ioLibrary_Driver-master/Ethernet/wizchip_conf.c ****    uint8_t imr  = (uint8_t)intr;
 896              		.loc 1 565 4 is_stmt 1 view .LVU199
 897              	.LVL63:
 566:ioLibrary_Driver-master/Ethernet/wizchip_conf.c ****    uint8_t simr = (uint8_t)((uint16_t)intr >> 8);
 898              		.loc 1 566 4 view .LVU200
 899              		.loc 1 566 12 is_stmt 0 view .LVU201
 900 0002 040A     		lsrs	r4, r0, #8
 901              	.LVL64:
 567:ioLibrary_Driver-master/Ethernet/wizchip_conf.c **** #if _WIZCHIP_ < W5500
 568:ioLibrary_Driver-master/Ethernet/wizchip_conf.c ****    imr &= ~(1<<4); // IK_WOL
 569:ioLibrary_Driver-master/Ethernet/wizchip_conf.c **** #endif
 570:ioLibrary_Driver-master/Ethernet/wizchip_conf.c **** #if _WIZCHIP_ == W5200
 571:ioLibrary_Driver-master/Ethernet/wizchip_conf.c ****    imr &= ~(1 << 6);
 572:ioLibrary_Driver-master/Ethernet/wizchip_conf.c **** #endif
 573:ioLibrary_Driver-master/Ethernet/wizchip_conf.c ****    
 574:ioLibrary_Driver-master/Ethernet/wizchip_conf.c **** #if _WIZCHIP_ < W5200
 575:ioLibrary_Driver-master/Ethernet/wizchip_conf.c ****    simr &= 0x0F;
 576:ioLibrary_Driver-master/Ethernet/wizchip_conf.c ****    imr |= simr;
 577:ioLibrary_Driver-master/Ethernet/wizchip_conf.c ****    setIMR(imr);
 578:ioLibrary_Driver-master/Ethernet/wizchip_conf.c **** //A20150601 : For integrating with W5300
 579:ioLibrary_Driver-master/Ethernet/wizchip_conf.c **** #elif _WIZCHIP_ == W5300
 580:ioLibrary_Driver-master/Ethernet/wizchip_conf.c ****    setIMR( ((((uint16_t)imr) << 8) | (((uint16_t)simr) & 0x00FF)) );
 581:ioLibrary_Driver-master/Ethernet/wizchip_conf.c **** #else
 582:ioLibrary_Driver-master/Ethernet/wizchip_conf.c ****    setIMR(imr);
 902              		.loc 1 582 4 is_stmt 1 view .LVU202
 903 0004 C1B2     		uxtb	r1, r0
ARM GAS  C:\Users\VIDCOM~1\AppData\Local\Temp\cciRpnMV.s 			page 27


 904 0006 4FF4B050 		mov	r0, #5632
 905              	.LVL65:
 906              		.loc 1 582 4 is_stmt 0 view .LVU203
 907 000a FFF7FEFF 		bl	WIZCHIP_WRITE
 908              	.LVL66:
 583:ioLibrary_Driver-master/Ethernet/wizchip_conf.c ****    setSIMR(simr);
 909              		.loc 1 583 4 is_stmt 1 view .LVU204
 910 000e 2146     		mov	r1, r4
 911 0010 4FF4C050 		mov	r0, #6144
 912 0014 FFF7FEFF 		bl	WIZCHIP_WRITE
 913              	.LVL67:
 584:ioLibrary_Driver-master/Ethernet/wizchip_conf.c **** #endif   
 585:ioLibrary_Driver-master/Ethernet/wizchip_conf.c **** }
 914              		.loc 1 585 1 is_stmt 0 view .LVU205
 915 0018 10BD     		pop	{r4, pc}
 916              		.loc 1 585 1 view .LVU206
 917              		.cfi_endproc
 918              	.LFE21:
 920              		.section	.text.wizchip_getinterruptmask,"ax",%progbits
 921              		.align	1
 922              		.global	wizchip_getinterruptmask
 923              		.syntax unified
 924              		.thumb
 925              		.thumb_func
 927              	wizchip_getinterruptmask:
 928              	.LFB22:
 586:ioLibrary_Driver-master/Ethernet/wizchip_conf.c **** 
 587:ioLibrary_Driver-master/Ethernet/wizchip_conf.c **** intr_kind wizchip_getinterruptmask(void)
 588:ioLibrary_Driver-master/Ethernet/wizchip_conf.c **** {
 929              		.loc 1 588 1 is_stmt 1 view -0
 930              		.cfi_startproc
 931              		@ args = 0, pretend = 0, frame = 0
 932              		@ frame_needed = 0, uses_anonymous_args = 0
 933 0000 10B5     		push	{r4, lr}
 934              	.LCFI7:
 935              		.cfi_def_cfa_offset 8
 936              		.cfi_offset 4, -8
 937              		.cfi_offset 14, -4
 589:ioLibrary_Driver-master/Ethernet/wizchip_conf.c ****    uint8_t imr  = 0;
 938              		.loc 1 589 4 view .LVU208
 939              	.LVL68:
 590:ioLibrary_Driver-master/Ethernet/wizchip_conf.c ****    uint8_t simr = 0;
 940              		.loc 1 590 4 view .LVU209
 591:ioLibrary_Driver-master/Ethernet/wizchip_conf.c ****    uint16_t ret = 0;
 941              		.loc 1 591 4 view .LVU210
 592:ioLibrary_Driver-master/Ethernet/wizchip_conf.c **** #if _WIZCHIP_ < W5200
 593:ioLibrary_Driver-master/Ethernet/wizchip_conf.c ****    imr  = getIMR();
 594:ioLibrary_Driver-master/Ethernet/wizchip_conf.c ****    simr = imr & 0x0F;
 595:ioLibrary_Driver-master/Ethernet/wizchip_conf.c **** //A20150601 : For integrating with W5300
 596:ioLibrary_Driver-master/Ethernet/wizchip_conf.c **** #elif _WIZCHIP_ == W5300
 597:ioLibrary_Driver-master/Ethernet/wizchip_conf.c ****    ret = getIMR();
 598:ioLibrary_Driver-master/Ethernet/wizchip_conf.c ****    imr = (uint8_t)(ret >> 8);
 599:ioLibrary_Driver-master/Ethernet/wizchip_conf.c ****    simr = (uint8_t)ret;
 600:ioLibrary_Driver-master/Ethernet/wizchip_conf.c **** #else
 601:ioLibrary_Driver-master/Ethernet/wizchip_conf.c ****    imr  = getIMR();
 942              		.loc 1 601 4 view .LVU211
 943              		.loc 1 601 11 is_stmt 0 view .LVU212
ARM GAS  C:\Users\VIDCOM~1\AppData\Local\Temp\cciRpnMV.s 			page 28


 944 0002 4FF4B050 		mov	r0, #5632
 945 0006 FFF7FEFF 		bl	WIZCHIP_READ
 946              	.LVL69:
 947 000a 0446     		mov	r4, r0
 948              	.LVL70:
 602:ioLibrary_Driver-master/Ethernet/wizchip_conf.c ****    simr = getSIMR();
 949              		.loc 1 602 4 is_stmt 1 view .LVU213
 950              		.loc 1 602 11 is_stmt 0 view .LVU214
 951 000c 4FF4C050 		mov	r0, #6144
 952 0010 FFF7FEFF 		bl	WIZCHIP_READ
 953              	.LVL71:
 603:ioLibrary_Driver-master/Ethernet/wizchip_conf.c **** #endif         
 604:ioLibrary_Driver-master/Ethernet/wizchip_conf.c **** 
 605:ioLibrary_Driver-master/Ethernet/wizchip_conf.c **** #if _WIZCHIP_ < W5500
 606:ioLibrary_Driver-master/Ethernet/wizchip_conf.c ****    imr &= ~(1<<4); // IK_WOL
 607:ioLibrary_Driver-master/Ethernet/wizchip_conf.c **** #endif
 608:ioLibrary_Driver-master/Ethernet/wizchip_conf.c **** #if _WIZCHIP_ == W5200
 609:ioLibrary_Driver-master/Ethernet/wizchip_conf.c ****    imr &= ~(1 << 6);  // IK_DEST_UNREACH
 610:ioLibrary_Driver-master/Ethernet/wizchip_conf.c **** #endif
 611:ioLibrary_Driver-master/Ethernet/wizchip_conf.c ****   ret = simr;
 954              		.loc 1 611 3 is_stmt 1 view .LVU215
 612:ioLibrary_Driver-master/Ethernet/wizchip_conf.c ****   ret = (ret << 8) + imr;
 955              		.loc 1 612 3 view .LVU216
 956              		.loc 1 612 14 is_stmt 0 view .LVU217
 957 0014 0302     		lsls	r3, r0, #8
 958 0016 9BB2     		uxth	r3, r3
 959              		.loc 1 612 7 view .LVU218
 960 0018 1819     		adds	r0, r3, r4
 961              	.LVL72:
 613:ioLibrary_Driver-master/Ethernet/wizchip_conf.c ****   return (intr_kind)ret;
 962              		.loc 1 613 3 is_stmt 1 view .LVU219
 614:ioLibrary_Driver-master/Ethernet/wizchip_conf.c **** }
 963              		.loc 1 614 1 is_stmt 0 view .LVU220
 964 001a 80B2     		uxth	r0, r0
 965              		.loc 1 614 1 view .LVU221
 966 001c 10BD     		pop	{r4, pc}
 967              		.loc 1 614 1 view .LVU222
 968              		.cfi_endproc
 969              	.LFE22:
 971              		.section	.text.wizphy_getphylink,"ax",%progbits
 972              		.align	1
 973              		.global	wizphy_getphylink
 974              		.syntax unified
 975              		.thumb
 976              		.thumb_func
 978              	wizphy_getphylink:
 979              	.LFB23:
 615:ioLibrary_Driver-master/Ethernet/wizchip_conf.c **** 
 616:ioLibrary_Driver-master/Ethernet/wizchip_conf.c **** int8_t wizphy_getphylink(void)
 617:ioLibrary_Driver-master/Ethernet/wizchip_conf.c **** {
 980              		.loc 1 617 1 is_stmt 1 view -0
 981              		.cfi_startproc
 982              		@ args = 0, pretend = 0, frame = 0
 983              		@ frame_needed = 0, uses_anonymous_args = 0
 984 0000 08B5     		push	{r3, lr}
 985              	.LCFI8:
 986              		.cfi_def_cfa_offset 8
ARM GAS  C:\Users\VIDCOM~1\AppData\Local\Temp\cciRpnMV.s 			page 29


 987              		.cfi_offset 3, -8
 988              		.cfi_offset 14, -4
 618:ioLibrary_Driver-master/Ethernet/wizchip_conf.c ****    int8_t tmp = PHY_LINK_OFF;
 989              		.loc 1 618 4 view .LVU224
 990              	.LVL73:
 619:ioLibrary_Driver-master/Ethernet/wizchip_conf.c **** #if _WIZCHIP_ == W5100S
 620:ioLibrary_Driver-master/Ethernet/wizchip_conf.c ****    if(getPHYSR() & PHYSR_LNK)
 621:ioLibrary_Driver-master/Ethernet/wizchip_conf.c **** 	   tmp = PHY_LINK_ON;
 622:ioLibrary_Driver-master/Ethernet/wizchip_conf.c **** #elif   _WIZCHIP_ == W5200
 623:ioLibrary_Driver-master/Ethernet/wizchip_conf.c ****    if(getPHYSTATUS() & PHYSTATUS_LINK)
 624:ioLibrary_Driver-master/Ethernet/wizchip_conf.c ****       tmp = PHY_LINK_ON;
 625:ioLibrary_Driver-master/Ethernet/wizchip_conf.c **** #elif _WIZCHIP_ == W5500
 626:ioLibrary_Driver-master/Ethernet/wizchip_conf.c ****    if(getPHYCFGR() & PHYCFGR_LNK_ON)
 991              		.loc 1 626 4 view .LVU225
 992              		.loc 1 626 7 is_stmt 0 view .LVU226
 993 0002 4FF43850 		mov	r0, #11776
 994 0006 FFF7FEFF 		bl	WIZCHIP_READ
 995              	.LVL74:
 996              		.loc 1 626 6 view .LVU227
 997 000a 10F0010F 		tst	r0, #1
 998 000e 01D1     		bne	.L79
 618:ioLibrary_Driver-master/Ethernet/wizchip_conf.c ****    int8_t tmp = PHY_LINK_OFF;
 999              		.loc 1 618 11 view .LVU228
 1000 0010 0020     		movs	r0, #0
 1001              	.L78:
 1002              	.LVL75:
 627:ioLibrary_Driver-master/Ethernet/wizchip_conf.c ****       tmp = PHY_LINK_ON;
 628:ioLibrary_Driver-master/Ethernet/wizchip_conf.c **** 
 629:ioLibrary_Driver-master/Ethernet/wizchip_conf.c **** #else
 630:ioLibrary_Driver-master/Ethernet/wizchip_conf.c ****    tmp = -1;
 631:ioLibrary_Driver-master/Ethernet/wizchip_conf.c **** #endif
 632:ioLibrary_Driver-master/Ethernet/wizchip_conf.c ****    return tmp;
 1003              		.loc 1 632 4 is_stmt 1 view .LVU229
 633:ioLibrary_Driver-master/Ethernet/wizchip_conf.c **** }
 1004              		.loc 1 633 1 is_stmt 0 view .LVU230
 1005 0012 08BD     		pop	{r3, pc}
 1006              	.LVL76:
 1007              	.L79:
 627:ioLibrary_Driver-master/Ethernet/wizchip_conf.c ****       tmp = PHY_LINK_ON;
 1008              		.loc 1 627 11 view .LVU231
 1009 0014 0120     		movs	r0, #1
 1010 0016 FCE7     		b	.L78
 1011              		.cfi_endproc
 1012              	.LFE23:
 1014              		.section	.text.wizphy_getphypmode,"ax",%progbits
 1015              		.align	1
 1016              		.global	wizphy_getphypmode
 1017              		.syntax unified
 1018              		.thumb
 1019              		.thumb_func
 1021              	wizphy_getphypmode:
 1022              	.LFB24:
 634:ioLibrary_Driver-master/Ethernet/wizchip_conf.c **** 
 635:ioLibrary_Driver-master/Ethernet/wizchip_conf.c **** #if _WIZCHIP_ > W5100
 636:ioLibrary_Driver-master/Ethernet/wizchip_conf.c **** 
 637:ioLibrary_Driver-master/Ethernet/wizchip_conf.c **** int8_t wizphy_getphypmode(void)
 638:ioLibrary_Driver-master/Ethernet/wizchip_conf.c **** {
ARM GAS  C:\Users\VIDCOM~1\AppData\Local\Temp\cciRpnMV.s 			page 30


 1023              		.loc 1 638 1 is_stmt 1 view -0
 1024              		.cfi_startproc
 1025              		@ args = 0, pretend = 0, frame = 0
 1026              		@ frame_needed = 0, uses_anonymous_args = 0
 1027 0000 08B5     		push	{r3, lr}
 1028              	.LCFI9:
 1029              		.cfi_def_cfa_offset 8
 1030              		.cfi_offset 3, -8
 1031              		.cfi_offset 14, -4
 639:ioLibrary_Driver-master/Ethernet/wizchip_conf.c ****    int8_t tmp = 0;
 1032              		.loc 1 639 4 view .LVU233
 1033              	.LVL77:
 640:ioLibrary_Driver-master/Ethernet/wizchip_conf.c ****    #if   _WIZCHIP_ == W5200
 641:ioLibrary_Driver-master/Ethernet/wizchip_conf.c ****       if(getPHYSTATUS() & PHYSTATUS_POWERDOWN)
 642:ioLibrary_Driver-master/Ethernet/wizchip_conf.c ****          tmp = PHY_POWER_DOWN;
 643:ioLibrary_Driver-master/Ethernet/wizchip_conf.c ****       else          
 644:ioLibrary_Driver-master/Ethernet/wizchip_conf.c ****          tmp = PHY_POWER_NORM;
 645:ioLibrary_Driver-master/Ethernet/wizchip_conf.c ****    #elif _WIZCHIP_ == 5500
 646:ioLibrary_Driver-master/Ethernet/wizchip_conf.c ****       if((getPHYCFGR() & PHYCFGR_OPMDC_ALLA) == PHYCFGR_OPMDC_PDOWN)
 1034              		.loc 1 646 7 view .LVU234
 1035              		.loc 1 646 11 is_stmt 0 view .LVU235
 1036 0002 4FF43850 		mov	r0, #11776
 1037 0006 FFF7FEFF 		bl	WIZCHIP_READ
 1038              	.LVL78:
 1039              		.loc 1 646 9 view .LVU236
 1040 000a 00F03800 		and	r0, r0, #56
 1041 000e 3028     		cmp	r0, #48
 1042 0010 01D0     		beq	.L85
 647:ioLibrary_Driver-master/Ethernet/wizchip_conf.c ****          tmp = PHY_POWER_DOWN;
 648:ioLibrary_Driver-master/Ethernet/wizchip_conf.c ****       else 
 649:ioLibrary_Driver-master/Ethernet/wizchip_conf.c ****          tmp = PHY_POWER_NORM;
 1043              		.loc 1 649 14 view .LVU237
 1044 0012 0020     		movs	r0, #0
 1045              	.L82:
 1046              	.LVL79:
 650:ioLibrary_Driver-master/Ethernet/wizchip_conf.c ****    #else
 651:ioLibrary_Driver-master/Ethernet/wizchip_conf.c ****       tmp = -1;
 652:ioLibrary_Driver-master/Ethernet/wizchip_conf.c ****    #endif
 653:ioLibrary_Driver-master/Ethernet/wizchip_conf.c ****    return tmp;
 1047              		.loc 1 653 4 is_stmt 1 view .LVU238
 654:ioLibrary_Driver-master/Ethernet/wizchip_conf.c **** }
 1048              		.loc 1 654 1 is_stmt 0 view .LVU239
 1049 0014 08BD     		pop	{r3, pc}
 1050              	.LVL80:
 1051              	.L85:
 647:ioLibrary_Driver-master/Ethernet/wizchip_conf.c ****          tmp = PHY_POWER_DOWN;
 1052              		.loc 1 647 14 view .LVU240
 1053 0016 0120     		movs	r0, #1
 1054 0018 FCE7     		b	.L82
 1055              		.cfi_endproc
 1056              	.LFE24:
 1058              		.section	.text.wizphy_reset,"ax",%progbits
 1059              		.align	1
 1060              		.global	wizphy_reset
 1061              		.syntax unified
 1062              		.thumb
 1063              		.thumb_func
ARM GAS  C:\Users\VIDCOM~1\AppData\Local\Temp\cciRpnMV.s 			page 31


 1065              	wizphy_reset:
 1066              	.LFB25:
 655:ioLibrary_Driver-master/Ethernet/wizchip_conf.c **** #endif
 656:ioLibrary_Driver-master/Ethernet/wizchip_conf.c **** 
 657:ioLibrary_Driver-master/Ethernet/wizchip_conf.c **** #if _WIZCHIP_ == W5100S
 658:ioLibrary_Driver-master/Ethernet/wizchip_conf.c **** void wizphy_reset(void)
 659:ioLibrary_Driver-master/Ethernet/wizchip_conf.c **** {
 660:ioLibrary_Driver-master/Ethernet/wizchip_conf.c **** 	uint16_t tmp = wiz_mdio_read(PHYMDIO_BMCR);
 661:ioLibrary_Driver-master/Ethernet/wizchip_conf.c **** 	tmp |= BMCR_RESET;
 662:ioLibrary_Driver-master/Ethernet/wizchip_conf.c **** 	wiz_mdio_write(PHYMDIO_BMCR, tmp);
 663:ioLibrary_Driver-master/Ethernet/wizchip_conf.c **** 	while(wiz_mdio_read(PHYMDIO_BMCR)&BMCR_RESET){}
 664:ioLibrary_Driver-master/Ethernet/wizchip_conf.c **** }
 665:ioLibrary_Driver-master/Ethernet/wizchip_conf.c **** 
 666:ioLibrary_Driver-master/Ethernet/wizchip_conf.c **** void wizphy_setphyconf(wiz_PhyConf* phyconf)
 667:ioLibrary_Driver-master/Ethernet/wizchip_conf.c **** {
 668:ioLibrary_Driver-master/Ethernet/wizchip_conf.c ****    uint16_t tmp = wiz_mdio_read(PHYMDIO_BMCR);
 669:ioLibrary_Driver-master/Ethernet/wizchip_conf.c ****    if(phyconf->mode == PHY_MODE_AUTONEGO)
 670:ioLibrary_Driver-master/Ethernet/wizchip_conf.c ****       tmp |= BMCR_AUTONEGO;
 671:ioLibrary_Driver-master/Ethernet/wizchip_conf.c ****    else
 672:ioLibrary_Driver-master/Ethernet/wizchip_conf.c ****    {
 673:ioLibrary_Driver-master/Ethernet/wizchip_conf.c **** 	  tmp &= ~BMCR_AUTONEGO;
 674:ioLibrary_Driver-master/Ethernet/wizchip_conf.c ****       if(phyconf->duplex == PHY_DUPLEX_FULL)
 675:ioLibrary_Driver-master/Ethernet/wizchip_conf.c ****       {
 676:ioLibrary_Driver-master/Ethernet/wizchip_conf.c ****     	  tmp |= BMCR_DUP;
 677:ioLibrary_Driver-master/Ethernet/wizchip_conf.c ****       }
 678:ioLibrary_Driver-master/Ethernet/wizchip_conf.c ****       else
 679:ioLibrary_Driver-master/Ethernet/wizchip_conf.c ****       {
 680:ioLibrary_Driver-master/Ethernet/wizchip_conf.c ****     	  tmp &= ~BMCR_DUP;
 681:ioLibrary_Driver-master/Ethernet/wizchip_conf.c ****       }
 682:ioLibrary_Driver-master/Ethernet/wizchip_conf.c ****       if(phyconf->speed == PHY_SPEED_100)
 683:ioLibrary_Driver-master/Ethernet/wizchip_conf.c ****       {
 684:ioLibrary_Driver-master/Ethernet/wizchip_conf.c ****     	  tmp |= BMCR_SPEED;
 685:ioLibrary_Driver-master/Ethernet/wizchip_conf.c ****       }
 686:ioLibrary_Driver-master/Ethernet/wizchip_conf.c ****       else
 687:ioLibrary_Driver-master/Ethernet/wizchip_conf.c ****       {
 688:ioLibrary_Driver-master/Ethernet/wizchip_conf.c ****     	  tmp &= ~BMCR_SPEED;
 689:ioLibrary_Driver-master/Ethernet/wizchip_conf.c ****       }
 690:ioLibrary_Driver-master/Ethernet/wizchip_conf.c ****    }
 691:ioLibrary_Driver-master/Ethernet/wizchip_conf.c ****    wiz_mdio_write(PHYMDIO_BMCR, tmp);
 692:ioLibrary_Driver-master/Ethernet/wizchip_conf.c **** }
 693:ioLibrary_Driver-master/Ethernet/wizchip_conf.c **** 
 694:ioLibrary_Driver-master/Ethernet/wizchip_conf.c **** void wizphy_getphyconf(wiz_PhyConf* phyconf)
 695:ioLibrary_Driver-master/Ethernet/wizchip_conf.c **** {
 696:ioLibrary_Driver-master/Ethernet/wizchip_conf.c ****    uint16_t tmp = 0;
 697:ioLibrary_Driver-master/Ethernet/wizchip_conf.c ****    tmp = wiz_mdio_read(PHYMDIO_BMCR);
 698:ioLibrary_Driver-master/Ethernet/wizchip_conf.c ****    phyconf->by   = PHY_CONFBY_SW;
 699:ioLibrary_Driver-master/Ethernet/wizchip_conf.c ****    if(tmp & BMCR_AUTONEGO)
 700:ioLibrary_Driver-master/Ethernet/wizchip_conf.c ****    {
 701:ioLibrary_Driver-master/Ethernet/wizchip_conf.c **** 	   phyconf->mode = PHY_MODE_AUTONEGO;
 702:ioLibrary_Driver-master/Ethernet/wizchip_conf.c ****    }
 703:ioLibrary_Driver-master/Ethernet/wizchip_conf.c ****    else
 704:ioLibrary_Driver-master/Ethernet/wizchip_conf.c ****    {
 705:ioLibrary_Driver-master/Ethernet/wizchip_conf.c **** 	   phyconf->mode = PHY_MODE_MANUAL;
 706:ioLibrary_Driver-master/Ethernet/wizchip_conf.c **** 	   if(tmp&BMCR_DUP) phyconf->duplex = PHY_DUPLEX_FULL;
 707:ioLibrary_Driver-master/Ethernet/wizchip_conf.c **** 	   else phyconf->duplex = PHY_DUPLEX_HALF;
 708:ioLibrary_Driver-master/Ethernet/wizchip_conf.c **** 	   if(tmp&BMCR_SPEED) phyconf->speed = PHY_SPEED_100;
 709:ioLibrary_Driver-master/Ethernet/wizchip_conf.c **** 	   else phyconf->speed = PHY_SPEED_10;
ARM GAS  C:\Users\VIDCOM~1\AppData\Local\Temp\cciRpnMV.s 			page 32


 710:ioLibrary_Driver-master/Ethernet/wizchip_conf.c ****    }
 711:ioLibrary_Driver-master/Ethernet/wizchip_conf.c **** }
 712:ioLibrary_Driver-master/Ethernet/wizchip_conf.c **** 
 713:ioLibrary_Driver-master/Ethernet/wizchip_conf.c **** int8_t wizphy_setphypmode(uint8_t pmode)
 714:ioLibrary_Driver-master/Ethernet/wizchip_conf.c **** {
 715:ioLibrary_Driver-master/Ethernet/wizchip_conf.c ****    uint16_t tmp = 0;
 716:ioLibrary_Driver-master/Ethernet/wizchip_conf.c ****    tmp = wiz_mdio_read(PHYMDIO_BMCR);
 717:ioLibrary_Driver-master/Ethernet/wizchip_conf.c ****    if( pmode == PHY_POWER_DOWN)
 718:ioLibrary_Driver-master/Ethernet/wizchip_conf.c ****    {
 719:ioLibrary_Driver-master/Ethernet/wizchip_conf.c ****       tmp |= BMCR_PWDN;
 720:ioLibrary_Driver-master/Ethernet/wizchip_conf.c ****    }
 721:ioLibrary_Driver-master/Ethernet/wizchip_conf.c ****    else
 722:ioLibrary_Driver-master/Ethernet/wizchip_conf.c ****    {
 723:ioLibrary_Driver-master/Ethernet/wizchip_conf.c **** 	   tmp &= ~BMCR_PWDN;
 724:ioLibrary_Driver-master/Ethernet/wizchip_conf.c ****    }
 725:ioLibrary_Driver-master/Ethernet/wizchip_conf.c ****    wiz_mdio_write(PHYMDIO_BMCR, tmp);
 726:ioLibrary_Driver-master/Ethernet/wizchip_conf.c ****    tmp = wiz_mdio_read(PHYMDIO_BMCR);
 727:ioLibrary_Driver-master/Ethernet/wizchip_conf.c ****    if( pmode == PHY_POWER_DOWN)
 728:ioLibrary_Driver-master/Ethernet/wizchip_conf.c ****    {
 729:ioLibrary_Driver-master/Ethernet/wizchip_conf.c ****       if(tmp & BMCR_PWDN) return 0;
 730:ioLibrary_Driver-master/Ethernet/wizchip_conf.c ****    }
 731:ioLibrary_Driver-master/Ethernet/wizchip_conf.c ****    else
 732:ioLibrary_Driver-master/Ethernet/wizchip_conf.c ****    {
 733:ioLibrary_Driver-master/Ethernet/wizchip_conf.c ****       if((tmp & BMCR_PWDN) != BMCR_PWDN) return 0;
 734:ioLibrary_Driver-master/Ethernet/wizchip_conf.c ****    }
 735:ioLibrary_Driver-master/Ethernet/wizchip_conf.c ****    return -1;
 736:ioLibrary_Driver-master/Ethernet/wizchip_conf.c **** }
 737:ioLibrary_Driver-master/Ethernet/wizchip_conf.c **** 
 738:ioLibrary_Driver-master/Ethernet/wizchip_conf.c **** #endif
 739:ioLibrary_Driver-master/Ethernet/wizchip_conf.c **** #if _WIZCHIP_ == W5500
 740:ioLibrary_Driver-master/Ethernet/wizchip_conf.c **** void wizphy_reset(void)
 741:ioLibrary_Driver-master/Ethernet/wizchip_conf.c **** {
 1067              		.loc 1 741 1 is_stmt 1 view -0
 1068              		.cfi_startproc
 1069              		@ args = 0, pretend = 0, frame = 0
 1070              		@ frame_needed = 0, uses_anonymous_args = 0
 1071 0000 08B5     		push	{r3, lr}
 1072              	.LCFI10:
 1073              		.cfi_def_cfa_offset 8
 1074              		.cfi_offset 3, -8
 1075              		.cfi_offset 14, -4
 742:ioLibrary_Driver-master/Ethernet/wizchip_conf.c ****    uint8_t tmp = getPHYCFGR();
 1076              		.loc 1 742 4 view .LVU242
 1077              		.loc 1 742 18 is_stmt 0 view .LVU243
 1078 0002 4FF43850 		mov	r0, #11776
 1079 0006 FFF7FEFF 		bl	WIZCHIP_READ
 1080              	.LVL81:
 743:ioLibrary_Driver-master/Ethernet/wizchip_conf.c ****    tmp &= PHYCFGR_RST;
 1081              		.loc 1 743 4 is_stmt 1 view .LVU244
 744:ioLibrary_Driver-master/Ethernet/wizchip_conf.c ****    setPHYCFGR(tmp);
 1082              		.loc 1 744 4 view .LVU245
 1083 000a 00F07F01 		and	r1, r0, #127
 1084 000e 4FF43850 		mov	r0, #11776
 1085              	.LVL82:
 1086              		.loc 1 744 4 is_stmt 0 view .LVU246
 1087 0012 FFF7FEFF 		bl	WIZCHIP_WRITE
 1088              	.LVL83:
ARM GAS  C:\Users\VIDCOM~1\AppData\Local\Temp\cciRpnMV.s 			page 33


 745:ioLibrary_Driver-master/Ethernet/wizchip_conf.c ****    tmp = getPHYCFGR();
 1089              		.loc 1 745 4 is_stmt 1 view .LVU247
 1090              		.loc 1 745 10 is_stmt 0 view .LVU248
 1091 0016 4FF43850 		mov	r0, #11776
 1092 001a FFF7FEFF 		bl	WIZCHIP_READ
 1093              	.LVL84:
 746:ioLibrary_Driver-master/Ethernet/wizchip_conf.c ****    tmp |= ~PHYCFGR_RST;
 1094              		.loc 1 746 4 is_stmt 1 view .LVU249
 1095              		.loc 1 746 8 is_stmt 0 view .LVU250
 1096 001e 60F07F01 		orn	r1, r0, #127
 1097              	.LVL85:
 747:ioLibrary_Driver-master/Ethernet/wizchip_conf.c ****    setPHYCFGR(tmp);
 1098              		.loc 1 747 4 is_stmt 1 view .LVU251
 1099 0022 C9B2     		uxtb	r1, r1
 1100              		.loc 1 747 4 is_stmt 0 view .LVU252
 1101 0024 4FF43850 		mov	r0, #11776
 1102 0028 FFF7FEFF 		bl	WIZCHIP_WRITE
 1103              	.LVL86:
 748:ioLibrary_Driver-master/Ethernet/wizchip_conf.c **** }
 1104              		.loc 1 748 1 view .LVU253
 1105 002c 08BD     		pop	{r3, pc}
 1106              		.cfi_endproc
 1107              	.LFE25:
 1109              		.section	.text.wizphy_setphyconf,"ax",%progbits
 1110              		.align	1
 1111              		.global	wizphy_setphyconf
 1112              		.syntax unified
 1113              		.thumb
 1114              		.thumb_func
 1116              	wizphy_setphyconf:
 1117              	.LVL87:
 1118              	.LFB26:
 749:ioLibrary_Driver-master/Ethernet/wizchip_conf.c **** 
 750:ioLibrary_Driver-master/Ethernet/wizchip_conf.c **** void wizphy_setphyconf(wiz_PhyConf* phyconf)
 751:ioLibrary_Driver-master/Ethernet/wizchip_conf.c **** {
 1119              		.loc 1 751 1 is_stmt 1 view -0
 1120              		.cfi_startproc
 1121              		@ args = 0, pretend = 0, frame = 0
 1122              		@ frame_needed = 0, uses_anonymous_args = 0
 1123              		.loc 1 751 1 is_stmt 0 view .LVU255
 1124 0000 08B5     		push	{r3, lr}
 1125              	.LCFI11:
 1126              		.cfi_def_cfa_offset 8
 1127              		.cfi_offset 3, -8
 1128              		.cfi_offset 14, -4
 752:ioLibrary_Driver-master/Ethernet/wizchip_conf.c ****    uint8_t tmp = 0;
 1129              		.loc 1 752 4 is_stmt 1 view .LVU256
 1130              	.LVL88:
 753:ioLibrary_Driver-master/Ethernet/wizchip_conf.c ****    if(phyconf->by == PHY_CONFBY_SW)
 1131              		.loc 1 753 4 view .LVU257
 1132              		.loc 1 753 14 is_stmt 0 view .LVU258
 1133 0002 0378     		ldrb	r3, [r0]	@ zero_extendqisi2
 1134              		.loc 1 753 6 view .LVU259
 1135 0004 012B     		cmp	r3, #1
 1136 0006 0CD0     		beq	.L96
 754:ioLibrary_Driver-master/Ethernet/wizchip_conf.c ****       tmp |= PHYCFGR_OPMD;
 755:ioLibrary_Driver-master/Ethernet/wizchip_conf.c ****    else
ARM GAS  C:\Users\VIDCOM~1\AppData\Local\Temp\cciRpnMV.s 			page 34


 756:ioLibrary_Driver-master/Ethernet/wizchip_conf.c ****       tmp &= ~PHYCFGR_OPMD;
 1137              		.loc 1 756 11 view .LVU260
 1138 0008 0021     		movs	r1, #0
 1139              	.L89:
 1140              	.LVL89:
 757:ioLibrary_Driver-master/Ethernet/wizchip_conf.c ****    if(phyconf->mode == PHY_MODE_AUTONEGO)
 1141              		.loc 1 757 4 is_stmt 1 view .LVU261
 1142              		.loc 1 757 14 is_stmt 0 view .LVU262
 1143 000a 4378     		ldrb	r3, [r0, #1]	@ zero_extendqisi2
 1144              		.loc 1 757 6 view .LVU263
 1145 000c 012B     		cmp	r3, #1
 1146 000e 0AD0     		beq	.L97
 758:ioLibrary_Driver-master/Ethernet/wizchip_conf.c ****       tmp |= PHYCFGR_OPMDC_ALLA;
 759:ioLibrary_Driver-master/Ethernet/wizchip_conf.c ****    else
 760:ioLibrary_Driver-master/Ethernet/wizchip_conf.c ****    {
 761:ioLibrary_Driver-master/Ethernet/wizchip_conf.c ****       if(phyconf->duplex == PHY_DUPLEX_FULL)
 1147              		.loc 1 761 7 is_stmt 1 view .LVU264
 1148              		.loc 1 761 17 is_stmt 0 view .LVU265
 1149 0010 C378     		ldrb	r3, [r0, #3]	@ zero_extendqisi2
 1150              		.loc 1 761 9 view .LVU266
 1151 0012 012B     		cmp	r3, #1
 1152 0014 10D0     		beq	.L98
 762:ioLibrary_Driver-master/Ethernet/wizchip_conf.c ****       {
 763:ioLibrary_Driver-master/Ethernet/wizchip_conf.c ****          if(phyconf->speed == PHY_SPEED_100)
 764:ioLibrary_Driver-master/Ethernet/wizchip_conf.c ****             tmp |= PHYCFGR_OPMDC_100F;
 765:ioLibrary_Driver-master/Ethernet/wizchip_conf.c ****          else
 766:ioLibrary_Driver-master/Ethernet/wizchip_conf.c ****             tmp |= PHYCFGR_OPMDC_10F;
 767:ioLibrary_Driver-master/Ethernet/wizchip_conf.c ****       }   
 768:ioLibrary_Driver-master/Ethernet/wizchip_conf.c ****       else
 769:ioLibrary_Driver-master/Ethernet/wizchip_conf.c ****       {
 770:ioLibrary_Driver-master/Ethernet/wizchip_conf.c ****          if(phyconf->speed == PHY_SPEED_100)
 1153              		.loc 1 770 10 is_stmt 1 view .LVU267
 1154              		.loc 1 770 20 is_stmt 0 view .LVU268
 1155 0016 8378     		ldrb	r3, [r0, #2]	@ zero_extendqisi2
 1156              		.loc 1 770 12 view .LVU269
 1157 0018 012B     		cmp	r3, #1
 1158 001a 06D1     		bne	.L91
 771:ioLibrary_Driver-master/Ethernet/wizchip_conf.c ****             tmp |= PHYCFGR_OPMDC_100H;
 1159              		.loc 1 771 13 is_stmt 1 view .LVU270
 1160              		.loc 1 771 17 is_stmt 0 view .LVU271
 1161 001c 41F01001 		orr	r1, r1, #16
 1162              	.LVL90:
 1163              		.loc 1 771 17 view .LVU272
 1164 0020 03E0     		b	.L91
 1165              	.LVL91:
 1166              	.L96:
 754:ioLibrary_Driver-master/Ethernet/wizchip_conf.c ****    else
 1167              		.loc 1 754 11 view .LVU273
 1168 0022 4021     		movs	r1, #64
 1169 0024 F1E7     		b	.L89
 1170              	.LVL92:
 1171              	.L97:
 758:ioLibrary_Driver-master/Ethernet/wizchip_conf.c ****    else
 1172              		.loc 1 758 7 is_stmt 1 view .LVU274
 758:ioLibrary_Driver-master/Ethernet/wizchip_conf.c ****    else
 1173              		.loc 1 758 11 is_stmt 0 view .LVU275
 1174 0026 41F03801 		orr	r1, r1, #56
ARM GAS  C:\Users\VIDCOM~1\AppData\Local\Temp\cciRpnMV.s 			page 35


 1175              	.LVL93:
 1176              	.L91:
 772:ioLibrary_Driver-master/Ethernet/wizchip_conf.c ****          else
 773:ioLibrary_Driver-master/Ethernet/wizchip_conf.c ****             tmp |= PHYCFGR_OPMDC_10H;
 774:ioLibrary_Driver-master/Ethernet/wizchip_conf.c ****       }
 775:ioLibrary_Driver-master/Ethernet/wizchip_conf.c ****    }
 776:ioLibrary_Driver-master/Ethernet/wizchip_conf.c ****    setPHYCFGR(tmp);
 1177              		.loc 1 776 4 is_stmt 1 view .LVU276
 1178 002a 4FF43850 		mov	r0, #11776
 1179              	.LVL94:
 1180              		.loc 1 776 4 is_stmt 0 view .LVU277
 1181 002e FFF7FEFF 		bl	WIZCHIP_WRITE
 1182              	.LVL95:
 777:ioLibrary_Driver-master/Ethernet/wizchip_conf.c ****    wizphy_reset();
 1183              		.loc 1 777 4 is_stmt 1 view .LVU278
 1184 0032 FFF7FEFF 		bl	wizphy_reset
 1185              	.LVL96:
 778:ioLibrary_Driver-master/Ethernet/wizchip_conf.c **** }
 1186              		.loc 1 778 1 is_stmt 0 view .LVU279
 1187 0036 08BD     		pop	{r3, pc}
 1188              	.LVL97:
 1189              	.L98:
 763:ioLibrary_Driver-master/Ethernet/wizchip_conf.c ****             tmp |= PHYCFGR_OPMDC_100F;
 1190              		.loc 1 763 10 is_stmt 1 view .LVU280
 763:ioLibrary_Driver-master/Ethernet/wizchip_conf.c ****             tmp |= PHYCFGR_OPMDC_100F;
 1191              		.loc 1 763 20 is_stmt 0 view .LVU281
 1192 0038 8378     		ldrb	r3, [r0, #2]	@ zero_extendqisi2
 763:ioLibrary_Driver-master/Ethernet/wizchip_conf.c ****             tmp |= PHYCFGR_OPMDC_100F;
 1193              		.loc 1 763 12 view .LVU282
 1194 003a 012B     		cmp	r3, #1
 1195 003c 02D0     		beq	.L99
 766:ioLibrary_Driver-master/Ethernet/wizchip_conf.c ****       }   
 1196              		.loc 1 766 13 is_stmt 1 view .LVU283
 766:ioLibrary_Driver-master/Ethernet/wizchip_conf.c ****       }   
 1197              		.loc 1 766 17 is_stmt 0 view .LVU284
 1198 003e 41F00801 		orr	r1, r1, #8
 1199              	.LVL98:
 766:ioLibrary_Driver-master/Ethernet/wizchip_conf.c ****       }   
 1200              		.loc 1 766 17 view .LVU285
 1201 0042 F2E7     		b	.L91
 1202              	.L99:
 764:ioLibrary_Driver-master/Ethernet/wizchip_conf.c ****          else
 1203              		.loc 1 764 13 is_stmt 1 view .LVU286
 764:ioLibrary_Driver-master/Ethernet/wizchip_conf.c ****          else
 1204              		.loc 1 764 17 is_stmt 0 view .LVU287
 1205 0044 41F01801 		orr	r1, r1, #24
 1206              	.LVL99:
 764:ioLibrary_Driver-master/Ethernet/wizchip_conf.c ****          else
 1207              		.loc 1 764 17 view .LVU288
 1208 0048 EFE7     		b	.L91
 1209              		.cfi_endproc
 1210              	.LFE26:
 1212              		.section	.text.wizphy_getphyconf,"ax",%progbits
 1213              		.align	1
 1214              		.global	wizphy_getphyconf
 1215              		.syntax unified
 1216              		.thumb
ARM GAS  C:\Users\VIDCOM~1\AppData\Local\Temp\cciRpnMV.s 			page 36


 1217              		.thumb_func
 1219              	wizphy_getphyconf:
 1220              	.LVL100:
 1221              	.LFB27:
 779:ioLibrary_Driver-master/Ethernet/wizchip_conf.c **** 
 780:ioLibrary_Driver-master/Ethernet/wizchip_conf.c **** void wizphy_getphyconf(wiz_PhyConf* phyconf)
 781:ioLibrary_Driver-master/Ethernet/wizchip_conf.c **** {
 1222              		.loc 1 781 1 is_stmt 1 view -0
 1223              		.cfi_startproc
 1224              		@ args = 0, pretend = 0, frame = 0
 1225              		@ frame_needed = 0, uses_anonymous_args = 0
 1226              		.loc 1 781 1 is_stmt 0 view .LVU290
 1227 0000 10B5     		push	{r4, lr}
 1228              	.LCFI12:
 1229              		.cfi_def_cfa_offset 8
 1230              		.cfi_offset 4, -8
 1231              		.cfi_offset 14, -4
 1232 0002 0446     		mov	r4, r0
 782:ioLibrary_Driver-master/Ethernet/wizchip_conf.c ****    uint8_t tmp = 0;
 1233              		.loc 1 782 4 is_stmt 1 view .LVU291
 1234              	.LVL101:
 783:ioLibrary_Driver-master/Ethernet/wizchip_conf.c ****    tmp = getPHYCFGR();
 1235              		.loc 1 783 4 view .LVU292
 1236              		.loc 1 783 10 is_stmt 0 view .LVU293
 1237 0004 4FF43850 		mov	r0, #11776
 1238              	.LVL102:
 1239              		.loc 1 783 10 view .LVU294
 1240 0008 FFF7FEFF 		bl	WIZCHIP_READ
 1241              	.LVL103:
 784:ioLibrary_Driver-master/Ethernet/wizchip_conf.c ****    phyconf->by   = (tmp & PHYCFGR_OPMD) ? PHY_CONFBY_SW : PHY_CONFBY_HW;
 1242              		.loc 1 784 4 is_stmt 1 view .LVU295
 1243              		.loc 1 784 57 is_stmt 0 view .LVU296
 1244 000c C0F38013 		ubfx	r3, r0, #6, #1
 1245              		.loc 1 784 18 view .LVU297
 1246 0010 2370     		strb	r3, [r4]
 785:ioLibrary_Driver-master/Ethernet/wizchip_conf.c ****    switch(tmp & PHYCFGR_OPMDC_ALLA)
 1247              		.loc 1 785 4 is_stmt 1 view .LVU298
 1248 0012 00F03803 		and	r3, r0, #56
 1249 0016 202B     		cmp	r3, #32
 1250 0018 04D0     		beq	.L101
 1251 001a 382B     		cmp	r3, #56
 1252 001c 02D0     		beq	.L101
 786:ioLibrary_Driver-master/Ethernet/wizchip_conf.c ****    {
 787:ioLibrary_Driver-master/Ethernet/wizchip_conf.c ****       case PHYCFGR_OPMDC_ALLA:
 788:ioLibrary_Driver-master/Ethernet/wizchip_conf.c ****       case PHYCFGR_OPMDC_100FA: 
 789:ioLibrary_Driver-master/Ethernet/wizchip_conf.c ****          phyconf->mode = PHY_MODE_AUTONEGO;
 790:ioLibrary_Driver-master/Ethernet/wizchip_conf.c ****          break;
 791:ioLibrary_Driver-master/Ethernet/wizchip_conf.c ****       default:
 792:ioLibrary_Driver-master/Ethernet/wizchip_conf.c ****          phyconf->mode = PHY_MODE_MANUAL;
 1253              		.loc 1 792 10 view .LVU299
 1254              		.loc 1 792 24 is_stmt 0 view .LVU300
 1255 001e 0022     		movs	r2, #0
 1256 0020 6270     		strb	r2, [r4, #1]
 793:ioLibrary_Driver-master/Ethernet/wizchip_conf.c ****          break;
 1257              		.loc 1 793 10 is_stmt 1 view .LVU301
 1258 0022 01E0     		b	.L103
 1259              	.L101:
ARM GAS  C:\Users\VIDCOM~1\AppData\Local\Temp\cciRpnMV.s 			page 37


 789:ioLibrary_Driver-master/Ethernet/wizchip_conf.c ****          break;
 1260              		.loc 1 789 10 view .LVU302
 789:ioLibrary_Driver-master/Ethernet/wizchip_conf.c ****          break;
 1261              		.loc 1 789 24 is_stmt 0 view .LVU303
 1262 0024 0122     		movs	r2, #1
 1263 0026 6270     		strb	r2, [r4, #1]
 790:ioLibrary_Driver-master/Ethernet/wizchip_conf.c ****       default:
 1264              		.loc 1 790 10 is_stmt 1 view .LVU304
 1265              	.L103:
 794:ioLibrary_Driver-master/Ethernet/wizchip_conf.c ****    }
 795:ioLibrary_Driver-master/Ethernet/wizchip_conf.c ****    switch(tmp & PHYCFGR_OPMDC_ALLA)
 1266              		.loc 1 795 4 view .LVU305
 1267 0028 A3F11002 		sub	r2, r3, #16
 1268 002c D2B2     		uxtb	r2, r2
 1269 002e 102A     		cmp	r2, #16
 1270 0030 05D8     		bhi	.L104
 1271 0032 0D49     		ldr	r1, .L111
 1272 0034 21FA02F2 		lsr	r2, r1, r2
 1273 0038 12F0010F 		tst	r2, #1
 1274 003c 02D1     		bne	.L109
 1275              	.L104:
 796:ioLibrary_Driver-master/Ethernet/wizchip_conf.c ****    {
 797:ioLibrary_Driver-master/Ethernet/wizchip_conf.c ****       case PHYCFGR_OPMDC_100FA:
 798:ioLibrary_Driver-master/Ethernet/wizchip_conf.c ****       case PHYCFGR_OPMDC_100F:
 799:ioLibrary_Driver-master/Ethernet/wizchip_conf.c ****       case PHYCFGR_OPMDC_100H:
 800:ioLibrary_Driver-master/Ethernet/wizchip_conf.c ****          phyconf->speed = PHY_SPEED_100;
 801:ioLibrary_Driver-master/Ethernet/wizchip_conf.c ****          break;
 802:ioLibrary_Driver-master/Ethernet/wizchip_conf.c ****       default:
 803:ioLibrary_Driver-master/Ethernet/wizchip_conf.c ****          phyconf->speed = PHY_SPEED_10;
 1276              		.loc 1 803 10 view .LVU306
 1277              		.loc 1 803 25 is_stmt 0 view .LVU307
 1278 003e 0022     		movs	r2, #0
 1279 0040 A270     		strb	r2, [r4, #2]
 804:ioLibrary_Driver-master/Ethernet/wizchip_conf.c ****          break;
 1280              		.loc 1 804 10 is_stmt 1 view .LVU308
 1281 0042 01E0     		b	.L105
 1282              	.L109:
 800:ioLibrary_Driver-master/Ethernet/wizchip_conf.c ****          break;
 1283              		.loc 1 800 10 view .LVU309
 800:ioLibrary_Driver-master/Ethernet/wizchip_conf.c ****          break;
 1284              		.loc 1 800 25 is_stmt 0 view .LVU310
 1285 0044 0122     		movs	r2, #1
 1286 0046 A270     		strb	r2, [r4, #2]
 801:ioLibrary_Driver-master/Ethernet/wizchip_conf.c ****       default:
 1287              		.loc 1 801 10 is_stmt 1 view .LVU311
 1288              	.L105:
 805:ioLibrary_Driver-master/Ethernet/wizchip_conf.c ****    }
 806:ioLibrary_Driver-master/Ethernet/wizchip_conf.c ****    switch(tmp & PHYCFGR_OPMDC_ALLA)
 1289              		.loc 1 806 4 view .LVU312
 1290 0048 083B     		subs	r3, r3, #8
 1291 004a DBB2     		uxtb	r3, r3
 1292 004c 182B     		cmp	r3, #24
 1293 004e 05D8     		bhi	.L106
 1294 0050 064A     		ldr	r2, .L111+4
 1295 0052 22FA03F3 		lsr	r3, r2, r3
 1296 0056 13F0010F 		tst	r3, #1
 1297 005a 02D1     		bne	.L110
ARM GAS  C:\Users\VIDCOM~1\AppData\Local\Temp\cciRpnMV.s 			page 38


 1298              	.L106:
 807:ioLibrary_Driver-master/Ethernet/wizchip_conf.c ****    {
 808:ioLibrary_Driver-master/Ethernet/wizchip_conf.c ****       case PHYCFGR_OPMDC_100FA:
 809:ioLibrary_Driver-master/Ethernet/wizchip_conf.c ****       case PHYCFGR_OPMDC_100F:
 810:ioLibrary_Driver-master/Ethernet/wizchip_conf.c ****       case PHYCFGR_OPMDC_10F:
 811:ioLibrary_Driver-master/Ethernet/wizchip_conf.c ****          phyconf->duplex = PHY_DUPLEX_FULL;
 812:ioLibrary_Driver-master/Ethernet/wizchip_conf.c ****          break;
 813:ioLibrary_Driver-master/Ethernet/wizchip_conf.c ****       default:
 814:ioLibrary_Driver-master/Ethernet/wizchip_conf.c ****          phyconf->duplex = PHY_DUPLEX_HALF;
 1299              		.loc 1 814 10 view .LVU313
 1300              		.loc 1 814 26 is_stmt 0 view .LVU314
 1301 005c 0023     		movs	r3, #0
 1302 005e E370     		strb	r3, [r4, #3]
 815:ioLibrary_Driver-master/Ethernet/wizchip_conf.c ****          break;
 1303              		.loc 1 815 10 is_stmt 1 view .LVU315
 816:ioLibrary_Driver-master/Ethernet/wizchip_conf.c ****    }
 817:ioLibrary_Driver-master/Ethernet/wizchip_conf.c **** }
 1304              		.loc 1 817 1 is_stmt 0 view .LVU316
 1305 0060 01E0     		b	.L100
 1306              	.L110:
 811:ioLibrary_Driver-master/Ethernet/wizchip_conf.c ****          break;
 1307              		.loc 1 811 10 is_stmt 1 view .LVU317
 811:ioLibrary_Driver-master/Ethernet/wizchip_conf.c ****          break;
 1308              		.loc 1 811 26 is_stmt 0 view .LVU318
 1309 0062 0123     		movs	r3, #1
 1310 0064 E370     		strb	r3, [r4, #3]
 812:ioLibrary_Driver-master/Ethernet/wizchip_conf.c ****       default:
 1311              		.loc 1 812 10 is_stmt 1 view .LVU319
 1312              	.L100:
 1313              		.loc 1 817 1 is_stmt 0 view .LVU320
 1314 0066 10BD     		pop	{r4, pc}
 1315              	.LVL104:
 1316              	.L112:
 1317              		.loc 1 817 1 view .LVU321
 1318              		.align	2
 1319              	.L111:
 1320 0068 01010100 		.word	65793
 1321 006c 01000101 		.word	16842753
 1322              		.cfi_endproc
 1323              	.LFE27:
 1325              		.section	.text.wizphy_getphystat,"ax",%progbits
 1326              		.align	1
 1327              		.global	wizphy_getphystat
 1328              		.syntax unified
 1329              		.thumb
 1330              		.thumb_func
 1332              	wizphy_getphystat:
 1333              	.LVL105:
 1334              	.LFB28:
 818:ioLibrary_Driver-master/Ethernet/wizchip_conf.c **** 
 819:ioLibrary_Driver-master/Ethernet/wizchip_conf.c **** void wizphy_getphystat(wiz_PhyConf* phyconf)
 820:ioLibrary_Driver-master/Ethernet/wizchip_conf.c **** {
 1335              		.loc 1 820 1 is_stmt 1 view -0
 1336              		.cfi_startproc
 1337              		@ args = 0, pretend = 0, frame = 0
 1338              		@ frame_needed = 0, uses_anonymous_args = 0
 1339              		.loc 1 820 1 is_stmt 0 view .LVU323
ARM GAS  C:\Users\VIDCOM~1\AppData\Local\Temp\cciRpnMV.s 			page 39


 1340 0000 10B5     		push	{r4, lr}
 1341              	.LCFI13:
 1342              		.cfi_def_cfa_offset 8
 1343              		.cfi_offset 4, -8
 1344              		.cfi_offset 14, -4
 1345 0002 0446     		mov	r4, r0
 821:ioLibrary_Driver-master/Ethernet/wizchip_conf.c ****    uint8_t tmp = getPHYCFGR();
 1346              		.loc 1 821 4 is_stmt 1 view .LVU324
 1347              		.loc 1 821 18 is_stmt 0 view .LVU325
 1348 0004 4FF43850 		mov	r0, #11776
 1349              	.LVL106:
 1350              		.loc 1 821 18 view .LVU326
 1351 0008 FFF7FEFF 		bl	WIZCHIP_READ
 1352              	.LVL107:
 822:ioLibrary_Driver-master/Ethernet/wizchip_conf.c ****    phyconf->duplex = (tmp & PHYCFGR_DPX_FULL) ? PHY_DUPLEX_FULL : PHY_DUPLEX_HALF;
 1353              		.loc 1 822 4 is_stmt 1 view .LVU327
 1354              		.loc 1 822 65 is_stmt 0 view .LVU328
 1355 000c C0F38003 		ubfx	r3, r0, #2, #1
 1356              		.loc 1 822 20 view .LVU329
 1357 0010 E370     		strb	r3, [r4, #3]
 823:ioLibrary_Driver-master/Ethernet/wizchip_conf.c ****    phyconf->speed  = (tmp & PHYCFGR_SPD_100) ? PHY_SPEED_100 : PHY_SPEED_10;
 1358              		.loc 1 823 4 is_stmt 1 view .LVU330
 1359              		.loc 1 823 62 is_stmt 0 view .LVU331
 1360 0012 C0F34003 		ubfx	r3, r0, #1, #1
 1361              		.loc 1 823 20 view .LVU332
 1362 0016 A370     		strb	r3, [r4, #2]
 824:ioLibrary_Driver-master/Ethernet/wizchip_conf.c **** }
 1363              		.loc 1 824 1 view .LVU333
 1364 0018 10BD     		pop	{r4, pc}
 1365              		.loc 1 824 1 view .LVU334
 1366              		.cfi_endproc
 1367              	.LFE28:
 1369              		.section	.text.wizphy_setphypmode,"ax",%progbits
 1370              		.align	1
 1371              		.global	wizphy_setphypmode
 1372              		.syntax unified
 1373              		.thumb
 1374              		.thumb_func
 1376              	wizphy_setphypmode:
 1377              	.LVL108:
 1378              	.LFB29:
 825:ioLibrary_Driver-master/Ethernet/wizchip_conf.c **** 
 826:ioLibrary_Driver-master/Ethernet/wizchip_conf.c **** int8_t wizphy_setphypmode(uint8_t pmode)
 827:ioLibrary_Driver-master/Ethernet/wizchip_conf.c **** {
 1379              		.loc 1 827 1 is_stmt 1 view -0
 1380              		.cfi_startproc
 1381              		@ args = 0, pretend = 0, frame = 0
 1382              		@ frame_needed = 0, uses_anonymous_args = 0
 1383              		.loc 1 827 1 is_stmt 0 view .LVU336
 1384 0000 10B5     		push	{r4, lr}
 1385              	.LCFI14:
 1386              		.cfi_def_cfa_offset 8
 1387              		.cfi_offset 4, -8
 1388              		.cfi_offset 14, -4
 1389 0002 0446     		mov	r4, r0
 828:ioLibrary_Driver-master/Ethernet/wizchip_conf.c ****    uint8_t tmp = 0;
 1390              		.loc 1 828 4 is_stmt 1 view .LVU337
ARM GAS  C:\Users\VIDCOM~1\AppData\Local\Temp\cciRpnMV.s 			page 40


 1391              	.LVL109:
 829:ioLibrary_Driver-master/Ethernet/wizchip_conf.c ****    tmp = getPHYCFGR();
 1392              		.loc 1 829 4 view .LVU338
 1393              		.loc 1 829 10 is_stmt 0 view .LVU339
 1394 0004 4FF43850 		mov	r0, #11776
 1395              	.LVL110:
 1396              		.loc 1 829 10 view .LVU340
 1397 0008 FFF7FEFF 		bl	WIZCHIP_READ
 1398              	.LVL111:
 830:ioLibrary_Driver-master/Ethernet/wizchip_conf.c ****    if((tmp & PHYCFGR_OPMD)== 0) return -1;
 1399              		.loc 1 830 4 is_stmt 1 view .LVU341
 1400              		.loc 1 830 6 is_stmt 0 view .LVU342
 1401 000c 10F0400F 		tst	r0, #64
 1402 0010 24D0     		beq	.L120
 831:ioLibrary_Driver-master/Ethernet/wizchip_conf.c ****    tmp &= ~PHYCFGR_OPMDC_ALLA;         
 1403              		.loc 1 831 4 is_stmt 1 view .LVU343
 1404              		.loc 1 831 8 is_stmt 0 view .LVU344
 1405 0012 00F0C701 		and	r1, r0, #199
 1406              	.LVL112:
 832:ioLibrary_Driver-master/Ethernet/wizchip_conf.c ****    if( pmode == PHY_POWER_DOWN)
 1407              		.loc 1 832 4 is_stmt 1 view .LVU345
 1408              		.loc 1 832 6 is_stmt 0 view .LVU346
 1409 0016 012C     		cmp	r4, #1
 1410 0018 12D0     		beq	.L124
 833:ioLibrary_Driver-master/Ethernet/wizchip_conf.c ****       tmp |= PHYCFGR_OPMDC_PDOWN;
 834:ioLibrary_Driver-master/Ethernet/wizchip_conf.c ****    else
 835:ioLibrary_Driver-master/Ethernet/wizchip_conf.c ****       tmp |= PHYCFGR_OPMDC_ALLA;
 1411              		.loc 1 835 7 is_stmt 1 view .LVU347
 1412              		.loc 1 835 11 is_stmt 0 view .LVU348
 1413 001a 41F03801 		orr	r1, r1, #56
 1414              	.LVL113:
 1415              	.L118:
 836:ioLibrary_Driver-master/Ethernet/wizchip_conf.c ****    setPHYCFGR(tmp);
 1416              		.loc 1 836 4 is_stmt 1 view .LVU349
 1417 001e 4FF43850 		mov	r0, #11776
 1418 0022 FFF7FEFF 		bl	WIZCHIP_WRITE
 1419              	.LVL114:
 837:ioLibrary_Driver-master/Ethernet/wizchip_conf.c ****    wizphy_reset();
 1420              		.loc 1 837 4 view .LVU350
 1421 0026 FFF7FEFF 		bl	wizphy_reset
 1422              	.LVL115:
 838:ioLibrary_Driver-master/Ethernet/wizchip_conf.c ****    tmp = getPHYCFGR();
 1423              		.loc 1 838 4 view .LVU351
 1424              		.loc 1 838 10 is_stmt 0 view .LVU352
 1425 002a 4FF43850 		mov	r0, #11776
 1426 002e FFF7FEFF 		bl	WIZCHIP_READ
 1427              	.LVL116:
 839:ioLibrary_Driver-master/Ethernet/wizchip_conf.c ****    if( pmode == PHY_POWER_DOWN)
 1428              		.loc 1 839 4 is_stmt 1 view .LVU353
 1429              		.loc 1 839 6 is_stmt 0 view .LVU354
 1430 0032 012C     		cmp	r4, #1
 1431 0034 07D0     		beq	.L125
 840:ioLibrary_Driver-master/Ethernet/wizchip_conf.c ****    {
 841:ioLibrary_Driver-master/Ethernet/wizchip_conf.c ****       if(tmp & PHYCFGR_OPMDC_PDOWN) return 0;
 842:ioLibrary_Driver-master/Ethernet/wizchip_conf.c ****    }
 843:ioLibrary_Driver-master/Ethernet/wizchip_conf.c ****    else
 844:ioLibrary_Driver-master/Ethernet/wizchip_conf.c ****    {
ARM GAS  C:\Users\VIDCOM~1\AppData\Local\Temp\cciRpnMV.s 			page 41


 845:ioLibrary_Driver-master/Ethernet/wizchip_conf.c ****       if(tmp & PHYCFGR_OPMDC_ALLA) return 0;
 1432              		.loc 1 845 7 is_stmt 1 view .LVU355
 1433              		.loc 1 845 9 is_stmt 0 view .LVU356
 1434 0036 10F0380F 		tst	r0, #56
 1435 003a 0CD0     		beq	.L126
 1436              		.loc 1 845 43 view .LVU357
 1437 003c 0020     		movs	r0, #0
 1438              	.LVL117:
 1439              	.L116:
 846:ioLibrary_Driver-master/Ethernet/wizchip_conf.c ****    }
 847:ioLibrary_Driver-master/Ethernet/wizchip_conf.c ****    return -1;
 848:ioLibrary_Driver-master/Ethernet/wizchip_conf.c **** }
 1440              		.loc 1 848 1 view .LVU358
 1441 003e 10BD     		pop	{r4, pc}
 1442              	.LVL118:
 1443              	.L124:
 833:ioLibrary_Driver-master/Ethernet/wizchip_conf.c ****    else
 1444              		.loc 1 833 7 is_stmt 1 view .LVU359
 833:ioLibrary_Driver-master/Ethernet/wizchip_conf.c ****    else
 1445              		.loc 1 833 11 is_stmt 0 view .LVU360
 1446 0040 41F03001 		orr	r1, r1, #48
 1447              	.LVL119:
 833:ioLibrary_Driver-master/Ethernet/wizchip_conf.c ****    else
 1448              		.loc 1 833 11 view .LVU361
 1449 0044 EBE7     		b	.L118
 1450              	.LVL120:
 1451              	.L125:
 841:ioLibrary_Driver-master/Ethernet/wizchip_conf.c ****    }
 1452              		.loc 1 841 7 is_stmt 1 view .LVU362
 841:ioLibrary_Driver-master/Ethernet/wizchip_conf.c ****    }
 1453              		.loc 1 841 9 is_stmt 0 view .LVU363
 1454 0046 10F0300F 		tst	r0, #48
 1455 004a 01D0     		beq	.L127
 841:ioLibrary_Driver-master/Ethernet/wizchip_conf.c ****    }
 1456              		.loc 1 841 44 view .LVU364
 1457 004c 0020     		movs	r0, #0
 1458              	.LVL121:
 841:ioLibrary_Driver-master/Ethernet/wizchip_conf.c ****    }
 1459              		.loc 1 841 44 view .LVU365
 1460 004e F6E7     		b	.L116
 1461              	.LVL122:
 1462              	.L127:
 847:ioLibrary_Driver-master/Ethernet/wizchip_conf.c **** }
 1463              		.loc 1 847 11 view .LVU366
 1464 0050 4FF0FF30 		mov	r0, #-1
 1465              	.LVL123:
 847:ioLibrary_Driver-master/Ethernet/wizchip_conf.c **** }
 1466              		.loc 1 847 11 view .LVU367
 1467 0054 F3E7     		b	.L116
 1468              	.LVL124:
 1469              	.L126:
 847:ioLibrary_Driver-master/Ethernet/wizchip_conf.c **** }
 1470              		.loc 1 847 11 view .LVU368
 1471 0056 4FF0FF30 		mov	r0, #-1
 1472              	.LVL125:
 847:ioLibrary_Driver-master/Ethernet/wizchip_conf.c **** }
 1473              		.loc 1 847 11 view .LVU369
ARM GAS  C:\Users\VIDCOM~1\AppData\Local\Temp\cciRpnMV.s 			page 42


 1474 005a F0E7     		b	.L116
 1475              	.LVL126:
 1476              	.L120:
 830:ioLibrary_Driver-master/Ethernet/wizchip_conf.c ****    tmp &= ~PHYCFGR_OPMDC_ALLA;         
 1477              		.loc 1 830 40 view .LVU370
 1478 005c 4FF0FF30 		mov	r0, #-1
 1479              	.LVL127:
 830:ioLibrary_Driver-master/Ethernet/wizchip_conf.c ****    tmp &= ~PHYCFGR_OPMDC_ALLA;         
 1480              		.loc 1 830 40 view .LVU371
 1481 0060 EDE7     		b	.L116
 1482              		.cfi_endproc
 1483              	.LFE29:
 1485              		.section	.text.ctlwizchip,"ax",%progbits
 1486              		.align	1
 1487              		.global	ctlwizchip
 1488              		.syntax unified
 1489              		.thumb
 1490              		.thumb_func
 1492              	ctlwizchip:
 1493              	.LVL128:
 1494              	.LFB15:
 285:ioLibrary_Driver-master/Ethernet/wizchip_conf.c **** #if	_WIZCHIP_ == W5100S || _WIZCHIP_ == W5200 || _WIZCHIP_ == W5500
 1495              		.loc 1 285 1 is_stmt 1 view -0
 1496              		.cfi_startproc
 1497              		@ args = 0, pretend = 0, frame = 8
 1498              		@ frame_needed = 0, uses_anonymous_args = 0
 285:ioLibrary_Driver-master/Ethernet/wizchip_conf.c **** #if	_WIZCHIP_ == W5100S || _WIZCHIP_ == W5200 || _WIZCHIP_ == W5500
 1499              		.loc 1 285 1 is_stmt 0 view .LVU373
 1500 0000 30B5     		push	{r4, r5, lr}
 1501              	.LCFI15:
 1502              		.cfi_def_cfa_offset 12
 1503              		.cfi_offset 4, -12
 1504              		.cfi_offset 5, -8
 1505              		.cfi_offset 14, -4
 1506 0002 83B0     		sub	sp, sp, #12
 1507              	.LCFI16:
 1508              		.cfi_def_cfa_offset 24
 1509 0004 0C46     		mov	r4, r1
 287:ioLibrary_Driver-master/Ethernet/wizchip_conf.c **** #endif
 1510              		.loc 1 287 4 is_stmt 1 view .LVU374
 1511              	.LVL129:
 289:ioLibrary_Driver-master/Ethernet/wizchip_conf.c ****    switch(cwtype)
 1512              		.loc 1 289 4 view .LVU375
 289:ioLibrary_Driver-master/Ethernet/wizchip_conf.c ****    switch(cwtype)
 1513              		.loc 1 289 13 is_stmt 0 view .LVU376
 1514 0006 0023     		movs	r3, #0
 1515 0008 0093     		str	r3, [sp]
 1516 000a 0193     		str	r3, [sp, #4]
 290:ioLibrary_Driver-master/Ethernet/wizchip_conf.c ****    {
 1517              		.loc 1 290 4 is_stmt 1 view .LVU377
 1518 000c 0F28     		cmp	r0, #15
 1519 000e 09D8     		bhi	.L129
 1520 0010 DFE800F0 		tbb	[pc, r0]
 1521              	.L131:
 1522 0014 0B       		.byte	(.L146-.L131)/2
 1523 0015 0F       		.byte	(.L145-.L131)/2
 1524 0016 1D       		.byte	(.L144-.L131)/2
ARM GAS  C:\Users\VIDCOM~1\AppData\Local\Temp\cciRpnMV.s 			page 43


 1525 0017 18       		.byte	(.L143-.L131)/2
 1526 0018 22       		.byte	(.L142-.L131)/2
 1527 0019 27       		.byte	(.L141-.L131)/2
 1528 001a 2C       		.byte	(.L140-.L131)/2
 1529 001b 39       		.byte	(.L139-.L131)/2
 1530 001c 47       		.byte	(.L138-.L131)/2
 1531 001d 57       		.byte	(.L137-.L131)/2
 1532 001e 5B       		.byte	(.L136-.L131)/2
 1533 001f 60       		.byte	(.L135-.L131)/2
 1534 0020 79       		.byte	(.L148-.L131)/2
 1535 0021 65       		.byte	(.L133-.L131)/2
 1536 0022 69       		.byte	(.L132-.L131)/2
 1537 0023 71       		.byte	(.L130-.L131)/2
 1538              		.p2align 1
 1539              	.L129:
 1540 0024 4FF0FF30 		mov	r0, #-1
 1541              	.LVL130:
 290:ioLibrary_Driver-master/Ethernet/wizchip_conf.c ****    {
 1542              		.loc 1 290 4 is_stmt 0 view .LVU378
 1543 0028 6EE0     		b	.L134
 1544              	.LVL131:
 1545              	.L146:
 293:ioLibrary_Driver-master/Ethernet/wizchip_conf.c ****          break;
 1546              		.loc 1 293 10 is_stmt 1 view .LVU379
 1547 002a FFF7FEFF 		bl	wizchip_sw_reset
 1548              	.LVL132:
 294:ioLibrary_Driver-master/Ethernet/wizchip_conf.c ****       case CW_INIT_WIZCHIP:
 1549              		.loc 1 294 10 view .LVU380
 363:ioLibrary_Driver-master/Ethernet/wizchip_conf.c **** }
 1550              		.loc 1 363 11 is_stmt 0 view .LVU381
 1551 002e 0020     		movs	r0, #0
 294:ioLibrary_Driver-master/Ethernet/wizchip_conf.c ****       case CW_INIT_WIZCHIP:
 1552              		.loc 1 294 10 view .LVU382
 1553 0030 6AE0     		b	.L134
 1554              	.LVL133:
 1555              	.L145:
 296:ioLibrary_Driver-master/Ethernet/wizchip_conf.c ****          {
 1556              		.loc 1 296 10 is_stmt 1 view .LVU383
 296:ioLibrary_Driver-master/Ethernet/wizchip_conf.c ****          {
 1557              		.loc 1 296 12 is_stmt 0 view .LVU384
 1558 0032 11B1     		cbz	r1, .L147
 298:ioLibrary_Driver-master/Ethernet/wizchip_conf.c ****             ptmp[1] = ptmp[0] + _WIZCHIP_SOCK_NUM_;
 1559              		.loc 1 298 13 is_stmt 1 view .LVU385
 298:ioLibrary_Driver-master/Ethernet/wizchip_conf.c ****             ptmp[1] = ptmp[0] + _WIZCHIP_SOCK_NUM_;
 1560              		.loc 1 298 21 is_stmt 0 view .LVU386
 1561 0034 0091     		str	r1, [sp]
 299:ioLibrary_Driver-master/Ethernet/wizchip_conf.c ****          }
 1562              		.loc 1 299 13 is_stmt 1 view .LVU387
 299:ioLibrary_Driver-master/Ethernet/wizchip_conf.c ****          }
 1563              		.loc 1 299 31 is_stmt 0 view .LVU388
 1564 0036 0834     		adds	r4, r4, #8
 299:ioLibrary_Driver-master/Ethernet/wizchip_conf.c ****          }
 1565              		.loc 1 299 21 view .LVU389
 1566 0038 0194     		str	r4, [sp, #4]
 1567              	.L147:
 301:ioLibrary_Driver-master/Ethernet/wizchip_conf.c ****       case CW_CLR_INTERRUPT:
 1568              		.loc 1 301 10 is_stmt 1 view .LVU390
ARM GAS  C:\Users\VIDCOM~1\AppData\Local\Temp\cciRpnMV.s 			page 44


 301:ioLibrary_Driver-master/Ethernet/wizchip_conf.c ****       case CW_CLR_INTERRUPT:
 1569              		.loc 1 301 17 is_stmt 0 view .LVU391
 1570 003a 0199     		ldr	r1, [sp, #4]
 1571              	.LVL134:
 301:ioLibrary_Driver-master/Ethernet/wizchip_conf.c ****       case CW_CLR_INTERRUPT:
 1572              		.loc 1 301 17 view .LVU392
 1573 003c 0098     		ldr	r0, [sp]
 1574              	.LVL135:
 301:ioLibrary_Driver-master/Ethernet/wizchip_conf.c ****       case CW_CLR_INTERRUPT:
 1575              		.loc 1 301 17 view .LVU393
 1576 003e FFF7FEFF 		bl	wizchip_init
 1577              	.LVL136:
 1578 0042 61E0     		b	.L134
 1579              	.LVL137:
 1580              	.L143:
 303:ioLibrary_Driver-master/Ethernet/wizchip_conf.c ****          break;
 1581              		.loc 1 303 10 is_stmt 1 view .LVU394
 1582 0044 0888     		ldrh	r0, [r1]
 1583              	.LVL138:
 303:ioLibrary_Driver-master/Ethernet/wizchip_conf.c ****          break;
 1584              		.loc 1 303 10 is_stmt 0 view .LVU395
 1585 0046 FFF7FEFF 		bl	wizchip_clrinterrupt
 1586              	.LVL139:
 304:ioLibrary_Driver-master/Ethernet/wizchip_conf.c ****       case CW_GET_INTERRUPT:
 1587              		.loc 1 304 10 is_stmt 1 view .LVU396
 363:ioLibrary_Driver-master/Ethernet/wizchip_conf.c **** }
 1588              		.loc 1 363 11 is_stmt 0 view .LVU397
 1589 004a 0020     		movs	r0, #0
 304:ioLibrary_Driver-master/Ethernet/wizchip_conf.c ****       case CW_GET_INTERRUPT:
 1590              		.loc 1 304 10 view .LVU398
 1591 004c 5CE0     		b	.L134
 1592              	.LVL140:
 1593              	.L144:
 306:ioLibrary_Driver-master/Ethernet/wizchip_conf.c ****          break;
 1594              		.loc 1 306 9 is_stmt 1 view .LVU399
 306:ioLibrary_Driver-master/Ethernet/wizchip_conf.c ****          break;
 1595              		.loc 1 306 30 is_stmt 0 view .LVU400
 1596 004e FFF7FEFF 		bl	wizchip_getinterrupt
 1597              	.LVL141:
 306:ioLibrary_Driver-master/Ethernet/wizchip_conf.c ****          break;
 1598              		.loc 1 306 28 view .LVU401
 1599 0052 2080     		strh	r0, [r4]	@ movhi
 307:ioLibrary_Driver-master/Ethernet/wizchip_conf.c ****       case CW_SET_INTRMASK:
 1600              		.loc 1 307 10 is_stmt 1 view .LVU402
 363:ioLibrary_Driver-master/Ethernet/wizchip_conf.c **** }
 1601              		.loc 1 363 11 is_stmt 0 view .LVU403
 1602 0054 0020     		movs	r0, #0
 307:ioLibrary_Driver-master/Ethernet/wizchip_conf.c ****       case CW_SET_INTRMASK:
 1603              		.loc 1 307 10 view .LVU404
 1604 0056 57E0     		b	.L134
 1605              	.LVL142:
 1606              	.L142:
 309:ioLibrary_Driver-master/Ethernet/wizchip_conf.c ****          break;         
 1607              		.loc 1 309 10 is_stmt 1 view .LVU405
 1608 0058 0888     		ldrh	r0, [r1]
 1609              	.LVL143:
 309:ioLibrary_Driver-master/Ethernet/wizchip_conf.c ****          break;         
ARM GAS  C:\Users\VIDCOM~1\AppData\Local\Temp\cciRpnMV.s 			page 45


 1610              		.loc 1 309 10 is_stmt 0 view .LVU406
 1611 005a FFF7FEFF 		bl	wizchip_setinterruptmask
 1612              	.LVL144:
 310:ioLibrary_Driver-master/Ethernet/wizchip_conf.c ****       case CW_GET_INTRMASK:
 1613              		.loc 1 310 10 is_stmt 1 view .LVU407
 363:ioLibrary_Driver-master/Ethernet/wizchip_conf.c **** }
 1614              		.loc 1 363 11 is_stmt 0 view .LVU408
 1615 005e 0020     		movs	r0, #0
 310:ioLibrary_Driver-master/Ethernet/wizchip_conf.c ****       case CW_GET_INTRMASK:
 1616              		.loc 1 310 10 view .LVU409
 1617 0060 52E0     		b	.L134
 1618              	.LVL145:
 1619              	.L141:
 312:ioLibrary_Driver-master/Ethernet/wizchip_conf.c ****          break;
 1620              		.loc 1 312 10 is_stmt 1 view .LVU410
 312:ioLibrary_Driver-master/Ethernet/wizchip_conf.c ****          break;
 1621              		.loc 1 312 31 is_stmt 0 view .LVU411
 1622 0062 FFF7FEFF 		bl	wizchip_getinterruptmask
 1623              	.LVL146:
 312:ioLibrary_Driver-master/Ethernet/wizchip_conf.c ****          break;
 1624              		.loc 1 312 29 view .LVU412
 1625 0066 2080     		strh	r0, [r4]	@ movhi
 313:ioLibrary_Driver-master/Ethernet/wizchip_conf.c ****    //M20150601 : This can be supported by W5200, W5500
 1626              		.loc 1 313 10 is_stmt 1 view .LVU413
 363:ioLibrary_Driver-master/Ethernet/wizchip_conf.c **** }
 1627              		.loc 1 363 11 is_stmt 0 view .LVU414
 1628 0068 0020     		movs	r0, #0
 313:ioLibrary_Driver-master/Ethernet/wizchip_conf.c ****    //M20150601 : This can be supported by W5200, W5500
 1629              		.loc 1 313 10 view .LVU415
 1630 006a 4DE0     		b	.L134
 1631              	.LVL147:
 1632              	.L140:
 318:ioLibrary_Driver-master/Ethernet/wizchip_conf.c ****          break;
 1633              		.loc 1 318 10 is_stmt 1 view .LVU416
 1634 006c 0988     		ldrh	r1, [r1]
 1635              	.LVL148:
 318:ioLibrary_Driver-master/Ethernet/wizchip_conf.c ****          break;
 1636              		.loc 1 318 10 is_stmt 0 view .LVU417
 1637 006e 090A     		lsrs	r1, r1, #8
 1638 0070 4FF49850 		mov	r0, #4864
 1639              	.LVL149:
 318:ioLibrary_Driver-master/Ethernet/wizchip_conf.c ****          break;
 1640              		.loc 1 318 10 view .LVU418
 1641 0074 FFF7FEFF 		bl	WIZCHIP_WRITE
 1642              	.LVL150:
 318:ioLibrary_Driver-master/Ethernet/wizchip_conf.c ****          break;
 1643              		.loc 1 318 10 is_stmt 1 view .LVU419
 1644 0078 2178     		ldrb	r1, [r4]	@ zero_extendqisi2
 1645 007a 4FF4A050 		mov	r0, #5120
 1646 007e FFF7FEFF 		bl	WIZCHIP_WRITE
 1647              	.LVL151:
 318:ioLibrary_Driver-master/Ethernet/wizchip_conf.c ****          break;
 1648              		.loc 1 318 38 view .LVU420
 319:ioLibrary_Driver-master/Ethernet/wizchip_conf.c ****       case CW_GET_INTRTIME:
 1649              		.loc 1 319 10 view .LVU421
 363:ioLibrary_Driver-master/Ethernet/wizchip_conf.c **** }
 1650              		.loc 1 363 11 is_stmt 0 view .LVU422
ARM GAS  C:\Users\VIDCOM~1\AppData\Local\Temp\cciRpnMV.s 			page 46


 1651 0082 0020     		movs	r0, #0
 319:ioLibrary_Driver-master/Ethernet/wizchip_conf.c ****       case CW_GET_INTRTIME:
 1652              		.loc 1 319 10 view .LVU423
 1653 0084 40E0     		b	.L134
 1654              	.LVL152:
 1655              	.L139:
 321:ioLibrary_Driver-master/Ethernet/wizchip_conf.c ****          break;
 1656              		.loc 1 321 10 is_stmt 1 view .LVU424
 321:ioLibrary_Driver-master/Ethernet/wizchip_conf.c ****          break;
 1657              		.loc 1 321 28 is_stmt 0 view .LVU425
 1658 0086 4FF49850 		mov	r0, #4864
 1659              	.LVL153:
 321:ioLibrary_Driver-master/Ethernet/wizchip_conf.c ****          break;
 1660              		.loc 1 321 28 view .LVU426
 1661 008a FFF7FEFF 		bl	WIZCHIP_READ
 1662              	.LVL154:
 321:ioLibrary_Driver-master/Ethernet/wizchip_conf.c ****          break;
 1663              		.loc 1 321 28 view .LVU427
 1664 008e 0502     		lsls	r5, r0, #8
 1665 0090 ADB2     		uxth	r5, r5
 1666 0092 4FF4A050 		mov	r0, #5120
 1667 0096 FFF7FEFF 		bl	WIZCHIP_READ
 1668              	.LVL155:
 1669 009a 0544     		add	r5, r5, r0
 321:ioLibrary_Driver-master/Ethernet/wizchip_conf.c ****          break;
 1670              		.loc 1 321 26 view .LVU428
 1671 009c 2580     		strh	r5, [r4]	@ movhi
 322:ioLibrary_Driver-master/Ethernet/wizchip_conf.c ****    #endif
 1672              		.loc 1 322 10 is_stmt 1 view .LVU429
 363:ioLibrary_Driver-master/Ethernet/wizchip_conf.c **** }
 1673              		.loc 1 363 11 is_stmt 0 view .LVU430
 1674 009e 0020     		movs	r0, #0
 322:ioLibrary_Driver-master/Ethernet/wizchip_conf.c ****    #endif
 1675              		.loc 1 322 10 view .LVU431
 1676 00a0 32E0     		b	.L134
 1677              	.LVL156:
 1678              	.L138:
 325:ioLibrary_Driver-master/Ethernet/wizchip_conf.c ****          ((uint8_t*)arg)[1] = WIZCHIP.id[1];
 1679              		.loc 1 325 10 is_stmt 1 view .LVU432
 325:ioLibrary_Driver-master/Ethernet/wizchip_conf.c ****          ((uint8_t*)arg)[1] = WIZCHIP.id[1];
 1680              		.loc 1 325 41 is_stmt 0 view .LVU433
 1681 00a2 1D4B     		ldr	r3, .L152
 1682 00a4 9A78     		ldrb	r2, [r3, #2]	@ zero_extendqisi2
 325:ioLibrary_Driver-master/Ethernet/wizchip_conf.c ****          ((uint8_t*)arg)[1] = WIZCHIP.id[1];
 1683              		.loc 1 325 29 view .LVU434
 1684 00a6 0A70     		strb	r2, [r1]
 326:ioLibrary_Driver-master/Ethernet/wizchip_conf.c ****          ((uint8_t*)arg)[2] = WIZCHIP.id[2];
 1685              		.loc 1 326 10 is_stmt 1 view .LVU435
 326:ioLibrary_Driver-master/Ethernet/wizchip_conf.c ****          ((uint8_t*)arg)[2] = WIZCHIP.id[2];
 1686              		.loc 1 326 41 is_stmt 0 view .LVU436
 1687 00a8 DA78     		ldrb	r2, [r3, #3]	@ zero_extendqisi2
 326:ioLibrary_Driver-master/Ethernet/wizchip_conf.c ****          ((uint8_t*)arg)[2] = WIZCHIP.id[2];
 1688              		.loc 1 326 29 view .LVU437
 1689 00aa 4A70     		strb	r2, [r1, #1]
 327:ioLibrary_Driver-master/Ethernet/wizchip_conf.c ****          ((uint8_t*)arg)[3] = WIZCHIP.id[3];
 1690              		.loc 1 327 10 is_stmt 1 view .LVU438
 327:ioLibrary_Driver-master/Ethernet/wizchip_conf.c ****          ((uint8_t*)arg)[3] = WIZCHIP.id[3];
ARM GAS  C:\Users\VIDCOM~1\AppData\Local\Temp\cciRpnMV.s 			page 47


 1691              		.loc 1 327 41 is_stmt 0 view .LVU439
 1692 00ac 1A79     		ldrb	r2, [r3, #4]	@ zero_extendqisi2
 327:ioLibrary_Driver-master/Ethernet/wizchip_conf.c ****          ((uint8_t*)arg)[3] = WIZCHIP.id[3];
 1693              		.loc 1 327 29 view .LVU440
 1694 00ae 8A70     		strb	r2, [r1, #2]
 328:ioLibrary_Driver-master/Ethernet/wizchip_conf.c ****          ((uint8_t*)arg)[4] = WIZCHIP.id[4];
 1695              		.loc 1 328 10 is_stmt 1 view .LVU441
 328:ioLibrary_Driver-master/Ethernet/wizchip_conf.c ****          ((uint8_t*)arg)[4] = WIZCHIP.id[4];
 1696              		.loc 1 328 41 is_stmt 0 view .LVU442
 1697 00b0 5A79     		ldrb	r2, [r3, #5]	@ zero_extendqisi2
 328:ioLibrary_Driver-master/Ethernet/wizchip_conf.c ****          ((uint8_t*)arg)[4] = WIZCHIP.id[4];
 1698              		.loc 1 328 29 view .LVU443
 1699 00b2 CA70     		strb	r2, [r1, #3]
 329:ioLibrary_Driver-master/Ethernet/wizchip_conf.c ****          ((uint8_t*)arg)[5] = WIZCHIP.id[5];
 1700              		.loc 1 329 10 is_stmt 1 view .LVU444
 329:ioLibrary_Driver-master/Ethernet/wizchip_conf.c ****          ((uint8_t*)arg)[5] = WIZCHIP.id[5];
 1701              		.loc 1 329 41 is_stmt 0 view .LVU445
 1702 00b4 9A79     		ldrb	r2, [r3, #6]	@ zero_extendqisi2
 329:ioLibrary_Driver-master/Ethernet/wizchip_conf.c ****          ((uint8_t*)arg)[5] = WIZCHIP.id[5];
 1703              		.loc 1 329 29 view .LVU446
 1704 00b6 0A71     		strb	r2, [r1, #4]
 330:ioLibrary_Driver-master/Ethernet/wizchip_conf.c ****          ((uint8_t*)arg)[6] = 0;
 1705              		.loc 1 330 10 is_stmt 1 view .LVU447
 330:ioLibrary_Driver-master/Ethernet/wizchip_conf.c ****          ((uint8_t*)arg)[6] = 0;
 1706              		.loc 1 330 41 is_stmt 0 view .LVU448
 1707 00b8 DB79     		ldrb	r3, [r3, #7]	@ zero_extendqisi2
 330:ioLibrary_Driver-master/Ethernet/wizchip_conf.c ****          ((uint8_t*)arg)[6] = 0;
 1708              		.loc 1 330 29 view .LVU449
 1709 00ba 4B71     		strb	r3, [r1, #5]
 331:ioLibrary_Driver-master/Ethernet/wizchip_conf.c ****          break;
 1710              		.loc 1 331 10 is_stmt 1 view .LVU450
 331:ioLibrary_Driver-master/Ethernet/wizchip_conf.c ****          break;
 1711              		.loc 1 331 29 is_stmt 0 view .LVU451
 1712 00bc 0020     		movs	r0, #0
 1713              	.LVL157:
 331:ioLibrary_Driver-master/Ethernet/wizchip_conf.c ****          break;
 1714              		.loc 1 331 29 view .LVU452
 1715 00be 8871     		strb	r0, [r1, #6]
 332:ioLibrary_Driver-master/Ethernet/wizchip_conf.c ****    #if _WIZCHIP_ == W5100S || _WIZCHIP_ == W5500
 1716              		.loc 1 332 10 is_stmt 1 view .LVU453
 1717 00c0 22E0     		b	.L134
 1718              	.LVL158:
 1719              	.L137:
 335:ioLibrary_Driver-master/Ethernet/wizchip_conf.c ****          break;
 1720              		.loc 1 335 10 view .LVU454
 1721 00c2 FFF7FEFF 		bl	wizphy_reset
 1722              	.LVL159:
 336:ioLibrary_Driver-master/Ethernet/wizchip_conf.c ****       case CW_SET_PHYCONF:
 1723              		.loc 1 336 10 view .LVU455
 363:ioLibrary_Driver-master/Ethernet/wizchip_conf.c **** }
 1724              		.loc 1 363 11 is_stmt 0 view .LVU456
 1725 00c6 0020     		movs	r0, #0
 336:ioLibrary_Driver-master/Ethernet/wizchip_conf.c ****       case CW_SET_PHYCONF:
 1726              		.loc 1 336 10 view .LVU457
 1727 00c8 1EE0     		b	.L134
 1728              	.LVL160:
 1729              	.L136:
ARM GAS  C:\Users\VIDCOM~1\AppData\Local\Temp\cciRpnMV.s 			page 48


 338:ioLibrary_Driver-master/Ethernet/wizchip_conf.c ****          break;
 1730              		.loc 1 338 10 is_stmt 1 view .LVU458
 1731 00ca 0846     		mov	r0, r1
 1732              	.LVL161:
 338:ioLibrary_Driver-master/Ethernet/wizchip_conf.c ****          break;
 1733              		.loc 1 338 10 is_stmt 0 view .LVU459
 1734 00cc FFF7FEFF 		bl	wizphy_setphyconf
 1735              	.LVL162:
 339:ioLibrary_Driver-master/Ethernet/wizchip_conf.c ****       case CW_GET_PHYCONF:
 1736              		.loc 1 339 10 is_stmt 1 view .LVU460
 363:ioLibrary_Driver-master/Ethernet/wizchip_conf.c **** }
 1737              		.loc 1 363 11 is_stmt 0 view .LVU461
 1738 00d0 0020     		movs	r0, #0
 339:ioLibrary_Driver-master/Ethernet/wizchip_conf.c ****       case CW_GET_PHYCONF:
 1739              		.loc 1 339 10 view .LVU462
 1740 00d2 19E0     		b	.L134
 1741              	.LVL163:
 1742              	.L135:
 341:ioLibrary_Driver-master/Ethernet/wizchip_conf.c ****          break;
 1743              		.loc 1 341 10 is_stmt 1 view .LVU463
 1744 00d4 0846     		mov	r0, r1
 1745              	.LVL164:
 341:ioLibrary_Driver-master/Ethernet/wizchip_conf.c ****          break;
 1746              		.loc 1 341 10 is_stmt 0 view .LVU464
 1747 00d6 FFF7FEFF 		bl	wizphy_getphyconf
 1748              	.LVL165:
 342:ioLibrary_Driver-master/Ethernet/wizchip_conf.c ****       case CW_GET_PHYSTATUS:
 1749              		.loc 1 342 10 is_stmt 1 view .LVU465
 363:ioLibrary_Driver-master/Ethernet/wizchip_conf.c **** }
 1750              		.loc 1 363 11 is_stmt 0 view .LVU466
 1751 00da 0020     		movs	r0, #0
 342:ioLibrary_Driver-master/Ethernet/wizchip_conf.c ****       case CW_GET_PHYSTATUS:
 1752              		.loc 1 342 10 view .LVU467
 1753 00dc 14E0     		b	.L134
 1754              	.LVL166:
 1755              	.L133:
 346:ioLibrary_Driver-master/Ethernet/wizchip_conf.c ****    #endif
 1756              		.loc 1 346 10 is_stmt 1 view .LVU468
 346:ioLibrary_Driver-master/Ethernet/wizchip_conf.c ****    #endif
 1757              		.loc 1 346 17 is_stmt 0 view .LVU469
 1758 00de 0878     		ldrb	r0, [r1]	@ zero_extendqisi2
 1759              	.LVL167:
 346:ioLibrary_Driver-master/Ethernet/wizchip_conf.c ****    #endif
 1760              		.loc 1 346 17 view .LVU470
 1761 00e0 FFF7FEFF 		bl	wizphy_setphypmode
 1762              	.LVL168:
 346:ioLibrary_Driver-master/Ethernet/wizchip_conf.c ****    #endif
 1763              		.loc 1 346 17 view .LVU471
 1764 00e4 10E0     		b	.L134
 1765              	.LVL169:
 1766              	.L132:
 350:ioLibrary_Driver-master/Ethernet/wizchip_conf.c ****          if((int8_t)tmp == -1) return -1;
 1767              		.loc 1 350 10 is_stmt 1 view .LVU472
 350:ioLibrary_Driver-master/Ethernet/wizchip_conf.c ****          if((int8_t)tmp == -1) return -1;
 1768              		.loc 1 350 16 is_stmt 0 view .LVU473
 1769 00e6 FFF7FEFF 		bl	wizphy_getphypmode
 1770              	.LVL170:
ARM GAS  C:\Users\VIDCOM~1\AppData\Local\Temp\cciRpnMV.s 			page 49


 350:ioLibrary_Driver-master/Ethernet/wizchip_conf.c ****          if((int8_t)tmp == -1) return -1;
 1771              		.loc 1 350 14 view .LVU474
 1772 00ea C0B2     		uxtb	r0, r0
 1773              	.LVL171:
 351:ioLibrary_Driver-master/Ethernet/wizchip_conf.c ****          *(uint8_t*)arg = tmp;
 1774              		.loc 1 351 10 is_stmt 1 view .LVU475
 351:ioLibrary_Driver-master/Ethernet/wizchip_conf.c ****          *(uint8_t*)arg = tmp;
 1775              		.loc 1 351 12 is_stmt 0 view .LVU476
 1776 00ec FF28     		cmp	r0, #255
 1777 00ee 0DD0     		beq	.L149
 352:ioLibrary_Driver-master/Ethernet/wizchip_conf.c ****          break;
 1778              		.loc 1 352 10 is_stmt 1 view .LVU477
 352:ioLibrary_Driver-master/Ethernet/wizchip_conf.c ****          break;
 1779              		.loc 1 352 25 is_stmt 0 view .LVU478
 1780 00f0 2070     		strb	r0, [r4]
 353:ioLibrary_Driver-master/Ethernet/wizchip_conf.c ****       case CW_GET_PHYLINK:
 1781              		.loc 1 353 10 is_stmt 1 view .LVU479
 363:ioLibrary_Driver-master/Ethernet/wizchip_conf.c **** }
 1782              		.loc 1 363 11 is_stmt 0 view .LVU480
 1783 00f2 0020     		movs	r0, #0
 1784              	.LVL172:
 353:ioLibrary_Driver-master/Ethernet/wizchip_conf.c ****       case CW_GET_PHYLINK:
 1785              		.loc 1 353 10 view .LVU481
 1786 00f4 08E0     		b	.L134
 1787              	.LVL173:
 1788              	.L130:
 355:ioLibrary_Driver-master/Ethernet/wizchip_conf.c ****          if((int8_t)tmp == -1) return -1;
 1789              		.loc 1 355 10 is_stmt 1 view .LVU482
 355:ioLibrary_Driver-master/Ethernet/wizchip_conf.c ****          if((int8_t)tmp == -1) return -1;
 1790              		.loc 1 355 16 is_stmt 0 view .LVU483
 1791 00f6 FFF7FEFF 		bl	wizphy_getphylink
 1792              	.LVL174:
 355:ioLibrary_Driver-master/Ethernet/wizchip_conf.c ****          if((int8_t)tmp == -1) return -1;
 1793              		.loc 1 355 14 view .LVU484
 1794 00fa C0B2     		uxtb	r0, r0
 1795              	.LVL175:
 356:ioLibrary_Driver-master/Ethernet/wizchip_conf.c ****          *(uint8_t*)arg = tmp;
 1796              		.loc 1 356 10 is_stmt 1 view .LVU485
 356:ioLibrary_Driver-master/Ethernet/wizchip_conf.c ****          *(uint8_t*)arg = tmp;
 1797              		.loc 1 356 12 is_stmt 0 view .LVU486
 1798 00fc FF28     		cmp	r0, #255
 1799 00fe 08D0     		beq	.L150
 357:ioLibrary_Driver-master/Ethernet/wizchip_conf.c ****          break;
 1800              		.loc 1 357 10 is_stmt 1 view .LVU487
 357:ioLibrary_Driver-master/Ethernet/wizchip_conf.c ****          break;
 1801              		.loc 1 357 25 is_stmt 0 view .LVU488
 1802 0100 2070     		strb	r0, [r4]
 358:ioLibrary_Driver-master/Ethernet/wizchip_conf.c ****    #endif      
 1803              		.loc 1 358 10 is_stmt 1 view .LVU489
 363:ioLibrary_Driver-master/Ethernet/wizchip_conf.c **** }
 1804              		.loc 1 363 11 is_stmt 0 view .LVU490
 1805 0102 0020     		movs	r0, #0
 1806              	.LVL176:
 358:ioLibrary_Driver-master/Ethernet/wizchip_conf.c ****    #endif      
 1807              		.loc 1 358 10 view .LVU491
 1808 0104 00E0     		b	.L134
 1809              	.LVL177:
ARM GAS  C:\Users\VIDCOM~1\AppData\Local\Temp\cciRpnMV.s 			page 50


 1810              	.L148:
 363:ioLibrary_Driver-master/Ethernet/wizchip_conf.c **** }
 1811              		.loc 1 363 11 view .LVU492
 1812 0106 0020     		movs	r0, #0
 1813              	.LVL178:
 1814              	.L134:
 364:ioLibrary_Driver-master/Ethernet/wizchip_conf.c **** 
 1815              		.loc 1 364 1 view .LVU493
 1816 0108 03B0     		add	sp, sp, #12
 1817              	.LCFI17:
 1818              		.cfi_remember_state
 1819              		.cfi_def_cfa_offset 12
 1820              		@ sp needed
 1821 010a 30BD     		pop	{r4, r5, pc}
 1822              	.LVL179:
 1823              	.L149:
 1824              	.LCFI18:
 1825              		.cfi_restore_state
 351:ioLibrary_Driver-master/Ethernet/wizchip_conf.c ****          *(uint8_t*)arg = tmp;
 1826              		.loc 1 351 39 view .LVU494
 1827 010c 4FF0FF30 		mov	r0, #-1
 1828              	.LVL180:
 351:ioLibrary_Driver-master/Ethernet/wizchip_conf.c ****          *(uint8_t*)arg = tmp;
 1829              		.loc 1 351 39 view .LVU495
 1830 0110 FAE7     		b	.L134
 1831              	.LVL181:
 1832              	.L150:
 356:ioLibrary_Driver-master/Ethernet/wizchip_conf.c ****          *(uint8_t*)arg = tmp;
 1833              		.loc 1 356 39 view .LVU496
 1834 0112 4FF0FF30 		mov	r0, #-1
 1835              	.LVL182:
 356:ioLibrary_Driver-master/Ethernet/wizchip_conf.c ****          *(uint8_t*)arg = tmp;
 1836              		.loc 1 356 39 view .LVU497
 1837 0116 F7E7     		b	.L134
 1838              	.L153:
 1839              		.align	2
 1840              	.L152:
 1841 0118 00000000 		.word	WIZCHIP
 1842              		.cfi_endproc
 1843              	.LFE15:
 1845              		.section	.text.wizchip_setnetinfo,"ax",%progbits
 1846              		.align	1
 1847              		.global	wizchip_setnetinfo
 1848              		.syntax unified
 1849              		.thumb
 1850              		.thumb_func
 1852              	wizchip_setnetinfo:
 1853              	.LVL183:
 1854              	.LFB30:
 849:ioLibrary_Driver-master/Ethernet/wizchip_conf.c **** #endif
 850:ioLibrary_Driver-master/Ethernet/wizchip_conf.c **** 
 851:ioLibrary_Driver-master/Ethernet/wizchip_conf.c **** 
 852:ioLibrary_Driver-master/Ethernet/wizchip_conf.c **** void wizchip_setnetinfo(wiz_NetInfo* pnetinfo)
 853:ioLibrary_Driver-master/Ethernet/wizchip_conf.c **** {
 1855              		.loc 1 853 1 is_stmt 1 view -0
 1856              		.cfi_startproc
 1857              		@ args = 0, pretend = 0, frame = 0
ARM GAS  C:\Users\VIDCOM~1\AppData\Local\Temp\cciRpnMV.s 			page 51


 1858              		@ frame_needed = 0, uses_anonymous_args = 0
 1859              		.loc 1 853 1 is_stmt 0 view .LVU499
 1860 0000 10B5     		push	{r4, lr}
 1861              	.LCFI19:
 1862              		.cfi_def_cfa_offset 8
 1863              		.cfi_offset 4, -8
 1864              		.cfi_offset 14, -4
 1865 0002 0446     		mov	r4, r0
 854:ioLibrary_Driver-master/Ethernet/wizchip_conf.c ****    setSHAR(pnetinfo->mac);
 1866              		.loc 1 854 4 is_stmt 1 view .LVU500
 1867 0004 0622     		movs	r2, #6
 1868 0006 0146     		mov	r1, r0
 1869 0008 4FF41060 		mov	r0, #2304
 1870              	.LVL184:
 1871              		.loc 1 854 4 is_stmt 0 view .LVU501
 1872 000c FFF7FEFF 		bl	WIZCHIP_WRITE_BUF
 1873              	.LVL185:
 855:ioLibrary_Driver-master/Ethernet/wizchip_conf.c ****    setGAR(pnetinfo->gw);
 1874              		.loc 1 855 4 is_stmt 1 view .LVU502
 1875 0010 0422     		movs	r2, #4
 1876 0012 04F10E01 		add	r1, r4, #14
 1877 0016 4FF48070 		mov	r0, #256
 1878 001a FFF7FEFF 		bl	WIZCHIP_WRITE_BUF
 1879              	.LVL186:
 856:ioLibrary_Driver-master/Ethernet/wizchip_conf.c ****    setSUBR(pnetinfo->sn);
 1880              		.loc 1 856 4 view .LVU503
 1881 001e 0422     		movs	r2, #4
 1882 0020 04F10A01 		add	r1, r4, #10
 1883 0024 4FF4A060 		mov	r0, #1280
 1884 0028 FFF7FEFF 		bl	WIZCHIP_WRITE_BUF
 1885              	.LVL187:
 857:ioLibrary_Driver-master/Ethernet/wizchip_conf.c ****    setSIPR(pnetinfo->ip);
 1886              		.loc 1 857 4 view .LVU504
 1887 002c 0422     		movs	r2, #4
 1888 002e A11D     		adds	r1, r4, #6
 1889 0030 4FF47060 		mov	r0, #3840
 1890 0034 FFF7FEFF 		bl	WIZCHIP_WRITE_BUF
 1891              	.LVL188:
 858:ioLibrary_Driver-master/Ethernet/wizchip_conf.c ****    _DNS_[0] = pnetinfo->dns[0];
 1892              		.loc 1 858 4 view .LVU505
 1893              		.loc 1 858 28 is_stmt 0 view .LVU506
 1894 0038 A27C     		ldrb	r2, [r4, #18]	@ zero_extendqisi2
 1895              		.loc 1 858 13 view .LVU507
 1896 003a 064B     		ldr	r3, .L156
 1897 003c 1A70     		strb	r2, [r3]
 859:ioLibrary_Driver-master/Ethernet/wizchip_conf.c ****    _DNS_[1] = pnetinfo->dns[1];
 1898              		.loc 1 859 4 is_stmt 1 view .LVU508
 1899              		.loc 1 859 28 is_stmt 0 view .LVU509
 1900 003e E27C     		ldrb	r2, [r4, #19]	@ zero_extendqisi2
 1901              		.loc 1 859 13 view .LVU510
 1902 0040 5A70     		strb	r2, [r3, #1]
 860:ioLibrary_Driver-master/Ethernet/wizchip_conf.c ****    _DNS_[2] = pnetinfo->dns[2];
 1903              		.loc 1 860 4 is_stmt 1 view .LVU511
 1904              		.loc 1 860 28 is_stmt 0 view .LVU512
 1905 0042 227D     		ldrb	r2, [r4, #20]	@ zero_extendqisi2
 1906              		.loc 1 860 13 view .LVU513
 1907 0044 9A70     		strb	r2, [r3, #2]
ARM GAS  C:\Users\VIDCOM~1\AppData\Local\Temp\cciRpnMV.s 			page 52


 861:ioLibrary_Driver-master/Ethernet/wizchip_conf.c ****    _DNS_[3] = pnetinfo->dns[3];
 1908              		.loc 1 861 4 is_stmt 1 view .LVU514
 1909              		.loc 1 861 28 is_stmt 0 view .LVU515
 1910 0046 627D     		ldrb	r2, [r4, #21]	@ zero_extendqisi2
 1911              		.loc 1 861 13 view .LVU516
 1912 0048 DA70     		strb	r2, [r3, #3]
 862:ioLibrary_Driver-master/Ethernet/wizchip_conf.c ****    _DHCP_   = pnetinfo->dhcp;
 1913              		.loc 1 862 4 is_stmt 1 view .LVU517
 1914              		.loc 1 862 23 is_stmt 0 view .LVU518
 1915 004a A27D     		ldrb	r2, [r4, #22]	@ zero_extendqisi2
 1916              		.loc 1 862 13 view .LVU519
 1917 004c 024B     		ldr	r3, .L156+4
 1918 004e 1A70     		strb	r2, [r3]
 863:ioLibrary_Driver-master/Ethernet/wizchip_conf.c **** }
 1919              		.loc 1 863 1 view .LVU520
 1920 0050 10BD     		pop	{r4, pc}
 1921              	.LVL189:
 1922              	.L157:
 1923              		.loc 1 863 1 view .LVU521
 1924 0052 00BF     		.align	2
 1925              	.L156:
 1926 0054 00000000 		.word	_DNS_
 1927 0058 00000000 		.word	_DHCP_
 1928              		.cfi_endproc
 1929              	.LFE30:
 1931              		.section	.text.wizchip_getnetinfo,"ax",%progbits
 1932              		.align	1
 1933              		.global	wizchip_getnetinfo
 1934              		.syntax unified
 1935              		.thumb
 1936              		.thumb_func
 1938              	wizchip_getnetinfo:
 1939              	.LVL190:
 1940              	.LFB31:
 864:ioLibrary_Driver-master/Ethernet/wizchip_conf.c **** 
 865:ioLibrary_Driver-master/Ethernet/wizchip_conf.c **** void wizchip_getnetinfo(wiz_NetInfo* pnetinfo)
 866:ioLibrary_Driver-master/Ethernet/wizchip_conf.c **** {
 1941              		.loc 1 866 1 is_stmt 1 view -0
 1942              		.cfi_startproc
 1943              		@ args = 0, pretend = 0, frame = 0
 1944              		@ frame_needed = 0, uses_anonymous_args = 0
 1945              		.loc 1 866 1 is_stmt 0 view .LVU523
 1946 0000 10B5     		push	{r4, lr}
 1947              	.LCFI20:
 1948              		.cfi_def_cfa_offset 8
 1949              		.cfi_offset 4, -8
 1950              		.cfi_offset 14, -4
 1951 0002 0446     		mov	r4, r0
 867:ioLibrary_Driver-master/Ethernet/wizchip_conf.c ****    getSHAR(pnetinfo->mac);
 1952              		.loc 1 867 4 is_stmt 1 view .LVU524
 1953 0004 0622     		movs	r2, #6
 1954 0006 0146     		mov	r1, r0
 1955 0008 4FF41060 		mov	r0, #2304
 1956              	.LVL191:
 1957              		.loc 1 867 4 is_stmt 0 view .LVU525
 1958 000c FFF7FEFF 		bl	WIZCHIP_READ_BUF
 1959              	.LVL192:
ARM GAS  C:\Users\VIDCOM~1\AppData\Local\Temp\cciRpnMV.s 			page 53


 868:ioLibrary_Driver-master/Ethernet/wizchip_conf.c ****    getGAR(pnetinfo->gw);
 1960              		.loc 1 868 4 is_stmt 1 view .LVU526
 1961 0010 0422     		movs	r2, #4
 1962 0012 04F10E01 		add	r1, r4, #14
 1963 0016 4FF48070 		mov	r0, #256
 1964 001a FFF7FEFF 		bl	WIZCHIP_READ_BUF
 1965              	.LVL193:
 869:ioLibrary_Driver-master/Ethernet/wizchip_conf.c ****    getSUBR(pnetinfo->sn);
 1966              		.loc 1 869 4 view .LVU527
 1967 001e 0422     		movs	r2, #4
 1968 0020 04F10A01 		add	r1, r4, #10
 1969 0024 4FF4A060 		mov	r0, #1280
 1970 0028 FFF7FEFF 		bl	WIZCHIP_READ_BUF
 1971              	.LVL194:
 870:ioLibrary_Driver-master/Ethernet/wizchip_conf.c ****    getSIPR(pnetinfo->ip);
 1972              		.loc 1 870 4 view .LVU528
 1973 002c 0422     		movs	r2, #4
 1974 002e A11D     		adds	r1, r4, #6
 1975 0030 4FF47060 		mov	r0, #3840
 1976 0034 FFF7FEFF 		bl	WIZCHIP_READ_BUF
 1977              	.LVL195:
 871:ioLibrary_Driver-master/Ethernet/wizchip_conf.c ****    pnetinfo->dns[0]= _DNS_[0];
 1978              		.loc 1 871 4 view .LVU529
 1979              		.loc 1 871 27 is_stmt 0 view .LVU530
 1980 0038 064B     		ldr	r3, .L160
 1981 003a 1A78     		ldrb	r2, [r3]	@ zero_extendqisi2
 1982              		.loc 1 871 20 view .LVU531
 1983 003c A274     		strb	r2, [r4, #18]
 872:ioLibrary_Driver-master/Ethernet/wizchip_conf.c ****    pnetinfo->dns[1]= _DNS_[1];
 1984              		.loc 1 872 4 is_stmt 1 view .LVU532
 1985              		.loc 1 872 27 is_stmt 0 view .LVU533
 1986 003e 5A78     		ldrb	r2, [r3, #1]	@ zero_extendqisi2
 1987              		.loc 1 872 20 view .LVU534
 1988 0040 E274     		strb	r2, [r4, #19]
 873:ioLibrary_Driver-master/Ethernet/wizchip_conf.c ****    pnetinfo->dns[2]= _DNS_[2];
 1989              		.loc 1 873 4 is_stmt 1 view .LVU535
 1990              		.loc 1 873 27 is_stmt 0 view .LVU536
 1991 0042 9A78     		ldrb	r2, [r3, #2]	@ zero_extendqisi2
 1992              		.loc 1 873 20 view .LVU537
 1993 0044 2275     		strb	r2, [r4, #20]
 874:ioLibrary_Driver-master/Ethernet/wizchip_conf.c ****    pnetinfo->dns[3]= _DNS_[3];
 1994              		.loc 1 874 4 is_stmt 1 view .LVU538
 1995              		.loc 1 874 27 is_stmt 0 view .LVU539
 1996 0046 DB78     		ldrb	r3, [r3, #3]	@ zero_extendqisi2
 1997              		.loc 1 874 20 view .LVU540
 1998 0048 6375     		strb	r3, [r4, #21]
 875:ioLibrary_Driver-master/Ethernet/wizchip_conf.c ****    pnetinfo->dhcp  = _DHCP_;
 1999              		.loc 1 875 4 is_stmt 1 view .LVU541
 2000              		.loc 1 875 20 is_stmt 0 view .LVU542
 2001 004a 034B     		ldr	r3, .L160+4
 2002 004c 1B78     		ldrb	r3, [r3]	@ zero_extendqisi2
 2003 004e A375     		strb	r3, [r4, #22]
 876:ioLibrary_Driver-master/Ethernet/wizchip_conf.c **** }
 2004              		.loc 1 876 1 view .LVU543
 2005 0050 10BD     		pop	{r4, pc}
 2006              	.LVL196:
 2007              	.L161:
ARM GAS  C:\Users\VIDCOM~1\AppData\Local\Temp\cciRpnMV.s 			page 54


 2008              		.loc 1 876 1 view .LVU544
 2009 0052 00BF     		.align	2
 2010              	.L160:
 2011 0054 00000000 		.word	_DNS_
 2012 0058 00000000 		.word	_DHCP_
 2013              		.cfi_endproc
 2014              	.LFE31:
 2016              		.section	.text.wizchip_setnetmode,"ax",%progbits
 2017              		.align	1
 2018              		.global	wizchip_setnetmode
 2019              		.syntax unified
 2020              		.thumb
 2021              		.thumb_func
 2023              	wizchip_setnetmode:
 2024              	.LVL197:
 2025              	.LFB32:
 877:ioLibrary_Driver-master/Ethernet/wizchip_conf.c **** 
 878:ioLibrary_Driver-master/Ethernet/wizchip_conf.c **** int8_t wizchip_setnetmode(netmode_type netmode)
 879:ioLibrary_Driver-master/Ethernet/wizchip_conf.c **** {
 2026              		.loc 1 879 1 is_stmt 1 view -0
 2027              		.cfi_startproc
 2028              		@ args = 0, pretend = 0, frame = 0
 2029              		@ frame_needed = 0, uses_anonymous_args = 0
 880:ioLibrary_Driver-master/Ethernet/wizchip_conf.c ****    uint8_t tmp = 0;
 2030              		.loc 1 880 4 view .LVU546
 881:ioLibrary_Driver-master/Ethernet/wizchip_conf.c **** #if _WIZCHIP_ != W5500
 882:ioLibrary_Driver-master/Ethernet/wizchip_conf.c ****    if(netmode & ~(NM_WAKEONLAN | NM_PPPOE | NM_PINGBLOCK)) return -1;
 883:ioLibrary_Driver-master/Ethernet/wizchip_conf.c **** #else
 884:ioLibrary_Driver-master/Ethernet/wizchip_conf.c ****    if(netmode & ~(NM_WAKEONLAN | NM_PPPOE | NM_PINGBLOCK | NM_FORCEARP)) return -1;
 2031              		.loc 1 884 4 view .LVU547
 2032              		.loc 1 884 6 is_stmt 0 view .LVU548
 2033 0000 30F03A03 		bics	r3, r0, #58
 2034 0004 0CD1     		bne	.L164
 879:ioLibrary_Driver-master/Ethernet/wizchip_conf.c ****    uint8_t tmp = 0;
 2035              		.loc 1 879 1 view .LVU549
 2036 0006 10B5     		push	{r4, lr}
 2037              	.LCFI21:
 2038              		.cfi_def_cfa_offset 8
 2039              		.cfi_offset 4, -8
 2040              		.cfi_offset 14, -4
 2041 0008 0446     		mov	r4, r0
 885:ioLibrary_Driver-master/Ethernet/wizchip_conf.c **** #endif      
 886:ioLibrary_Driver-master/Ethernet/wizchip_conf.c ****    tmp = getMR();
 2042              		.loc 1 886 4 is_stmt 1 view .LVU550
 2043              		.loc 1 886 10 is_stmt 0 view .LVU551
 2044 000a 0020     		movs	r0, #0
 2045              	.LVL198:
 2046              		.loc 1 886 10 view .LVU552
 2047 000c FFF7FEFF 		bl	WIZCHIP_READ
 2048              	.LVL199:
 887:ioLibrary_Driver-master/Ethernet/wizchip_conf.c ****    tmp |= (uint8_t)netmode;
 2049              		.loc 1 887 4 is_stmt 1 view .LVU553
 2050              		.loc 1 887 8 is_stmt 0 view .LVU554
 2051 0010 44EA0001 		orr	r1, r4, r0
 2052              	.LVL200:
 888:ioLibrary_Driver-master/Ethernet/wizchip_conf.c ****    setMR(tmp);
 2053              		.loc 1 888 4 is_stmt 1 view .LVU555
ARM GAS  C:\Users\VIDCOM~1\AppData\Local\Temp\cciRpnMV.s 			page 55


 2054 0014 C9B2     		uxtb	r1, r1
 2055              		.loc 1 888 4 is_stmt 0 view .LVU556
 2056 0016 0020     		movs	r0, #0
 2057 0018 FFF7FEFF 		bl	WIZCHIP_WRITE
 2058              	.LVL201:
 889:ioLibrary_Driver-master/Ethernet/wizchip_conf.c ****    return 0;
 2059              		.loc 1 889 4 is_stmt 1 view .LVU557
 2060              		.loc 1 889 11 is_stmt 0 view .LVU558
 2061 001c 0020     		movs	r0, #0
 890:ioLibrary_Driver-master/Ethernet/wizchip_conf.c **** }
 2062              		.loc 1 890 1 view .LVU559
 2063 001e 10BD     		pop	{r4, pc}
 2064              	.LVL202:
 2065              	.L164:
 2066              	.LCFI22:
 2067              		.cfi_def_cfa_offset 0
 2068              		.cfi_restore 4
 2069              		.cfi_restore 14
 884:ioLibrary_Driver-master/Ethernet/wizchip_conf.c **** #endif      
 2070              		.loc 1 884 81 view .LVU560
 2071 0020 4FF0FF30 		mov	r0, #-1
 2072              	.LVL203:
 2073              		.loc 1 890 1 view .LVU561
 2074 0024 7047     		bx	lr
 2075              		.cfi_endproc
 2076              	.LFE32:
 2078              		.section	.text.wizchip_getnetmode,"ax",%progbits
 2079              		.align	1
 2080              		.global	wizchip_getnetmode
 2081              		.syntax unified
 2082              		.thumb
 2083              		.thumb_func
 2085              	wizchip_getnetmode:
 2086              	.LFB33:
 891:ioLibrary_Driver-master/Ethernet/wizchip_conf.c **** 
 892:ioLibrary_Driver-master/Ethernet/wizchip_conf.c **** netmode_type wizchip_getnetmode(void)
 893:ioLibrary_Driver-master/Ethernet/wizchip_conf.c **** {
 2087              		.loc 1 893 1 is_stmt 1 view -0
 2088              		.cfi_startproc
 2089              		@ args = 0, pretend = 0, frame = 0
 2090              		@ frame_needed = 0, uses_anonymous_args = 0
 2091 0000 08B5     		push	{r3, lr}
 2092              	.LCFI23:
 2093              		.cfi_def_cfa_offset 8
 2094              		.cfi_offset 3, -8
 2095              		.cfi_offset 14, -4
 894:ioLibrary_Driver-master/Ethernet/wizchip_conf.c ****    return (netmode_type) getMR();
 2096              		.loc 1 894 4 view .LVU563
 2097              		.loc 1 894 26 is_stmt 0 view .LVU564
 2098 0002 0020     		movs	r0, #0
 2099 0004 FFF7FEFF 		bl	WIZCHIP_READ
 2100              	.LVL204:
 895:ioLibrary_Driver-master/Ethernet/wizchip_conf.c **** }
 2101              		.loc 1 895 1 view .LVU565
 2102 0008 08BD     		pop	{r3, pc}
 2103              		.cfi_endproc
 2104              	.LFE33:
ARM GAS  C:\Users\VIDCOM~1\AppData\Local\Temp\cciRpnMV.s 			page 56


 2106              		.section	.text.wizchip_settimeout,"ax",%progbits
 2107              		.align	1
 2108              		.global	wizchip_settimeout
 2109              		.syntax unified
 2110              		.thumb
 2111              		.thumb_func
 2113              	wizchip_settimeout:
 2114              	.LVL205:
 2115              	.LFB34:
 896:ioLibrary_Driver-master/Ethernet/wizchip_conf.c **** 
 897:ioLibrary_Driver-master/Ethernet/wizchip_conf.c **** void wizchip_settimeout(wiz_NetTimeout* nettime)
 898:ioLibrary_Driver-master/Ethernet/wizchip_conf.c **** {
 2116              		.loc 1 898 1 is_stmt 1 view -0
 2117              		.cfi_startproc
 2118              		@ args = 0, pretend = 0, frame = 0
 2119              		@ frame_needed = 0, uses_anonymous_args = 0
 2120              		.loc 1 898 1 is_stmt 0 view .LVU567
 2121 0000 10B5     		push	{r4, lr}
 2122              	.LCFI24:
 2123              		.cfi_def_cfa_offset 8
 2124              		.cfi_offset 4, -8
 2125              		.cfi_offset 14, -4
 2126 0002 0446     		mov	r4, r0
 899:ioLibrary_Driver-master/Ethernet/wizchip_conf.c ****    setRCR(nettime->retry_cnt);
 2127              		.loc 1 899 4 is_stmt 1 view .LVU568
 2128 0004 0178     		ldrb	r1, [r0]	@ zero_extendqisi2
 2129 0006 4FF4D850 		mov	r0, #6912
 2130              	.LVL206:
 2131              		.loc 1 899 4 is_stmt 0 view .LVU569
 2132 000a FFF7FEFF 		bl	WIZCHIP_WRITE
 2133              	.LVL207:
 900:ioLibrary_Driver-master/Ethernet/wizchip_conf.c ****    setRTR(nettime->time_100us);
 2134              		.loc 1 900 4 is_stmt 1 view .LVU570
 2135 000e 6188     		ldrh	r1, [r4, #2]
 2136 0010 090A     		lsrs	r1, r1, #8
 2137 0012 4FF4C850 		mov	r0, #6400
 2138 0016 FFF7FEFF 		bl	WIZCHIP_WRITE
 2139              	.LVL208:
 2140              		.loc 1 900 4 view .LVU571
 2141 001a A178     		ldrb	r1, [r4, #2]	@ zero_extendqisi2
 2142 001c 4FF4D050 		mov	r0, #6656
 2143 0020 FFF7FEFF 		bl	WIZCHIP_WRITE
 2144              	.LVL209:
 2145              		.loc 1 900 31 view .LVU572
 901:ioLibrary_Driver-master/Ethernet/wizchip_conf.c **** }
 2146              		.loc 1 901 1 is_stmt 0 view .LVU573
 2147 0024 10BD     		pop	{r4, pc}
 2148              		.loc 1 901 1 view .LVU574
 2149              		.cfi_endproc
 2150              	.LFE34:
 2152              		.section	.text.wizchip_gettimeout,"ax",%progbits
 2153              		.align	1
 2154              		.global	wizchip_gettimeout
 2155              		.syntax unified
 2156              		.thumb
 2157              		.thumb_func
 2159              	wizchip_gettimeout:
ARM GAS  C:\Users\VIDCOM~1\AppData\Local\Temp\cciRpnMV.s 			page 57


 2160              	.LVL210:
 2161              	.LFB35:
 902:ioLibrary_Driver-master/Ethernet/wizchip_conf.c **** 
 903:ioLibrary_Driver-master/Ethernet/wizchip_conf.c **** void wizchip_gettimeout(wiz_NetTimeout* nettime)
 904:ioLibrary_Driver-master/Ethernet/wizchip_conf.c **** {
 2162              		.loc 1 904 1 is_stmt 1 view -0
 2163              		.cfi_startproc
 2164              		@ args = 0, pretend = 0, frame = 0
 2165              		@ frame_needed = 0, uses_anonymous_args = 0
 2166              		.loc 1 904 1 is_stmt 0 view .LVU576
 2167 0000 38B5     		push	{r3, r4, r5, lr}
 2168              	.LCFI25:
 2169              		.cfi_def_cfa_offset 16
 2170              		.cfi_offset 3, -16
 2171              		.cfi_offset 4, -12
 2172              		.cfi_offset 5, -8
 2173              		.cfi_offset 14, -4
 2174 0002 0546     		mov	r5, r0
 905:ioLibrary_Driver-master/Ethernet/wizchip_conf.c ****    nettime->retry_cnt = getRCR();
 2175              		.loc 1 905 4 is_stmt 1 view .LVU577
 2176              		.loc 1 905 25 is_stmt 0 view .LVU578
 2177 0004 4FF4D850 		mov	r0, #6912
 2178              	.LVL211:
 2179              		.loc 1 905 25 view .LVU579
 2180 0008 FFF7FEFF 		bl	WIZCHIP_READ
 2181              	.LVL212:
 2182              		.loc 1 905 23 view .LVU580
 2183 000c 2870     		strb	r0, [r5]
 906:ioLibrary_Driver-master/Ethernet/wizchip_conf.c ****    nettime->time_100us = getRTR();
 2184              		.loc 1 906 4 is_stmt 1 view .LVU581
 2185              		.loc 1 906 26 is_stmt 0 view .LVU582
 2186 000e 4FF4C850 		mov	r0, #6400
 2187 0012 FFF7FEFF 		bl	WIZCHIP_READ
 2188              	.LVL213:
 2189 0016 0402     		lsls	r4, r0, #8
 2190 0018 A4B2     		uxth	r4, r4
 2191 001a 4FF4D050 		mov	r0, #6656
 2192 001e FFF7FEFF 		bl	WIZCHIP_READ
 2193              	.LVL214:
 2194 0022 0444     		add	r4, r4, r0
 2195              		.loc 1 906 24 view .LVU583
 2196 0024 6C80     		strh	r4, [r5, #2]	@ movhi
 907:ioLibrary_Driver-master/Ethernet/wizchip_conf.c **** }
 2197              		.loc 1 907 1 view .LVU584
 2198 0026 38BD     		pop	{r3, r4, r5, pc}
 2199              		.loc 1 907 1 view .LVU585
 2200              		.cfi_endproc
 2201              	.LFE35:
 2203              		.section	.text.ctlnetwork,"ax",%progbits
 2204              		.align	1
 2205              		.global	ctlnetwork
 2206              		.syntax unified
 2207              		.thumb
 2208              		.thumb_func
 2210              	ctlnetwork:
 2211              	.LVL215:
 2212              	.LFB16:
ARM GAS  C:\Users\VIDCOM~1\AppData\Local\Temp\cciRpnMV.s 			page 58


 368:ioLibrary_Driver-master/Ethernet/wizchip_conf.c ****    
 2213              		.loc 1 368 1 is_stmt 1 view -0
 2214              		.cfi_startproc
 2215              		@ args = 0, pretend = 0, frame = 0
 2216              		@ frame_needed = 0, uses_anonymous_args = 0
 368:ioLibrary_Driver-master/Ethernet/wizchip_conf.c ****    
 2217              		.loc 1 368 1 is_stmt 0 view .LVU587
 2218 0000 10B5     		push	{r4, lr}
 2219              	.LCFI26:
 2220              		.cfi_def_cfa_offset 8
 2221              		.cfi_offset 4, -8
 2222              		.cfi_offset 14, -4
 2223 0002 0C46     		mov	r4, r1
 370:ioLibrary_Driver-master/Ethernet/wizchip_conf.c ****    {
 2224              		.loc 1 370 4 is_stmt 1 view .LVU588
 2225 0004 0528     		cmp	r0, #5
 2226 0006 21D8     		bhi	.L184
 2227 0008 DFE800F0 		tbb	[pc, r0]
 2228              	.L178:
 2229 000c 03       		.byte	(.L183-.L178)/2
 2230 000d 08       		.byte	(.L182-.L178)/2
 2231 000e 0D       		.byte	(.L181-.L178)/2
 2232 000f 11       		.byte	(.L180-.L178)/2
 2233 0010 16       		.byte	(.L179-.L178)/2
 2234 0011 1B       		.byte	(.L177-.L178)/2
 2235              		.p2align 1
 2236              	.L183:
 373:ioLibrary_Driver-master/Ethernet/wizchip_conf.c ****          break;
 2237              		.loc 1 373 10 view .LVU589
 2238 0012 0846     		mov	r0, r1
 2239              	.LVL216:
 373:ioLibrary_Driver-master/Ethernet/wizchip_conf.c ****          break;
 2240              		.loc 1 373 10 is_stmt 0 view .LVU590
 2241 0014 FFF7FEFF 		bl	wizchip_setnetinfo
 2242              	.LVL217:
 374:ioLibrary_Driver-master/Ethernet/wizchip_conf.c ****       case CN_GET_NETINFO:
 2243              		.loc 1 374 10 is_stmt 1 view .LVU591
 392:ioLibrary_Driver-master/Ethernet/wizchip_conf.c **** }
 2244              		.loc 1 392 11 is_stmt 0 view .LVU592
 2245 0018 0020     		movs	r0, #0
 2246              	.L176:
 393:ioLibrary_Driver-master/Ethernet/wizchip_conf.c **** 
 2247              		.loc 1 393 1 view .LVU593
 2248 001a 10BD     		pop	{r4, pc}
 2249              	.LVL218:
 2250              	.L182:
 376:ioLibrary_Driver-master/Ethernet/wizchip_conf.c ****          break;
 2251              		.loc 1 376 10 is_stmt 1 view .LVU594
 2252 001c 0846     		mov	r0, r1
 2253              	.LVL219:
 376:ioLibrary_Driver-master/Ethernet/wizchip_conf.c ****          break;
 2254              		.loc 1 376 10 is_stmt 0 view .LVU595
 2255 001e FFF7FEFF 		bl	wizchip_getnetinfo
 2256              	.LVL220:
 377:ioLibrary_Driver-master/Ethernet/wizchip_conf.c ****       case CN_SET_NETMODE:
 2257              		.loc 1 377 10 is_stmt 1 view .LVU596
 392:ioLibrary_Driver-master/Ethernet/wizchip_conf.c **** }
ARM GAS  C:\Users\VIDCOM~1\AppData\Local\Temp\cciRpnMV.s 			page 59


 2258              		.loc 1 392 11 is_stmt 0 view .LVU597
 2259 0022 0020     		movs	r0, #0
 377:ioLibrary_Driver-master/Ethernet/wizchip_conf.c ****       case CN_SET_NETMODE:
 2260              		.loc 1 377 10 view .LVU598
 2261 0024 F9E7     		b	.L176
 2262              	.LVL221:
 2263              	.L181:
 379:ioLibrary_Driver-master/Ethernet/wizchip_conf.c ****       case CN_GET_NETMODE:
 2264              		.loc 1 379 10 is_stmt 1 view .LVU599
 379:ioLibrary_Driver-master/Ethernet/wizchip_conf.c ****       case CN_GET_NETMODE:
 2265              		.loc 1 379 17 is_stmt 0 view .LVU600
 2266 0026 0878     		ldrb	r0, [r1]	@ zero_extendqisi2
 2267              	.LVL222:
 379:ioLibrary_Driver-master/Ethernet/wizchip_conf.c ****       case CN_GET_NETMODE:
 2268              		.loc 1 379 17 view .LVU601
 2269 0028 FFF7FEFF 		bl	wizchip_setnetmode
 2270              	.LVL223:
 379:ioLibrary_Driver-master/Ethernet/wizchip_conf.c ****       case CN_GET_NETMODE:
 2271              		.loc 1 379 17 view .LVU602
 2272 002c F5E7     		b	.L176
 2273              	.LVL224:
 2274              	.L180:
 381:ioLibrary_Driver-master/Ethernet/wizchip_conf.c ****          break;
 2275              		.loc 1 381 10 is_stmt 1 view .LVU603
 381:ioLibrary_Driver-master/Ethernet/wizchip_conf.c ****          break;
 2276              		.loc 1 381 32 is_stmt 0 view .LVU604
 2277 002e FFF7FEFF 		bl	wizchip_getnetmode
 2278              	.LVL225:
 381:ioLibrary_Driver-master/Ethernet/wizchip_conf.c ****          break;
 2279              		.loc 1 381 30 view .LVU605
 2280 0032 2070     		strb	r0, [r4]
 382:ioLibrary_Driver-master/Ethernet/wizchip_conf.c ****       case CN_SET_TIMEOUT:
 2281              		.loc 1 382 10 is_stmt 1 view .LVU606
 392:ioLibrary_Driver-master/Ethernet/wizchip_conf.c **** }
 2282              		.loc 1 392 11 is_stmt 0 view .LVU607
 2283 0034 0020     		movs	r0, #0
 382:ioLibrary_Driver-master/Ethernet/wizchip_conf.c ****       case CN_SET_TIMEOUT:
 2284              		.loc 1 382 10 view .LVU608
 2285 0036 F0E7     		b	.L176
 2286              	.LVL226:
 2287              	.L179:
 384:ioLibrary_Driver-master/Ethernet/wizchip_conf.c ****          break;
 2288              		.loc 1 384 10 is_stmt 1 view .LVU609
 2289 0038 0846     		mov	r0, r1
 2290              	.LVL227:
 384:ioLibrary_Driver-master/Ethernet/wizchip_conf.c ****          break;
 2291              		.loc 1 384 10 is_stmt 0 view .LVU610
 2292 003a FFF7FEFF 		bl	wizchip_settimeout
 2293              	.LVL228:
 385:ioLibrary_Driver-master/Ethernet/wizchip_conf.c ****       case CN_GET_TIMEOUT:
 2294              		.loc 1 385 10 is_stmt 1 view .LVU611
 392:ioLibrary_Driver-master/Ethernet/wizchip_conf.c **** }
 2295              		.loc 1 392 11 is_stmt 0 view .LVU612
 2296 003e 0020     		movs	r0, #0
 385:ioLibrary_Driver-master/Ethernet/wizchip_conf.c ****       case CN_GET_TIMEOUT:
 2297              		.loc 1 385 10 view .LVU613
 2298 0040 EBE7     		b	.L176
ARM GAS  C:\Users\VIDCOM~1\AppData\Local\Temp\cciRpnMV.s 			page 60


 2299              	.LVL229:
 2300              	.L177:
 387:ioLibrary_Driver-master/Ethernet/wizchip_conf.c ****          break;
 2301              		.loc 1 387 10 is_stmt 1 view .LVU614
 2302 0042 0846     		mov	r0, r1
 2303              	.LVL230:
 387:ioLibrary_Driver-master/Ethernet/wizchip_conf.c ****          break;
 2304              		.loc 1 387 10 is_stmt 0 view .LVU615
 2305 0044 FFF7FEFF 		bl	wizchip_gettimeout
 2306              	.LVL231:
 388:ioLibrary_Driver-master/Ethernet/wizchip_conf.c ****       default:
 2307              		.loc 1 388 10 is_stmt 1 view .LVU616
 392:ioLibrary_Driver-master/Ethernet/wizchip_conf.c **** }
 2308              		.loc 1 392 11 is_stmt 0 view .LVU617
 2309 0048 0020     		movs	r0, #0
 388:ioLibrary_Driver-master/Ethernet/wizchip_conf.c ****       default:
 2310              		.loc 1 388 10 view .LVU618
 2311 004a E6E7     		b	.L176
 2312              	.LVL232:
 2313              	.L184:
 370:ioLibrary_Driver-master/Ethernet/wizchip_conf.c ****    {
 2314              		.loc 1 370 4 view .LVU619
 2315 004c 4FF0FF30 		mov	r0, #-1
 2316              	.LVL233:
 370:ioLibrary_Driver-master/Ethernet/wizchip_conf.c ****    {
 2317              		.loc 1 370 4 view .LVU620
 2318 0050 E3E7     		b	.L176
 2319              		.cfi_endproc
 2320              	.LFE16:
 2322              		.section	.bss._DHCP_,"aw",%nobits
 2325              	_DHCP_:
 2326 0000 00       		.space	1
 2327              		.section	.bss._DNS_,"aw",%nobits
 2328              		.align	2
 2331              	_DNS_:
 2332 0000 00000000 		.space	4
 2333              		.global	WIZCHIP
 2334              		.section	.data.WIZCHIP,"aw"
 2335              		.align	2
 2338              	WIZCHIP:
 2339 0000 0102     		.short	513
 2340 0002 57353530 		.ascii	"W5500\000\000"
 2340      300000
 2341 0009 00       		.space	1
 2342 000a 0000     		.space	2
 2343 000c 00000000 		.word	wizchip_cris_enter
 2344 0010 00000000 		.word	wizchip_cris_exit
 2345 0014 00000000 		.word	wizchip_cs_select
 2346 0018 00000000 		.word	wizchip_cs_deselect
 2347 001c 00000000 		.word	wizchip_bus_readdata
 2348 0020 00000000 		.word	wizchip_bus_writedata
 2349 0024 00000000 		.space	8
 2349      00000000 
 2350              		.text
 2351              	.Letext0:
 2352              		.file 2 "c:\\vscode\\vscodestmtools\\arm-none-eabi-gcc\\12.2.1-1.2.1\\.content\\lib\\gcc\\arm-none
 2353              		.file 3 "c:\\vscode\\vscodestmtools\\arm-none-eabi-gcc\\12.2.1-1.2.1\\.content\\arm-none-eabi\\inc
ARM GAS  C:\Users\VIDCOM~1\AppData\Local\Temp\cciRpnMV.s 			page 61


 2354              		.file 4 "c:\\vscode\\vscodestmtools\\arm-none-eabi-gcc\\12.2.1-1.2.1\\.content\\arm-none-eabi\\inc
 2355              		.file 5 "ioLibrary_Driver-master/Ethernet/wizchip_conf.h"
 2356              		.file 6 "ioLibrary_Driver-master/Ethernet/W5500/w5500.h"
ARM GAS  C:\Users\VIDCOM~1\AppData\Local\Temp\cciRpnMV.s 			page 62

